
/Users/loicpwlk/Documents/Code/Rpi-pico/piconetwork/adc-picoW/build/adc-picoW.elf:     file format elf32-littlearm

Sections:
Idx Name          Size      VMA       LMA       File off  Algn
  0 .boot2        00000100  10000000  10000000  00001000  2**0
                  CONTENTS, ALLOC, LOAD, READONLY, CODE
  1 .text         0000a768  10000100  10000100  00001100  2**3
                  CONTENTS, ALLOC, LOAD, READONLY, CODE
  2 .rodata       00037e40  1000a868  1000a868  0000b868  2**3
                  CONTENTS, ALLOC, LOAD, READONLY, DATA
  3 .binary_info  0000002c  100426a8  100426a8  000436a8  2**2
                  CONTENTS, ALLOC, LOAD, DATA
  4 .ram_vector_table 000000c0  20000000  20000000  00045198  2**2
                  CONTENTS
  5 .data         000010d8  200000c0  100426d4  000440c0  2**4
                  CONTENTS, ALLOC, LOAD, READONLY, CODE
  6 .uninitialized_data 00000000  20001198  20001198  00045258  2**0
                  CONTENTS
  7 .scratch_x    00000000  20040000  20040000  00045258  2**0
                  CONTENTS
  8 .scratch_y    00000000  20041000  20041000  00045258  2**0
                  CONTENTS
  9 .bss          00001af4  20001198  20001198  00045198  2**3
                  ALLOC
 10 .heap         00000800  20002c8c  20002c8c  00045258  2**2
                  CONTENTS, READONLY
 11 .stack_dummy  00000800  20041000  20041000  00045a60  2**5
                  CONTENTS, READONLY
 12 .ARM.attributes 00000028  00000000  00000000  00046260  2**0
                  CONTENTS, READONLY
 13 .comment      00000049  00000000  00000000  00046288  2**0
                  CONTENTS, READONLY
 14 .debug_frame  00000084  00000000  00000000  000462d4  2**2
                  CONTENTS, READONLY, DEBUGGING, OCTETS

/Users/loicpwlk/Documents/Code/Rpi-pico/piconetwork/adc-picoW/build/adc-picoW.elf:     file format elf32-littlearm


Disassembly of section .boot2:

10000000 <__boot2_start__>:
10000000:	4b32b500 	.word	0x4b32b500
10000004:	60582021 	.word	0x60582021
10000008:	21026898 	.word	0x21026898
1000000c:	60984388 	.word	0x60984388
10000010:	611860d8 	.word	0x611860d8
10000014:	4b2e6158 	.word	0x4b2e6158
10000018:	60992100 	.word	0x60992100
1000001c:	61592102 	.word	0x61592102
10000020:	22f02101 	.word	0x22f02101
10000024:	492b5099 	.word	0x492b5099
10000028:	21016019 	.word	0x21016019
1000002c:	20356099 	.word	0x20356099
10000030:	f844f000 	.word	0xf844f000
10000034:	42902202 	.word	0x42902202
10000038:	2106d014 	.word	0x2106d014
1000003c:	f0006619 	.word	0xf0006619
10000040:	6e19f834 	.word	0x6e19f834
10000044:	66192101 	.word	0x66192101
10000048:	66182000 	.word	0x66182000
1000004c:	f000661a 	.word	0xf000661a
10000050:	6e19f82c 	.word	0x6e19f82c
10000054:	6e196e19 	.word	0x6e196e19
10000058:	f0002005 	.word	0xf0002005
1000005c:	2101f82f 	.word	0x2101f82f
10000060:	d1f94208 	.word	0xd1f94208
10000064:	60992100 	.word	0x60992100
10000068:	6019491b 	.word	0x6019491b
1000006c:	60592100 	.word	0x60592100
10000070:	481b491a 	.word	0x481b491a
10000074:	21016001 	.word	0x21016001
10000078:	21eb6099 	.word	0x21eb6099
1000007c:	21a06619 	.word	0x21a06619
10000080:	f0006619 	.word	0xf0006619
10000084:	2100f812 	.word	0x2100f812
10000088:	49166099 	.word	0x49166099
1000008c:	60014814 	.word	0x60014814
10000090:	60992101 	.word	0x60992101
10000094:	2800bc01 	.word	0x2800bc01
10000098:	4700d000 	.word	0x4700d000
1000009c:	49134812 	.word	0x49134812
100000a0:	c8036008 	.word	0xc8036008
100000a4:	8808f380 	.word	0x8808f380
100000a8:	b5034708 	.word	0xb5034708
100000ac:	20046a99 	.word	0x20046a99
100000b0:	d0fb4201 	.word	0xd0fb4201
100000b4:	42012001 	.word	0x42012001
100000b8:	bd03d1f8 	.word	0xbd03d1f8
100000bc:	6618b502 	.word	0x6618b502
100000c0:	f7ff6618 	.word	0xf7ff6618
100000c4:	6e18fff2 	.word	0x6e18fff2
100000c8:	bd026e18 	.word	0xbd026e18
100000cc:	40020000 	.word	0x40020000
100000d0:	18000000 	.word	0x18000000
100000d4:	00070000 	.word	0x00070000
100000d8:	005f0300 	.word	0x005f0300
100000dc:	00002221 	.word	0x00002221
100000e0:	180000f4 	.word	0x180000f4
100000e4:	a0002022 	.word	0xa0002022
100000e8:	10000100 	.word	0x10000100
100000ec:	e000ed08 	.word	0xe000ed08
	...
100000fc:	7a4eb274 	.word	0x7a4eb274

Disassembly of section .text:

10000100 <__VECTOR_TABLE>:
10000100:	20042000 	.word	0x20042000
10000104:	100001f7 	.word	0x100001f7
10000108:	100001c3 	.word	0x100001c3
1000010c:	100001c5 	.word	0x100001c5
10000110:	100001c1 	.word	0x100001c1
10000114:	100001c1 	.word	0x100001c1
10000118:	100001c1 	.word	0x100001c1
1000011c:	100001c1 	.word	0x100001c1
10000120:	100001c1 	.word	0x100001c1
10000124:	100001c1 	.word	0x100001c1
10000128:	100001c1 	.word	0x100001c1
1000012c:	100001c7 	.word	0x100001c7
10000130:	100001c1 	.word	0x100001c1
10000134:	100001c1 	.word	0x100001c1
10000138:	100001c9 	.word	0x100001c9
1000013c:	100001cb 	.word	0x100001cb
10000140:	100001cd 	.word	0x100001cd
10000144:	100001cd 	.word	0x100001cd
10000148:	100001cd 	.word	0x100001cd
1000014c:	100001cd 	.word	0x100001cd
10000150:	100001cd 	.word	0x100001cd
10000154:	100001cd 	.word	0x100001cd
10000158:	100001cd 	.word	0x100001cd
1000015c:	100001cd 	.word	0x100001cd
10000160:	100001cd 	.word	0x100001cd
10000164:	100001cd 	.word	0x100001cd
10000168:	100001cd 	.word	0x100001cd
1000016c:	100001cd 	.word	0x100001cd
10000170:	100001cd 	.word	0x100001cd
10000174:	100001cd 	.word	0x100001cd
10000178:	100001cd 	.word	0x100001cd
1000017c:	100001cd 	.word	0x100001cd
10000180:	100001cd 	.word	0x100001cd
10000184:	100001cd 	.word	0x100001cd
10000188:	100001cd 	.word	0x100001cd
1000018c:	100001cd 	.word	0x100001cd
10000190:	100001cd 	.word	0x100001cd
10000194:	100001cd 	.word	0x100001cd
10000198:	100001cd 	.word	0x100001cd
1000019c:	100001cd 	.word	0x100001cd
100001a0:	100001cd 	.word	0x100001cd
100001a4:	100001cd 	.word	0x100001cd
100001a8:	100001cd 	.word	0x100001cd
100001ac:	100001cd 	.word	0x100001cd
100001b0:	100001cd 	.word	0x100001cd
100001b4:	100001cd 	.word	0x100001cd
100001b8:	100001cd 	.word	0x100001cd
100001bc:	100001cd 	.word	0x100001cd

100001c0 <isr_invalid>:
100001c0:	be00      	bkpt	0x0000

100001c2 <isr_nmi>:
100001c2:	be00      	bkpt	0x0000

100001c4 <isr_hardfault>:
100001c4:	be00      	bkpt	0x0000

100001c6 <isr_svcall>:
100001c6:	be00      	bkpt	0x0000

100001c8 <isr_pendsv>:
100001c8:	be00      	bkpt	0x0000

100001ca <isr_systick>:
100001ca:	be00      	bkpt	0x0000

100001cc <__unhandled_user_irq>:
100001cc:	f3ef 8005 	mrs	r0, IPSR
100001d0:	3810      	subs	r0, #16

100001d2 <unhandled_user_irq_num_in_r0>:
100001d2:	be00      	bkpt	0x0000

100001d4 <binary_info_header>:
100001d4:	7188ebf2 	.word	0x7188ebf2
100001d8:	100426a8 	.word	0x100426a8
100001dc:	100426d4 	.word	0x100426d4
100001e0:	10000234 	.word	0x10000234
100001e4:	e71aa390 	.word	0xe71aa390

100001e8 <_entry_point>:
100001e8:	2000      	movs	r0, #0
100001ea:	491f      	ldr	r1, [pc, #124]	; (10000268 <hold_non_core0_in_bootrom+0xa>)
100001ec:	6008      	str	r0, [r1, #0]
100001ee:	c806      	ldmia	r0!, {r1, r2}
100001f0:	f381 8808 	msr	MSP, r1
100001f4:	4710      	bx	r2

100001f6 <_reset_handler>:
100001f6:	481d      	ldr	r0, [pc, #116]	; (1000026c <hold_non_core0_in_bootrom+0xe>)
100001f8:	6800      	ldr	r0, [r0, #0]
100001fa:	2800      	cmp	r0, #0
100001fc:	d12f      	bne.n	1000025e <hold_non_core0_in_bootrom>
100001fe:	a40d      	add	r4, pc, #52	; (adr r4, 10000234 <data_cpy_table>)
10000200:	cc0e      	ldmia	r4!, {r1, r2, r3}
10000202:	2900      	cmp	r1, #0
10000204:	d002      	beq.n	1000020c <_reset_handler+0x16>
10000206:	f000 f812 	bl	1000022e <data_cpy>
1000020a:	e7f9      	b.n	10000200 <_reset_handler+0xa>
1000020c:	4918      	ldr	r1, [pc, #96]	; (10000270 <hold_non_core0_in_bootrom+0x12>)
1000020e:	4a19      	ldr	r2, [pc, #100]	; (10000274 <hold_non_core0_in_bootrom+0x16>)
10000210:	2000      	movs	r0, #0
10000212:	e000      	b.n	10000216 <bss_fill_test>

10000214 <bss_fill_loop>:
10000214:	c101      	stmia	r1!, {r0}

10000216 <bss_fill_test>:
10000216:	4291      	cmp	r1, r2
10000218:	d1fc      	bne.n	10000214 <bss_fill_loop>

1000021a <platform_entry>:
1000021a:	4917      	ldr	r1, [pc, #92]	; (10000278 <hold_non_core0_in_bootrom+0x1a>)
1000021c:	4788      	blx	r1
1000021e:	4917      	ldr	r1, [pc, #92]	; (1000027c <hold_non_core0_in_bootrom+0x1e>)
10000220:	4788      	blx	r1
10000222:	4917      	ldr	r1, [pc, #92]	; (10000280 <hold_non_core0_in_bootrom+0x22>)
10000224:	4788      	blx	r1
10000226:	be00      	bkpt	0x0000
10000228:	e7fd      	b.n	10000226 <platform_entry+0xc>

1000022a <data_cpy_loop>:
1000022a:	c901      	ldmia	r1!, {r0}
1000022c:	c201      	stmia	r2!, {r0}

1000022e <data_cpy>:
1000022e:	429a      	cmp	r2, r3
10000230:	d3fb      	bcc.n	1000022a <data_cpy_loop>
10000232:	4770      	bx	lr

10000234 <data_cpy_table>:
10000234:	100426d4 	.word	0x100426d4
10000238:	200000c0 	.word	0x200000c0
1000023c:	20001198 	.word	0x20001198
10000240:	100437ac 	.word	0x100437ac
10000244:	20040000 	.word	0x20040000
10000248:	20040000 	.word	0x20040000
1000024c:	100437ac 	.word	0x100437ac
10000250:	20041000 	.word	0x20041000
10000254:	20041000 	.word	0x20041000
10000258:	00000000 	.word	0x00000000
1000025c:	4770      	bx	lr

1000025e <hold_non_core0_in_bootrom>:
1000025e:	4809      	ldr	r0, [pc, #36]	; (10000284 <hold_non_core0_in_bootrom+0x26>)
10000260:	f000 fb90 	bl	10000984 <rom_func_lookup>
10000264:	4700      	bx	r0
10000266:	0000      	.short	0x0000
10000268:	e000ed08 	.word	0xe000ed08
1000026c:	d0000000 	.word	0xd0000000
10000270:	20001198 	.word	0x20001198
10000274:	20002c8c 	.word	0x20002c8c
10000278:	10005fdd 	.word	0x10005fdd
1000027c:	10000331 	.word	0x10000331
10000280:	100060d1 	.word	0x100060d1
10000284:	00005657 	.word	0x00005657

10000288 <__bi_50>:
10000288:	50520006 5360b3ab 10042424              ..RP..`S$$..

10000294 <__bi_38>:
10000294:	50520006 02031c86 10042434              ..RP....4$..

100002a0 <__bi_30>:
100002a0:	50520006 9da22254 10042440              ..RPT"..@$..

100002ac <__bi_22>:
100002ac:	50520005 68f465de 100437ac              ..RP.e.h.7..

100002b8 <_init>:
100002b8:	b5f8      	push	{r3, r4, r5, r6, r7, lr}
100002ba:	46c0      	nop			; (mov r8, r8)

100002bc <__do_global_dtors_aux>:
100002bc:	b510      	push	{r4, lr}
100002be:	4c06      	ldr	r4, [pc, #24]	; (100002d8 <__do_global_dtors_aux+0x1c>)
100002c0:	7823      	ldrb	r3, [r4, #0]
100002c2:	2b00      	cmp	r3, #0
100002c4:	d107      	bne.n	100002d6 <__do_global_dtors_aux+0x1a>
100002c6:	4b05      	ldr	r3, [pc, #20]	; (100002dc <__do_global_dtors_aux+0x20>)
100002c8:	2b00      	cmp	r3, #0
100002ca:	d002      	beq.n	100002d2 <__do_global_dtors_aux+0x16>
100002cc:	4804      	ldr	r0, [pc, #16]	; (100002e0 <__do_global_dtors_aux+0x24>)
100002ce:	e000      	b.n	100002d2 <__do_global_dtors_aux+0x16>
100002d0:	bf00      	nop
100002d2:	2301      	movs	r3, #1
100002d4:	7023      	strb	r3, [r4, #0]
100002d6:	bd10      	pop	{r4, pc}
100002d8:	200013e8 	.word	0x200013e8
100002dc:	00000000 	.word	0x00000000
100002e0:	1000a868 	.word	0x1000a868

100002e4 <frame_dummy>:
100002e4:	4b04      	ldr	r3, [pc, #16]	; (100002f8 <frame_dummy+0x14>)
100002e6:	b510      	push	{r4, lr}
100002e8:	2b00      	cmp	r3, #0
100002ea:	d003      	beq.n	100002f4 <frame_dummy+0x10>
100002ec:	4903      	ldr	r1, [pc, #12]	; (100002fc <frame_dummy+0x18>)
100002ee:	4804      	ldr	r0, [pc, #16]	; (10000300 <frame_dummy+0x1c>)
100002f0:	e000      	b.n	100002f4 <frame_dummy+0x10>
100002f2:	bf00      	nop
100002f4:	bd10      	pop	{r4, pc}
100002f6:	46c0      	nop			; (mov r8, r8)
100002f8:	00000000 	.word	0x00000000
100002fc:	200013ec 	.word	0x200013ec
10000300:	1000a868 	.word	0x1000a868

10000304 <blink>:
10000304:	b570      	push	{r4, r5, r6, lr}
10000306:	1e05      	subs	r5, r0, #0
10000308:	dd11      	ble.n	1000032e <blink+0x2a>
1000030a:	2400      	movs	r4, #0
1000030c:	2101      	movs	r1, #1
1000030e:	2000      	movs	r0, #0
10000310:	f000 f91a 	bl	10000548 <cyw43_arch_gpio_put>
10000314:	20fa      	movs	r0, #250	; 0xfa
10000316:	f004 fc21 	bl	10004b5c <sleep_ms>
1000031a:	2100      	movs	r1, #0
1000031c:	2000      	movs	r0, #0
1000031e:	f000 f913 	bl	10000548 <cyw43_arch_gpio_put>
10000322:	3401      	adds	r4, #1
10000324:	20fa      	movs	r0, #250	; 0xfa
10000326:	f004 fc19 	bl	10004b5c <sleep_ms>
1000032a:	42a5      	cmp	r5, r4
1000032c:	d1ee      	bne.n	1000030c <blink+0x8>
1000032e:	bd70      	pop	{r4, r5, r6, pc}

10000330 <main>:
10000330:	b5f8      	push	{r3, r4, r5, r6, r7, lr}
10000332:	46de      	mov	lr, fp
10000334:	4657      	mov	r7, sl
10000336:	464e      	mov	r6, r9
10000338:	4645      	mov	r5, r8
1000033a:	b5e0      	push	{r5, r6, r7, lr}
1000033c:	f007 ffe8 	bl	10008310 <stdio_init_all>
10000340:	f000 f912 	bl	10000568 <cyw43_arch_init>
10000344:	241a      	movs	r4, #26
10000346:	2800      	cmp	r0, #0
10000348:	d000      	beq.n	1000034c <main+0x1c>
1000034a:	e0cd      	b.n	100004e8 <main+0x1b8>
1000034c:	0020      	movs	r0, r4
1000034e:	211f      	movs	r1, #31
10000350:	f003 fcf4 	bl	10003d3c <gpio_set_function>
10000354:	0020      	movs	r0, r4
10000356:	2200      	movs	r2, #0
10000358:	2100      	movs	r1, #0
1000035a:	f003 fd07 	bl	10003d6c <gpio_set_pulls>
1000035e:	0020      	movs	r0, r4
10000360:	2100      	movs	r1, #0
10000362:	3401      	adds	r4, #1
10000364:	f003 fd8a 	bl	10003e7c <gpio_set_input_enabled>
10000368:	2c1e      	cmp	r4, #30
1000036a:	d1ef      	bne.n	1000034c <main+0x1c>
1000036c:	2202      	movs	r2, #2
1000036e:	4b64      	ldr	r3, [pc, #400]	; (10000500 <main+0x1d0>)
10000370:	601a      	str	r2, [r3, #0]
10000372:	f00a f95b 	bl	1000a62c <adc_init>
10000376:	4b63      	ldr	r3, [pc, #396]	; (10000504 <main+0x1d4>)
10000378:	2003      	movs	r0, #3
1000037a:	681a      	ldr	r2, [r3, #0]
1000037c:	4b62      	ldr	r3, [pc, #392]	; (10000508 <main+0x1d8>)
1000037e:	4053      	eors	r3, r2
10000380:	4a62      	ldr	r2, [pc, #392]	; (1000050c <main+0x1dc>)
10000382:	4013      	ands	r3, r2
10000384:	4a62      	ldr	r2, [pc, #392]	; (10000510 <main+0x1e0>)
10000386:	6013      	str	r3, [r2, #0]
10000388:	2200      	movs	r2, #0
1000038a:	4b62      	ldr	r3, [pc, #392]	; (10000514 <main+0x1e4>)
1000038c:	611a      	str	r2, [r3, #16]
1000038e:	22e0      	movs	r2, #224	; 0xe0
10000390:	681b      	ldr	r3, [r3, #0]
10000392:	01d2      	lsls	r2, r2, #7
10000394:	4013      	ands	r3, r2
10000396:	4a60      	ldr	r2, [pc, #384]	; (10000518 <main+0x1e8>)
10000398:	6013      	str	r3, [r2, #0]
1000039a:	f7ff ffb3 	bl	10000304 <blink>
1000039e:	4b5f      	ldr	r3, [pc, #380]	; (1000051c <main+0x1ec>)
100003a0:	4d5f      	ldr	r5, [pc, #380]	; (10000520 <main+0x1f0>)
100003a2:	4698      	mov	r8, r3
100003a4:	2308      	movs	r3, #8
100003a6:	4699      	mov	r9, r3
100003a8:	f007 ffba 	bl	10008320 <__wrap_getchar>
100003ac:	2101      	movs	r1, #1
100003ae:	0004      	movs	r4, r0
100003b0:	2000      	movs	r0, #0
100003b2:	f000 f8c9 	bl	10000548 <cyw43_arch_gpio_put>
100003b6:	20fa      	movs	r0, #250	; 0xfa
100003b8:	f004 fbd0 	bl	10004b5c <sleep_ms>
100003bc:	2100      	movs	r1, #0
100003be:	2000      	movs	r0, #0
100003c0:	f000 f8c2 	bl	10000548 <cyw43_arch_gpio_put>
100003c4:	20fa      	movs	r0, #250	; 0xfa
100003c6:	f004 fbc9 	bl	10004b5c <sleep_ms>
100003ca:	23ff      	movs	r3, #255	; 0xff
100003cc:	401c      	ands	r4, r3
100003ce:	2c53      	cmp	r4, #83	; 0x53
100003d0:	d041      	beq.n	10000456 <main+0x126>
100003d2:	2c73      	cmp	r4, #115	; 0x73
100003d4:	d1e8      	bne.n	100003a8 <main+0x78>
100003d6:	2001      	movs	r0, #1
100003d8:	f004 ff7a 	bl	100052d0 <dma_claim_unused_channel>
100003dc:	02c1      	lsls	r1, r0, #11
100003de:	0003      	movs	r3, r0
100003e0:	4648      	mov	r0, r9
100003e2:	4a50      	ldr	r2, [pc, #320]	; (10000524 <main+0x1f4>)
100003e4:	019b      	lsls	r3, r3, #6
100003e6:	400a      	ands	r2, r1
100003e8:	494f      	ldr	r1, [pc, #316]	; (10000528 <main+0x1f8>)
100003ea:	4644      	mov	r4, r8
100003ec:	4311      	orrs	r1, r2
100003ee:	4a44      	ldr	r2, [pc, #272]	; (10000500 <main+0x1d0>)
100003f0:	6010      	str	r0, [r2, #0]
100003f2:	22a0      	movs	r2, #160	; 0xa0
100003f4:	484d      	ldr	r0, [pc, #308]	; (1000052c <main+0x1fc>)
100003f6:	05d2      	lsls	r2, r2, #23
100003f8:	189a      	adds	r2, r3, r2
100003fa:	6010      	str	r0, [r2, #0]
100003fc:	2064      	movs	r0, #100	; 0x64
100003fe:	6054      	str	r4, [r2, #4]
10000400:	6090      	str	r0, [r2, #8]
10000402:	60d1      	str	r1, [r2, #12]
10000404:	4a4a      	ldr	r2, [pc, #296]	; (10000530 <main+0x200>)
10000406:	2180      	movs	r1, #128	; 0x80
10000408:	4694      	mov	ip, r2
1000040a:	0449      	lsls	r1, r1, #17
1000040c:	4463      	add	r3, ip
1000040e:	681a      	ldr	r2, [r3, #0]
10000410:	420a      	tst	r2, r1
10000412:	d1fc      	bne.n	1000040e <main+0xde>
10000414:	464a      	mov	r2, r9
10000416:	4b47      	ldr	r3, [pc, #284]	; (10000534 <main+0x204>)
10000418:	493e      	ldr	r1, [pc, #248]	; (10000514 <main+0x1e4>)
1000041a:	601a      	str	r2, [r3, #0]
1000041c:	2280      	movs	r2, #128	; 0x80
1000041e:	0052      	lsls	r2, r2, #1
10000420:	680b      	ldr	r3, [r1, #0]
10000422:	4213      	tst	r3, r2
10000424:	d0fc      	beq.n	10000420 <main+0xf0>
10000426:	688b      	ldr	r3, [r1, #8]
10000428:	4213      	tst	r3, r2
1000042a:	d106      	bne.n	1000043a <main+0x10a>
1000042c:	2180      	movs	r1, #128	; 0x80
1000042e:	4b39      	ldr	r3, [pc, #228]	; (10000514 <main+0x1e4>)
10000430:	0049      	lsls	r1, r1, #1
10000432:	68da      	ldr	r2, [r3, #12]
10000434:	689a      	ldr	r2, [r3, #8]
10000436:	420a      	tst	r2, r1
10000438:	d0fb      	beq.n	10000432 <main+0x102>
1000043a:	26fa      	movs	r6, #250	; 0xfa
1000043c:	00b6      	lsls	r6, r6, #2
1000043e:	4446      	add	r6, r8
10000440:	7821      	ldrb	r1, [r4, #0]
10000442:	0028      	movs	r0, r5
10000444:	f007 ff58 	bl	100082f8 <__wrap_printf>
10000448:	3401      	adds	r4, #1
1000044a:	203b      	movs	r0, #59	; 0x3b
1000044c:	f007 fe66 	bl	1000811c <__wrap_putchar>
10000450:	42b4      	cmp	r4, r6
10000452:	d1f5      	bne.n	10000440 <main+0x110>
10000454:	e7a8      	b.n	100003a8 <main+0x78>
10000456:	4b33      	ldr	r3, [pc, #204]	; (10000524 <main+0x1f4>)
10000458:	26fa      	movs	r6, #250	; 0xfa
1000045a:	469b      	mov	fp, r3
1000045c:	4b32      	ldr	r3, [pc, #200]	; (10000528 <main+0x1f8>)
1000045e:	2705      	movs	r7, #5
10000460:	469a      	mov	sl, r3
10000462:	00b6      	lsls	r6, r6, #2
10000464:	4446      	add	r6, r8
10000466:	2001      	movs	r0, #1
10000468:	f004 ff32 	bl	100052d0 <dma_claim_unused_channel>
1000046c:	465b      	mov	r3, fp
1000046e:	02c2      	lsls	r2, r0, #11
10000470:	401a      	ands	r2, r3
10000472:	4653      	mov	r3, sl
10000474:	4649      	mov	r1, r9
10000476:	431a      	orrs	r2, r3
10000478:	4b21      	ldr	r3, [pc, #132]	; (10000500 <main+0x1d0>)
1000047a:	6019      	str	r1, [r3, #0]
1000047c:	21a0      	movs	r1, #160	; 0xa0
1000047e:	0183      	lsls	r3, r0, #6
10000480:	05c9      	lsls	r1, r1, #23
10000482:	482a      	ldr	r0, [pc, #168]	; (1000052c <main+0x1fc>)
10000484:	1859      	adds	r1, r3, r1
10000486:	6008      	str	r0, [r1, #0]
10000488:	4640      	mov	r0, r8
1000048a:	6048      	str	r0, [r1, #4]
1000048c:	20fa      	movs	r0, #250	; 0xfa
1000048e:	0080      	lsls	r0, r0, #2
10000490:	6088      	str	r0, [r1, #8]
10000492:	60ca      	str	r2, [r1, #12]
10000494:	4a26      	ldr	r2, [pc, #152]	; (10000530 <main+0x200>)
10000496:	2180      	movs	r1, #128	; 0x80
10000498:	4694      	mov	ip, r2
1000049a:	0449      	lsls	r1, r1, #17
1000049c:	4463      	add	r3, ip
1000049e:	681a      	ldr	r2, [r3, #0]
100004a0:	420a      	tst	r2, r1
100004a2:	d1fc      	bne.n	1000049e <main+0x16e>
100004a4:	464a      	mov	r2, r9
100004a6:	4b23      	ldr	r3, [pc, #140]	; (10000534 <main+0x204>)
100004a8:	491a      	ldr	r1, [pc, #104]	; (10000514 <main+0x1e4>)
100004aa:	601a      	str	r2, [r3, #0]
100004ac:	2280      	movs	r2, #128	; 0x80
100004ae:	0052      	lsls	r2, r2, #1
100004b0:	680b      	ldr	r3, [r1, #0]
100004b2:	4213      	tst	r3, r2
100004b4:	d0fc      	beq.n	100004b0 <main+0x180>
100004b6:	688b      	ldr	r3, [r1, #8]
100004b8:	4213      	tst	r3, r2
100004ba:	d106      	bne.n	100004ca <main+0x19a>
100004bc:	2180      	movs	r1, #128	; 0x80
100004be:	4b15      	ldr	r3, [pc, #84]	; (10000514 <main+0x1e4>)
100004c0:	0049      	lsls	r1, r1, #1
100004c2:	68da      	ldr	r2, [r3, #12]
100004c4:	689a      	ldr	r2, [r3, #8]
100004c6:	420a      	tst	r2, r1
100004c8:	d0fb      	beq.n	100004c2 <main+0x192>
100004ca:	4644      	mov	r4, r8
100004cc:	7821      	ldrb	r1, [r4, #0]
100004ce:	0028      	movs	r0, r5
100004d0:	f007 ff12 	bl	100082f8 <__wrap_printf>
100004d4:	3401      	adds	r4, #1
100004d6:	203b      	movs	r0, #59	; 0x3b
100004d8:	f007 fe20 	bl	1000811c <__wrap_putchar>
100004dc:	42a6      	cmp	r6, r4
100004de:	d1f5      	bne.n	100004cc <main+0x19c>
100004e0:	3f01      	subs	r7, #1
100004e2:	2f00      	cmp	r7, #0
100004e4:	d1bf      	bne.n	10000466 <main+0x136>
100004e6:	e75f      	b.n	100003a8 <main+0x78>
100004e8:	4813      	ldr	r0, [pc, #76]	; (10000538 <main+0x208>)
100004ea:	f007 ff05 	bl	100082f8 <__wrap_printf>
100004ee:	2001      	movs	r0, #1
100004f0:	4240      	negs	r0, r0
100004f2:	bcf0      	pop	{r4, r5, r6, r7}
100004f4:	46bb      	mov	fp, r7
100004f6:	46b2      	mov	sl, r6
100004f8:	46a9      	mov	r9, r5
100004fa:	46a0      	mov	r8, r4
100004fc:	bdf8      	pop	{r3, r4, r5, r6, r7, pc}
100004fe:	46c0      	nop			; (mov r8, r8)
10000500:	4004e000 	.word	0x4004e000
10000504:	4004c008 	.word	0x4004c008
10000508:	0100000b 	.word	0x0100000b
1000050c:	0f00000f 	.word	0x0f00000f
10000510:	4004d008 	.word	0x4004d008
10000514:	4004c000 	.word	0x4004c000
10000518:	4004d000 	.word	0x4004d000
1000051c:	20001988 	.word	0x20001988
10000520:	1000a868 	.word	0x1000a868
10000524:	ff007ffd 	.word	0xff007ffd
10000528:	00120021 	.word	0x00120021
1000052c:	4004c00c 	.word	0x4004c00c
10000530:	50000010 	.word	0x50000010
10000534:	4004f000 	.word	0x4004f000
10000538:	1000a870 	.word	0x1000a870

1000053c <cyw43_arch_set_async_context>:
1000053c:	4b01      	ldr	r3, [pc, #4]	; (10000544 <cyw43_arch_set_async_context+0x8>)
1000053e:	6018      	str	r0, [r3, #0]
10000540:	4770      	bx	lr
10000542:	46c0      	nop			; (mov r8, r8)
10000544:	20001860 	.word	0x20001860

10000548 <cyw43_arch_gpio_put>:
10000548:	b510      	push	{r4, lr}
1000054a:	000a      	movs	r2, r1
1000054c:	0001      	movs	r1, r0
1000054e:	4802      	ldr	r0, [pc, #8]	; (10000558 <cyw43_arch_gpio_put+0x10>)
10000550:	f003 fa18 	bl	10003984 <cyw43_gpio_set>
10000554:	bd10      	pop	{r4, pc}
10000556:	46c0      	nop			; (mov r8, r8)
10000558:	20001db8 	.word	0x20001db8

1000055c <cyw43_arch_async_context>:
1000055c:	4b01      	ldr	r3, [pc, #4]	; (10000564 <cyw43_arch_async_context+0x8>)
1000055e:	6818      	ldr	r0, [r3, #0]
10000560:	4770      	bx	lr
10000562:	46c0      	nop			; (mov r8, r8)
10000564:	20001860 	.word	0x20001860

10000568 <cyw43_arch_init>:
10000568:	b510      	push	{r4, lr}
1000056a:	b082      	sub	sp, #8
1000056c:	f7ff fff6 	bl	1000055c <cyw43_arch_async_context>
10000570:	2800      	cmp	r0, #0
10000572:	d007      	beq.n	10000584 <cyw43_arch_init+0x1c>
10000574:	f004 ff54 	bl	10005420 <cyw43_driver_init>
10000578:	0003      	movs	r3, r0
1000057a:	2000      	movs	r0, #0
1000057c:	2b00      	cmp	r3, #0
1000057e:	d012      	beq.n	100005a6 <cyw43_arch_init+0x3e>
10000580:	b002      	add	sp, #8
10000582:	bd10      	pop	{r4, pc}
10000584:	4668      	mov	r0, sp
10000586:	f005 f987 	bl	10005898 <async_context_threadsafe_background_default_config>
1000058a:	4c11      	ldr	r4, [pc, #68]	; (100005d0 <cyw43_arch_init+0x68>)
1000058c:	4669      	mov	r1, sp
1000058e:	0020      	movs	r0, r4
10000590:	f005 f988 	bl	100058a4 <async_context_threadsafe_background_init>
10000594:	2800      	cmp	r0, #0
10000596:	d004      	beq.n	100005a2 <cyw43_arch_init+0x3a>
10000598:	0020      	movs	r0, r4
1000059a:	f7ff ffcf 	bl	1000053c <cyw43_arch_set_async_context>
1000059e:	0020      	movs	r0, r4
100005a0:	e7e8      	b.n	10000574 <cyw43_arch_init+0xc>
100005a2:	3802      	subs	r0, #2
100005a4:	e7ec      	b.n	10000580 <cyw43_arch_init+0x18>
100005a6:	f7ff ffd9 	bl	1000055c <cyw43_arch_async_context>
100005aa:	0004      	movs	r4, r0
100005ac:	f004 ff54 	bl	10005458 <cyw43_driver_deinit>
100005b0:	4b07      	ldr	r3, [pc, #28]	; (100005d0 <cyw43_arch_init+0x68>)
100005b2:	429c      	cmp	r4, r3
100005b4:	d002      	beq.n	100005bc <cyw43_arch_init+0x54>
100005b6:	2002      	movs	r0, #2
100005b8:	4240      	negs	r0, r0
100005ba:	e7e1      	b.n	10000580 <cyw43_arch_init+0x18>
100005bc:	6823      	ldr	r3, [r4, #0]
100005be:	0020      	movs	r0, r4
100005c0:	6b5b      	ldr	r3, [r3, #52]	; 0x34
100005c2:	4798      	blx	r3
100005c4:	2000      	movs	r0, #0
100005c6:	f7ff ffb9 	bl	1000053c <cyw43_arch_set_async_context>
100005ca:	2002      	movs	r0, #2
100005cc:	4240      	negs	r0, r0
100005ce:	e7d7      	b.n	10000580 <cyw43_arch_init+0x18>
100005d0:	20001198 	.word	0x20001198

100005d4 <_retrieve_unique_id_on_boot>:
100005d4:	b510      	push	{r4, lr}
100005d6:	4802      	ldr	r0, [pc, #8]	; (100005e0 <_retrieve_unique_id_on_boot+0xc>)
100005d8:	f000 f8e0 	bl	1000079c <flash_get_unique_id>
100005dc:	bd10      	pop	{r4, pc}
100005de:	46c0      	nop			; (mov r8, r8)
100005e0:	20002b38 	.word	0x20002b38

100005e4 <pico_get_unique_board_id>:
100005e4:	b510      	push	{r4, lr}
100005e6:	2208      	movs	r2, #8
100005e8:	4901      	ldr	r1, [pc, #4]	; (100005f0 <pico_get_unique_board_id+0xc>)
100005ea:	f007 fc7f 	bl	10007eec <__wrap___aeabi_memcpy>
100005ee:	bd10      	pop	{r4, pc}
100005f0:	20002b38 	.word	0x20002b38

100005f4 <pico_get_unique_board_id_string>:
100005f4:	b530      	push	{r4, r5, lr}
100005f6:	1e4b      	subs	r3, r1, #1
100005f8:	2901      	cmp	r1, #1
100005fa:	d100      	bne.n	100005fe <pico_get_unique_board_id_string+0xa>
100005fc:	e0a7      	b.n	1000074e <pico_get_unique_board_id_string+0x15a>
100005fe:	4a66      	ldr	r2, [pc, #408]	; (10000798 <pico_get_unique_board_id_string+0x1a4>)
10000600:	7811      	ldrb	r1, [r2, #0]
10000602:	110d      	asrs	r5, r1, #4
10000604:	002c      	movs	r4, r5
10000606:	3430      	adds	r4, #48	; 0x30
10000608:	299f      	cmp	r1, #159	; 0x9f
1000060a:	d900      	bls.n	1000060e <pico_get_unique_board_id_string+0x1a>
1000060c:	e0a2      	b.n	10000754 <pico_get_unique_board_id_string+0x160>
1000060e:	7004      	strb	r4, [r0, #0]
10000610:	2b01      	cmp	r3, #1
10000612:	d100      	bne.n	10000616 <pico_get_unique_board_id_string+0x22>
10000614:	e0be      	b.n	10000794 <pico_get_unique_board_id_string+0x1a0>
10000616:	210f      	movs	r1, #15
10000618:	7814      	ldrb	r4, [r2, #0]
1000061a:	4021      	ands	r1, r4
1000061c:	000c      	movs	r4, r1
1000061e:	3430      	adds	r4, #48	; 0x30
10000620:	2909      	cmp	r1, #9
10000622:	dd00      	ble.n	10000626 <pico_get_unique_board_id_string+0x32>
10000624:	e098      	b.n	10000758 <pico_get_unique_board_id_string+0x164>
10000626:	7044      	strb	r4, [r0, #1]
10000628:	2b02      	cmp	r3, #2
1000062a:	d100      	bne.n	1000062e <pico_get_unique_board_id_string+0x3a>
1000062c:	e0b2      	b.n	10000794 <pico_get_unique_board_id_string+0x1a0>
1000062e:	7854      	ldrb	r4, [r2, #1]
10000630:	1125      	asrs	r5, r4, #4
10000632:	0029      	movs	r1, r5
10000634:	3130      	adds	r1, #48	; 0x30
10000636:	2c9f      	cmp	r4, #159	; 0x9f
10000638:	d900      	bls.n	1000063c <pico_get_unique_board_id_string+0x48>
1000063a:	e090      	b.n	1000075e <pico_get_unique_board_id_string+0x16a>
1000063c:	7081      	strb	r1, [r0, #2]
1000063e:	2b03      	cmp	r3, #3
10000640:	d100      	bne.n	10000644 <pico_get_unique_board_id_string+0x50>
10000642:	e0a7      	b.n	10000794 <pico_get_unique_board_id_string+0x1a0>
10000644:	210f      	movs	r1, #15
10000646:	4021      	ands	r1, r4
10000648:	000c      	movs	r4, r1
1000064a:	3430      	adds	r4, #48	; 0x30
1000064c:	2909      	cmp	r1, #9
1000064e:	dd00      	ble.n	10000652 <pico_get_unique_board_id_string+0x5e>
10000650:	e087      	b.n	10000762 <pico_get_unique_board_id_string+0x16e>
10000652:	70c4      	strb	r4, [r0, #3]
10000654:	2b04      	cmp	r3, #4
10000656:	d100      	bne.n	1000065a <pico_get_unique_board_id_string+0x66>
10000658:	e09c      	b.n	10000794 <pico_get_unique_board_id_string+0x1a0>
1000065a:	7894      	ldrb	r4, [r2, #2]
1000065c:	1125      	asrs	r5, r4, #4
1000065e:	0029      	movs	r1, r5
10000660:	3130      	adds	r1, #48	; 0x30
10000662:	2c9f      	cmp	r4, #159	; 0x9f
10000664:	d900      	bls.n	10000668 <pico_get_unique_board_id_string+0x74>
10000666:	e07f      	b.n	10000768 <pico_get_unique_board_id_string+0x174>
10000668:	7101      	strb	r1, [r0, #4]
1000066a:	2b05      	cmp	r3, #5
1000066c:	d100      	bne.n	10000670 <pico_get_unique_board_id_string+0x7c>
1000066e:	e091      	b.n	10000794 <pico_get_unique_board_id_string+0x1a0>
10000670:	210f      	movs	r1, #15
10000672:	4021      	ands	r1, r4
10000674:	000c      	movs	r4, r1
10000676:	3430      	adds	r4, #48	; 0x30
10000678:	2909      	cmp	r1, #9
1000067a:	dd00      	ble.n	1000067e <pico_get_unique_board_id_string+0x8a>
1000067c:	e076      	b.n	1000076c <pico_get_unique_board_id_string+0x178>
1000067e:	7144      	strb	r4, [r0, #5]
10000680:	2b06      	cmp	r3, #6
10000682:	d100      	bne.n	10000686 <pico_get_unique_board_id_string+0x92>
10000684:	e086      	b.n	10000794 <pico_get_unique_board_id_string+0x1a0>
10000686:	78d4      	ldrb	r4, [r2, #3]
10000688:	1125      	asrs	r5, r4, #4
1000068a:	0029      	movs	r1, r5
1000068c:	3130      	adds	r1, #48	; 0x30
1000068e:	2c9f      	cmp	r4, #159	; 0x9f
10000690:	d900      	bls.n	10000694 <pico_get_unique_board_id_string+0xa0>
10000692:	e06e      	b.n	10000772 <pico_get_unique_board_id_string+0x17e>
10000694:	7181      	strb	r1, [r0, #6]
10000696:	2b07      	cmp	r3, #7
10000698:	d100      	bne.n	1000069c <pico_get_unique_board_id_string+0xa8>
1000069a:	e07b      	b.n	10000794 <pico_get_unique_board_id_string+0x1a0>
1000069c:	210f      	movs	r1, #15
1000069e:	4021      	ands	r1, r4
100006a0:	000c      	movs	r4, r1
100006a2:	3430      	adds	r4, #48	; 0x30
100006a4:	2909      	cmp	r1, #9
100006a6:	dc66      	bgt.n	10000776 <pico_get_unique_board_id_string+0x182>
100006a8:	71c4      	strb	r4, [r0, #7]
100006aa:	2b08      	cmp	r3, #8
100006ac:	d100      	bne.n	100006b0 <pico_get_unique_board_id_string+0xbc>
100006ae:	e071      	b.n	10000794 <pico_get_unique_board_id_string+0x1a0>
100006b0:	7914      	ldrb	r4, [r2, #4]
100006b2:	1125      	asrs	r5, r4, #4
100006b4:	0029      	movs	r1, r5
100006b6:	3130      	adds	r1, #48	; 0x30
100006b8:	2c9f      	cmp	r4, #159	; 0x9f
100006ba:	d85f      	bhi.n	1000077c <pico_get_unique_board_id_string+0x188>
100006bc:	7201      	strb	r1, [r0, #8]
100006be:	2b09      	cmp	r3, #9
100006c0:	d068      	beq.n	10000794 <pico_get_unique_board_id_string+0x1a0>
100006c2:	210f      	movs	r1, #15
100006c4:	4021      	ands	r1, r4
100006c6:	000c      	movs	r4, r1
100006c8:	3430      	adds	r4, #48	; 0x30
100006ca:	2909      	cmp	r1, #9
100006cc:	dc58      	bgt.n	10000780 <pico_get_unique_board_id_string+0x18c>
100006ce:	7244      	strb	r4, [r0, #9]
100006d0:	2b0a      	cmp	r3, #10
100006d2:	d05f      	beq.n	10000794 <pico_get_unique_board_id_string+0x1a0>
100006d4:	7954      	ldrb	r4, [r2, #5]
100006d6:	1125      	asrs	r5, r4, #4
100006d8:	0029      	movs	r1, r5
100006da:	3130      	adds	r1, #48	; 0x30
100006dc:	2c9f      	cmp	r4, #159	; 0x9f
100006de:	d852      	bhi.n	10000786 <pico_get_unique_board_id_string+0x192>
100006e0:	7281      	strb	r1, [r0, #10]
100006e2:	2b0b      	cmp	r3, #11
100006e4:	d056      	beq.n	10000794 <pico_get_unique_board_id_string+0x1a0>
100006e6:	210f      	movs	r1, #15
100006e8:	4021      	ands	r1, r4
100006ea:	000c      	movs	r4, r1
100006ec:	3430      	adds	r4, #48	; 0x30
100006ee:	2909      	cmp	r1, #9
100006f0:	dc4b      	bgt.n	1000078a <pico_get_unique_board_id_string+0x196>
100006f2:	72c4      	strb	r4, [r0, #11]
100006f4:	2b0c      	cmp	r3, #12
100006f6:	d04d      	beq.n	10000794 <pico_get_unique_board_id_string+0x1a0>
100006f8:	7994      	ldrb	r4, [r2, #6]
100006fa:	1125      	asrs	r5, r4, #4
100006fc:	0029      	movs	r1, r5
100006fe:	3130      	adds	r1, #48	; 0x30
10000700:	2c9f      	cmp	r4, #159	; 0x9f
10000702:	d900      	bls.n	10000706 <pico_get_unique_board_id_string+0x112>
10000704:	3107      	adds	r1, #7
10000706:	7301      	strb	r1, [r0, #12]
10000708:	2b0d      	cmp	r3, #13
1000070a:	d043      	beq.n	10000794 <pico_get_unique_board_id_string+0x1a0>
1000070c:	210f      	movs	r1, #15
1000070e:	4021      	ands	r1, r4
10000710:	000c      	movs	r4, r1
10000712:	3430      	adds	r4, #48	; 0x30
10000714:	2909      	cmp	r1, #9
10000716:	dd01      	ble.n	1000071c <pico_get_unique_board_id_string+0x128>
10000718:	3137      	adds	r1, #55	; 0x37
1000071a:	000c      	movs	r4, r1
1000071c:	7344      	strb	r4, [r0, #13]
1000071e:	2b0e      	cmp	r3, #14
10000720:	d038      	beq.n	10000794 <pico_get_unique_board_id_string+0x1a0>
10000722:	79d1      	ldrb	r1, [r2, #7]
10000724:	110c      	asrs	r4, r1, #4
10000726:	0022      	movs	r2, r4
10000728:	3230      	adds	r2, #48	; 0x30
1000072a:	299f      	cmp	r1, #159	; 0x9f
1000072c:	d900      	bls.n	10000730 <pico_get_unique_board_id_string+0x13c>
1000072e:	3207      	adds	r2, #7
10000730:	7382      	strb	r2, [r0, #14]
10000732:	2b0f      	cmp	r3, #15
10000734:	d02e      	beq.n	10000794 <pico_get_unique_board_id_string+0x1a0>
10000736:	220f      	movs	r2, #15
10000738:	400a      	ands	r2, r1
1000073a:	0011      	movs	r1, r2
1000073c:	3137      	adds	r1, #55	; 0x37
1000073e:	2a09      	cmp	r2, #9
10000740:	dc01      	bgt.n	10000746 <pico_get_unique_board_id_string+0x152>
10000742:	3230      	adds	r2, #48	; 0x30
10000744:	0011      	movs	r1, r2
10000746:	73c1      	strb	r1, [r0, #15]
10000748:	2b10      	cmp	r3, #16
1000074a:	d023      	beq.n	10000794 <pico_get_unique_board_id_string+0x1a0>
1000074c:	3010      	adds	r0, #16
1000074e:	2300      	movs	r3, #0
10000750:	7003      	strb	r3, [r0, #0]
10000752:	bd30      	pop	{r4, r5, pc}
10000754:	3407      	adds	r4, #7
10000756:	e75a      	b.n	1000060e <pico_get_unique_board_id_string+0x1a>
10000758:	3137      	adds	r1, #55	; 0x37
1000075a:	000c      	movs	r4, r1
1000075c:	e763      	b.n	10000626 <pico_get_unique_board_id_string+0x32>
1000075e:	3107      	adds	r1, #7
10000760:	e76c      	b.n	1000063c <pico_get_unique_board_id_string+0x48>
10000762:	3137      	adds	r1, #55	; 0x37
10000764:	000c      	movs	r4, r1
10000766:	e774      	b.n	10000652 <pico_get_unique_board_id_string+0x5e>
10000768:	3107      	adds	r1, #7
1000076a:	e77d      	b.n	10000668 <pico_get_unique_board_id_string+0x74>
1000076c:	3137      	adds	r1, #55	; 0x37
1000076e:	000c      	movs	r4, r1
10000770:	e785      	b.n	1000067e <pico_get_unique_board_id_string+0x8a>
10000772:	3107      	adds	r1, #7
10000774:	e78e      	b.n	10000694 <pico_get_unique_board_id_string+0xa0>
10000776:	3137      	adds	r1, #55	; 0x37
10000778:	000c      	movs	r4, r1
1000077a:	e795      	b.n	100006a8 <pico_get_unique_board_id_string+0xb4>
1000077c:	3107      	adds	r1, #7
1000077e:	e79d      	b.n	100006bc <pico_get_unique_board_id_string+0xc8>
10000780:	3137      	adds	r1, #55	; 0x37
10000782:	000c      	movs	r4, r1
10000784:	e7a3      	b.n	100006ce <pico_get_unique_board_id_string+0xda>
10000786:	3107      	adds	r1, #7
10000788:	e7aa      	b.n	100006e0 <pico_get_unique_board_id_string+0xec>
1000078a:	3137      	adds	r1, #55	; 0x37
1000078c:	000c      	movs	r4, r1
1000078e:	72c4      	strb	r4, [r0, #11]
10000790:	2b0c      	cmp	r3, #12
10000792:	d1b1      	bne.n	100006f8 <pico_get_unique_board_id_string+0x104>
10000794:	18c0      	adds	r0, r0, r3
10000796:	e7da      	b.n	1000074e <pico_get_unique_board_id_string+0x15a>
10000798:	20002b38 	.word	0x20002b38

1000079c <flash_get_unique_id>:
1000079c:	b530      	push	{r4, r5, lr}
1000079e:	2500      	movs	r5, #0
100007a0:	b089      	sub	sp, #36	; 0x24
100007a2:	0004      	movs	r4, r0
100007a4:	2209      	movs	r2, #9
100007a6:	2100      	movs	r1, #0
100007a8:	a801      	add	r0, sp, #4
100007aa:	9500      	str	r5, [sp, #0]
100007ac:	f007 fb98 	bl	10007ee0 <__wrap_memset>
100007b0:	2209      	movs	r2, #9
100007b2:	2100      	movs	r1, #0
100007b4:	a805      	add	r0, sp, #20
100007b6:	9504      	str	r5, [sp, #16]
100007b8:	f007 fb92 	bl	10007ee0 <__wrap_memset>
100007bc:	234b      	movs	r3, #75	; 0x4b
100007be:	466a      	mov	r2, sp
100007c0:	4668      	mov	r0, sp
100007c2:	7013      	strb	r3, [r2, #0]
100007c4:	a904      	add	r1, sp, #16
100007c6:	220d      	movs	r2, #13
100007c8:	f009 ffbe 	bl	1000a748 <__flash_do_cmd_veneer>
100007cc:	2115      	movs	r1, #21
100007ce:	2208      	movs	r2, #8
100007d0:	0020      	movs	r0, r4
100007d2:	4469      	add	r1, sp
100007d4:	f007 fb8a 	bl	10007eec <__wrap___aeabi_memcpy>
100007d8:	b009      	add	sp, #36	; 0x24
100007da:	bd30      	pop	{r4, r5, pc}

100007dc <running_on_fpga>:
100007dc:	4b02      	ldr	r3, [pc, #8]	; (100007e8 <running_on_fpga+0xc>)
100007de:	6818      	ldr	r0, [r3, #0]
100007e0:	0780      	lsls	r0, r0, #30
100007e2:	0fc0      	lsrs	r0, r0, #31
100007e4:	4770      	bx	lr
100007e6:	46c0      	nop			; (mov r8, r8)
100007e8:	4006c000 	.word	0x4006c000

100007ec <hw_claim_lock>:
100007ec:	f3ef 8010 	mrs	r0, PRIMASK
100007f0:	b672      	cpsid	i
100007f2:	4a03      	ldr	r2, [pc, #12]	; (10000800 <hw_claim_lock+0x14>)
100007f4:	6813      	ldr	r3, [r2, #0]
100007f6:	2b00      	cmp	r3, #0
100007f8:	d0fc      	beq.n	100007f4 <hw_claim_lock+0x8>
100007fa:	f3bf 8f5f 	dmb	sy
100007fe:	4770      	bx	lr
10000800:	d000012c 	.word	0xd000012c

10000804 <hw_claim_unlock>:
10000804:	f3bf 8f5f 	dmb	sy
10000808:	2200      	movs	r2, #0
1000080a:	4b02      	ldr	r3, [pc, #8]	; (10000814 <hw_claim_unlock+0x10>)
1000080c:	601a      	str	r2, [r3, #0]
1000080e:	f380 8810 	msr	PRIMASK, r0
10000812:	4770      	bx	lr
10000814:	d000012c 	.word	0xd000012c

10000818 <hw_claim_or_assert>:
10000818:	b570      	push	{r4, r5, r6, lr}
1000081a:	f3ef 8c10 	mrs	ip, PRIMASK
1000081e:	b672      	cpsid	i
10000820:	4d0d      	ldr	r5, [pc, #52]	; (10000858 <hw_claim_or_assert+0x40>)
10000822:	682b      	ldr	r3, [r5, #0]
10000824:	2b00      	cmp	r3, #0
10000826:	d0fc      	beq.n	10000822 <hw_claim_or_assert+0xa>
10000828:	f3bf 8f5f 	dmb	sy
1000082c:	2407      	movs	r4, #7
1000082e:	08cb      	lsrs	r3, r1, #3
10000830:	18c6      	adds	r6, r0, r3
10000832:	5cc0      	ldrb	r0, [r0, r3]
10000834:	2301      	movs	r3, #1
10000836:	400c      	ands	r4, r1
10000838:	40a3      	lsls	r3, r4
1000083a:	001c      	movs	r4, r3
1000083c:	4004      	ands	r4, r0
1000083e:	4203      	tst	r3, r0
10000840:	d107      	bne.n	10000852 <hw_claim_or_assert+0x3a>
10000842:	4303      	orrs	r3, r0
10000844:	7033      	strb	r3, [r6, #0]
10000846:	f3bf 8f5f 	dmb	sy
1000084a:	602c      	str	r4, [r5, #0]
1000084c:	f38c 8810 	msr	PRIMASK, ip
10000850:	bd70      	pop	{r4, r5, r6, pc}
10000852:	0010      	movs	r0, r2
10000854:	f005 fc40 	bl	100060d8 <panic>
10000858:	d000012c 	.word	0xd000012c

1000085c <hw_claim_unused_from_range>:
1000085c:	b5f8      	push	{r3, r4, r5, r6, r7, lr}
1000085e:	4647      	mov	r7, r8
10000860:	46ce      	mov	lr, r9
10000862:	4688      	mov	r8, r1
10000864:	b580      	push	{r7, lr}
10000866:	f3ef 8c10 	mrs	ip, PRIMASK
1000086a:	b672      	cpsid	i
1000086c:	4d21      	ldr	r5, [pc, #132]	; (100008f4 <hw_claim_unused_from_range+0x98>)
1000086e:	682c      	ldr	r4, [r5, #0]
10000870:	2c00      	cmp	r4, #0
10000872:	d0fc      	beq.n	1000086e <hw_claim_unused_from_range+0x12>
10000874:	f3bf 8f5f 	dmb	sy
10000878:	429a      	cmp	r2, r3
1000087a:	d82c      	bhi.n	100008d6 <hw_claim_unused_from_range+0x7a>
1000087c:	08d4      	lsrs	r4, r2, #3
1000087e:	2707      	movs	r7, #7
10000880:	5d05      	ldrb	r5, [r0, r4]
10000882:	1906      	adds	r6, r0, r4
10000884:	2401      	movs	r4, #1
10000886:	4017      	ands	r7, r2
10000888:	40bc      	lsls	r4, r7
1000088a:	422c      	tst	r4, r5
1000088c:	d01f      	beq.n	100008ce <hw_claim_unused_from_range+0x72>
1000088e:	2107      	movs	r1, #7
10000890:	2701      	movs	r7, #1
10000892:	4689      	mov	r9, r1
10000894:	e009      	b.n	100008aa <hw_claim_unused_from_range+0x4e>
10000896:	08d4      	lsrs	r4, r2, #3
10000898:	5d05      	ldrb	r5, [r0, r4]
1000089a:	1906      	adds	r6, r0, r4
1000089c:	464c      	mov	r4, r9
1000089e:	0039      	movs	r1, r7
100008a0:	4014      	ands	r4, r2
100008a2:	40a1      	lsls	r1, r4
100008a4:	000c      	movs	r4, r1
100008a6:	4229      	tst	r1, r5
100008a8:	d011      	beq.n	100008ce <hw_claim_unused_from_range+0x72>
100008aa:	3201      	adds	r2, #1
100008ac:	4293      	cmp	r3, r2
100008ae:	d2f2      	bcs.n	10000896 <hw_claim_unused_from_range+0x3a>
100008b0:	2001      	movs	r0, #1
100008b2:	4240      	negs	r0, r0
100008b4:	f3bf 8f5f 	dmb	sy
100008b8:	2200      	movs	r2, #0
100008ba:	4b0e      	ldr	r3, [pc, #56]	; (100008f4 <hw_claim_unused_from_range+0x98>)
100008bc:	601a      	str	r2, [r3, #0]
100008be:	f38c 8810 	msr	PRIMASK, ip
100008c2:	2800      	cmp	r0, #0
100008c4:	db0f      	blt.n	100008e6 <hw_claim_unused_from_range+0x8a>
100008c6:	bcc0      	pop	{r6, r7}
100008c8:	46b9      	mov	r9, r7
100008ca:	46b0      	mov	r8, r6
100008cc:	bdf8      	pop	{r3, r4, r5, r6, r7, pc}
100008ce:	432c      	orrs	r4, r5
100008d0:	0010      	movs	r0, r2
100008d2:	7034      	strb	r4, [r6, #0]
100008d4:	e7ee      	b.n	100008b4 <hw_claim_unused_from_range+0x58>
100008d6:	f3bf 8f5f 	dmb	sy
100008da:	2300      	movs	r3, #0
100008dc:	602b      	str	r3, [r5, #0]
100008de:	f38c 8810 	msr	PRIMASK, ip
100008e2:	2001      	movs	r0, #1
100008e4:	4240      	negs	r0, r0
100008e6:	4643      	mov	r3, r8
100008e8:	2b00      	cmp	r3, #0
100008ea:	d0ec      	beq.n	100008c6 <hw_claim_unused_from_range+0x6a>
100008ec:	9808      	ldr	r0, [sp, #32]
100008ee:	f005 fbf3 	bl	100060d8 <panic>
100008f2:	46c0      	nop			; (mov r8, r8)
100008f4:	d000012c 	.word	0xd000012c

100008f8 <hw_claim_clear>:
100008f8:	b530      	push	{r4, r5, lr}
100008fa:	f3ef 8c10 	mrs	ip, PRIMASK
100008fe:	b672      	cpsid	i
10000900:	4c0a      	ldr	r4, [pc, #40]	; (1000092c <hw_claim_clear+0x34>)
10000902:	6823      	ldr	r3, [r4, #0]
10000904:	2b00      	cmp	r3, #0
10000906:	d0fc      	beq.n	10000902 <hw_claim_clear+0xa>
10000908:	f3bf 8f5f 	dmb	sy
1000090c:	2307      	movs	r3, #7
1000090e:	2201      	movs	r2, #1
10000910:	08cd      	lsrs	r5, r1, #3
10000912:	4019      	ands	r1, r3
10000914:	408a      	lsls	r2, r1
10000916:	5d43      	ldrb	r3, [r0, r5]
10000918:	4393      	bics	r3, r2
1000091a:	5543      	strb	r3, [r0, r5]
1000091c:	f3bf 8f5f 	dmb	sy
10000920:	2300      	movs	r3, #0
10000922:	6023      	str	r3, [r4, #0]
10000924:	f38c 8810 	msr	PRIMASK, ip
10000928:	bd30      	pop	{r4, r5, pc}
1000092a:	46c0      	nop			; (mov r8, r8)
1000092c:	d000012c 	.word	0xd000012c

10000930 <spin_locks_reset>:
10000930:	2100      	movs	r1, #0
10000932:	4b04      	ldr	r3, [pc, #16]	; (10000944 <spin_locks_reset+0x14>)
10000934:	4a04      	ldr	r2, [pc, #16]	; (10000948 <spin_locks_reset+0x18>)
10000936:	f3bf 8f5f 	dmb	sy
1000093a:	c302      	stmia	r3!, {r1}
1000093c:	4293      	cmp	r3, r2
1000093e:	d1fa      	bne.n	10000936 <spin_locks_reset+0x6>
10000940:	4770      	bx	lr
10000942:	46c0      	nop			; (mov r8, r8)
10000944:	d0000100 	.word	0xd0000100
10000948:	d0000180 	.word	0xd0000180

1000094c <next_striped_spin_lock_num>:
1000094c:	4a04      	ldr	r2, [pc, #16]	; (10000960 <next_striped_spin_lock_num+0x14>)
1000094e:	7810      	ldrb	r0, [r2, #0]
10000950:	1c43      	adds	r3, r0, #1
10000952:	b2db      	uxtb	r3, r3
10000954:	2b17      	cmp	r3, #23
10000956:	d900      	bls.n	1000095a <next_striped_spin_lock_num+0xe>
10000958:	2310      	movs	r3, #16
1000095a:	7013      	strb	r3, [r2, #0]
1000095c:	4770      	bx	lr
1000095e:	46c0      	nop			; (mov r8, r8)
10000960:	20001060 	.word	0x20001060

10000964 <spin_lock_claim_unused>:
10000964:	b500      	push	{lr}
10000966:	4b05      	ldr	r3, [pc, #20]	; (1000097c <spin_lock_claim_unused+0x18>)
10000968:	b083      	sub	sp, #12
1000096a:	0001      	movs	r1, r0
1000096c:	9300      	str	r3, [sp, #0]
1000096e:	2218      	movs	r2, #24
10000970:	231f      	movs	r3, #31
10000972:	4803      	ldr	r0, [pc, #12]	; (10000980 <spin_lock_claim_unused+0x1c>)
10000974:	f7ff ff72 	bl	1000085c <hw_claim_unused_from_range>
10000978:	b003      	add	sp, #12
1000097a:	bd00      	pop	{pc}
1000097c:	1000a884 	.word	0x1000a884
10000980:	20001d80 	.word	0x20001d80

10000984 <rom_func_lookup>:
10000984:	2314      	movs	r3, #20
10000986:	b510      	push	{r4, lr}
10000988:	0001      	movs	r1, r0
1000098a:	8818      	ldrh	r0, [r3, #0]
1000098c:	3304      	adds	r3, #4
1000098e:	881b      	ldrh	r3, [r3, #0]
10000990:	4798      	blx	r3
10000992:	bd10      	pop	{r4, pc}

10000994 <rom_data_lookup>:
10000994:	2316      	movs	r3, #22
10000996:	b510      	push	{r4, lr}
10000998:	0001      	movs	r1, r0
1000099a:	8818      	ldrh	r0, [r3, #0]
1000099c:	3302      	adds	r3, #2
1000099e:	881b      	ldrh	r3, [r3, #0]
100009a0:	4798      	blx	r3
100009a2:	bd10      	pop	{r4, pc}

100009a4 <rom_funcs_lookup>:
100009a4:	b5f8      	push	{r3, r4, r5, r6, r7, lr}
100009a6:	4647      	mov	r7, r8
100009a8:	46ce      	mov	lr, r9
100009aa:	b580      	push	{r7, lr}
100009ac:	1e0f      	subs	r7, r1, #0
100009ae:	d019      	beq.n	100009e4 <rom_funcs_lookup+0x40>
100009b0:	2314      	movs	r3, #20
100009b2:	4699      	mov	r9, r3
100009b4:	3304      	adds	r3, #4
100009b6:	0004      	movs	r4, r0
100009b8:	2500      	movs	r5, #0
100009ba:	2601      	movs	r6, #1
100009bc:	4698      	mov	r8, r3
100009be:	464b      	mov	r3, r9
100009c0:	8818      	ldrh	r0, [r3, #0]
100009c2:	4643      	mov	r3, r8
100009c4:	6821      	ldr	r1, [r4, #0]
100009c6:	881b      	ldrh	r3, [r3, #0]
100009c8:	4798      	blx	r3
100009ca:	c401      	stmia	r4!, {r0}
100009cc:	1e43      	subs	r3, r0, #1
100009ce:	4198      	sbcs	r0, r3
100009d0:	3501      	adds	r5, #1
100009d2:	4240      	negs	r0, r0
100009d4:	4006      	ands	r6, r0
100009d6:	42af      	cmp	r7, r5
100009d8:	d1f1      	bne.n	100009be <rom_funcs_lookup+0x1a>
100009da:	0030      	movs	r0, r6
100009dc:	bcc0      	pop	{r6, r7}
100009de:	46b9      	mov	r9, r7
100009e0:	46b0      	mov	r8, r6
100009e2:	bdf8      	pop	{r3, r4, r5, r6, r7, pc}
100009e4:	2601      	movs	r6, #1
100009e6:	e7f8      	b.n	100009da <rom_funcs_lookup+0x36>

100009e8 <ns_delay.constprop.0>:
100009e8:	b510      	push	{r4, lr}
100009ea:	2005      	movs	r0, #5
100009ec:	f005 fa30 	bl	10005e50 <clock_get_hz>
100009f0:	0c03      	lsrs	r3, r0, #16
100009f2:	2064      	movs	r0, #100	; 0x64
100009f4:	4903      	ldr	r1, [pc, #12]	; (10000a04 <ns_delay.constprop.0+0x1c>)
100009f6:	4358      	muls	r0, r3
100009f8:	f006 fea4 	bl	10007744 <__wrap___aeabi_uidiv>
100009fc:	3803      	subs	r0, #3
100009fe:	d2fd      	bcs.n	100009fc <ns_delay.constprop.0+0x14>
10000a00:	bd10      	pop	{r4, pc}
10000a02:	46c0      	nop			; (mov r8, r8)
10000a04:	00003b9a 	.word	0x00003b9a

10000a08 <cyw43_spi_init>:
10000a08:	b5f0      	push	{r4, r5, r6, r7, lr}
10000a0a:	4646      	mov	r6, r8
10000a0c:	46d6      	mov	lr, sl
10000a0e:	464f      	mov	r7, r9
10000a10:	b5c0      	push	{r6, r7, lr}
10000a12:	4e64      	ldr	r6, [pc, #400]	; (10000ba4 <cyw43_spi_init+0x19c>)
10000a14:	0005      	movs	r5, r0
10000a16:	b082      	sub	sp, #8
10000a18:	0031      	movs	r1, r6
10000a1a:	4863      	ldr	r0, [pc, #396]	; (10000ba8 <cyw43_spi_init+0x1a0>)
10000a1c:	f003 f832 	bl	10003a84 <pio_can_add_program>
10000a20:	2800      	cmp	r0, #0
10000a22:	d109      	bne.n	10000a38 <cyw43_spi_init+0x30>
10000a24:	0031      	movs	r1, r6
10000a26:	4861      	ldr	r0, [pc, #388]	; (10000bac <cyw43_spi_init+0x1a4>)
10000a28:	f003 f82c 	bl	10003a84 <pio_can_add_program>
10000a2c:	2800      	cmp	r0, #0
10000a2e:	d100      	bne.n	10000a32 <cyw43_spi_init+0x2a>
10000a30:	e0b0      	b.n	10000b94 <cyw43_spi_init+0x18c>
10000a32:	2206      	movs	r2, #6
10000a34:	485d      	ldr	r0, [pc, #372]	; (10000bac <cyw43_spi_init+0x1a4>)
10000a36:	e001      	b.n	10000a3c <cyw43_spi_init+0x34>
10000a38:	2207      	movs	r2, #7
10000a3a:	485b      	ldr	r0, [pc, #364]	; (10000ba8 <cyw43_spi_init+0x1a0>)
10000a3c:	2784      	movs	r7, #132	; 0x84
10000a3e:	23ff      	movs	r3, #255	; 0xff
10000a40:	4c5b      	ldr	r4, [pc, #364]	; (10000bb0 <cyw43_spi_init+0x1a8>)
10000a42:	013f      	lsls	r7, r7, #4
10000a44:	2100      	movs	r1, #0
10000a46:	51ec      	str	r4, [r5, r7]
10000a48:	6020      	str	r0, [r4, #0]
10000a4a:	7223      	strb	r3, [r4, #8]
10000a4c:	71e3      	strb	r3, [r4, #7]
10000a4e:	7122      	strb	r2, [r4, #4]
10000a50:	f002 fffa 	bl	10003a48 <pio_claim_unused_sm>
10000a54:	b240      	sxtb	r0, r0
10000a56:	71a0      	strb	r0, [r4, #6]
10000a58:	2800      	cmp	r0, #0
10000a5a:	da00      	bge.n	10000a5e <cyw43_spi_init+0x56>
10000a5c:	e09d      	b.n	10000b9a <cyw43_spi_init+0x192>
10000a5e:	0031      	movs	r1, r6
10000a60:	6820      	ldr	r0, [r4, #0]
10000a62:	f003 f843 	bl	10003aec <pio_add_program>
10000a66:	b240      	sxtb	r0, r0
10000a68:	1d42      	adds	r2, r0, #5
10000a6a:	7160      	strb	r0, [r4, #5]
10000a6c:	0312      	lsls	r2, r2, #12
10000a6e:	01c0      	lsls	r0, r0, #7
10000a70:	4310      	orrs	r0, r2
10000a72:	2330      	movs	r3, #48	; 0x30
10000a74:	4a4f      	ldr	r2, [pc, #316]	; (10000bb4 <cyw43_spi_init+0x1ac>)
10000a76:	27c8      	movs	r7, #200	; 0xc8
10000a78:	4002      	ands	r2, r0
10000a7a:	4692      	mov	sl, r2
10000a7c:	2201      	movs	r2, #1
10000a7e:	484e      	ldr	r0, [pc, #312]	; (10000bb8 <cyw43_spi_init+0x1b0>)
10000a80:	46bc      	mov	ip, r7
10000a82:	6801      	ldr	r1, [r0, #0]
10000a84:	2780      	movs	r7, #128	; 0x80
10000a86:	438b      	bics	r3, r1
10000a88:	494c      	ldr	r1, [pc, #304]	; (10000bbc <cyw43_spi_init+0x1b4>)
10000a8a:	02bf      	lsls	r7, r7, #10
10000a8c:	600b      	str	r3, [r1, #0]
10000a8e:	6803      	ldr	r3, [r0, #0]
10000a90:	0010      	movs	r0, r2
10000a92:	4398      	bics	r0, r3
10000a94:	6008      	str	r0, [r1, #0]
10000a96:	6820      	ldr	r0, [r4, #0]
10000a98:	2380      	movs	r3, #128	; 0x80
10000a9a:	0001      	movs	r1, r0
10000a9c:	019b      	lsls	r3, r3, #6
10000a9e:	3138      	adds	r1, #56	; 0x38
10000aa0:	430b      	orrs	r3, r1
10000aa2:	2180      	movs	r1, #128	; 0x80
10000aa4:	0449      	lsls	r1, r1, #17
10000aa6:	6019      	str	r1, [r3, #0]
10000aa8:	2106      	movs	r1, #6
10000aaa:	46b8      	mov	r8, r7
10000aac:	5661      	ldrsb	r1, [r4, r1]
10000aae:	4691      	mov	r9, r2
10000ab0:	004b      	lsls	r3, r1, #1
10000ab2:	185b      	adds	r3, r3, r1
10000ab4:	00db      	lsls	r3, r3, #3
10000ab6:	18c3      	adds	r3, r0, r3
10000ab8:	449c      	add	ip, r3
10000aba:	4667      	mov	r7, ip
10000abc:	4642      	mov	r2, r8
10000abe:	603a      	str	r2, [r7, #0]
10000ac0:	22cc      	movs	r2, #204	; 0xcc
10000ac2:	4694      	mov	ip, r2
10000ac4:	449c      	add	ip, r3
10000ac6:	4662      	mov	r2, ip
10000ac8:	4657      	mov	r7, sl
10000aca:	6017      	str	r7, [r2, #0]
10000acc:	001a      	movs	r2, r3
10000ace:	27c0      	movs	r7, #192	; 0xc0
10000ad0:	32d0      	adds	r2, #208	; 0xd0
10000ad2:	02bf      	lsls	r7, r7, #10
10000ad4:	6017      	str	r7, [r2, #0]
10000ad6:	4a3a      	ldr	r2, [pc, #232]	; (10000bc0 <cyw43_spi_init+0x1b8>)
10000ad8:	33dc      	adds	r3, #220	; 0xdc
10000ada:	601a      	str	r2, [r3, #0]
10000adc:	464b      	mov	r3, r9
10000ade:	221d      	movs	r2, #29
10000ae0:	9300      	str	r3, [sp, #0]
10000ae2:	f003 f8d3 	bl	10003c8c <pio_sm_set_consecutive_pindirs>
10000ae6:	2018      	movs	r0, #24
10000ae8:	7921      	ldrb	r1, [r4, #4]
10000aea:	f003 f927 	bl	10003d3c <gpio_set_function>
10000aee:	2201      	movs	r2, #1
10000af0:	2100      	movs	r1, #0
10000af2:	2018      	movs	r0, #24
10000af4:	f003 f93a 	bl	10003d6c <gpio_set_pulls>
10000af8:	2101      	movs	r1, #1
10000afa:	2018      	movs	r0, #24
10000afc:	f003 f94e 	bl	10003d9c <gpio_set_input_hysteresis_enabled>
10000b00:	2206      	movs	r2, #6
10000b02:	56a2      	ldrsb	r2, [r4, r2]
10000b04:	2000      	movs	r0, #0
10000b06:	0053      	lsls	r3, r2, #1
10000b08:	189b      	adds	r3, r3, r2
10000b0a:	6822      	ldr	r2, [r4, #0]
10000b0c:	00db      	lsls	r3, r3, #3
10000b0e:	4694      	mov	ip, r2
10000b10:	4a2c      	ldr	r2, [pc, #176]	; (10000bc4 <cyw43_spi_init+0x1bc>)
10000b12:	4463      	add	r3, ip
10000b14:	33d8      	adds	r3, #216	; 0xd8
10000b16:	601a      	str	r2, [r3, #0]
10000b18:	f004 fbda 	bl	100052d0 <dma_claim_unused_channel>
10000b1c:	71e0      	strb	r0, [r4, #7]
10000b1e:	2000      	movs	r0, #0
10000b20:	f004 fbd6 	bl	100052d0 <dma_claim_unused_channel>
10000b24:	79e2      	ldrb	r2, [r4, #7]
10000b26:	b243      	sxtb	r3, r0
10000b28:	7223      	strb	r3, [r4, #8]
10000b2a:	2a7f      	cmp	r2, #127	; 0x7f
10000b2c:	d808      	bhi.n	10000b40 <cyw43_spi_init+0x138>
10000b2e:	2000      	movs	r0, #0
10000b30:	2b00      	cmp	r3, #0
10000b32:	db05      	blt.n	10000b40 <cyw43_spi_init+0x138>
10000b34:	b002      	add	sp, #8
10000b36:	bce0      	pop	{r5, r6, r7}
10000b38:	46ba      	mov	sl, r7
10000b3a:	46b1      	mov	r9, r6
10000b3c:	46a8      	mov	r8, r5
10000b3e:	bdf0      	pop	{r4, r5, r6, r7, pc}
10000b40:	2384      	movs	r3, #132	; 0x84
10000b42:	011b      	lsls	r3, r3, #4
10000b44:	58ec      	ldr	r4, [r5, r3]
10000b46:	2c00      	cmp	r4, #0
10000b48:	d024      	beq.n	10000b94 <cyw43_spi_init+0x18c>
10000b4a:	2106      	movs	r1, #6
10000b4c:	5661      	ldrsb	r1, [r4, r1]
10000b4e:	2900      	cmp	r1, #0
10000b50:	db0c      	blt.n	10000b6c <cyw43_spi_init+0x164>
10000b52:	2205      	movs	r2, #5
10000b54:	56a2      	ldrsb	r2, [r4, r2]
10000b56:	1c53      	adds	r3, r2, #1
10000b58:	d005      	beq.n	10000b66 <cyw43_spi_init+0x15e>
10000b5a:	0031      	movs	r1, r6
10000b5c:	6820      	ldr	r0, [r4, #0]
10000b5e:	f003 f829 	bl	10003bb4 <pio_remove_program>
10000b62:	2106      	movs	r1, #6
10000b64:	5661      	ldrsb	r1, [r4, r1]
10000b66:	6820      	ldr	r0, [r4, #0]
10000b68:	f002 ff5e 	bl	10003a28 <pio_sm_unclaim>
10000b6c:	2007      	movs	r0, #7
10000b6e:	5620      	ldrsb	r0, [r4, r0]
10000b70:	2800      	cmp	r0, #0
10000b72:	db03      	blt.n	10000b7c <cyw43_spi_init+0x174>
10000b74:	f004 fba4 	bl	100052c0 <dma_channel_unclaim>
10000b78:	23ff      	movs	r3, #255	; 0xff
10000b7a:	71e3      	strb	r3, [r4, #7]
10000b7c:	2008      	movs	r0, #8
10000b7e:	5620      	ldrsb	r0, [r4, r0]
10000b80:	2800      	cmp	r0, #0
10000b82:	db03      	blt.n	10000b8c <cyw43_spi_init+0x184>
10000b84:	f004 fb9c 	bl	100052c0 <dma_channel_unclaim>
10000b88:	23ff      	movs	r3, #255	; 0xff
10000b8a:	7223      	strb	r3, [r4, #8]
10000b8c:	2384      	movs	r3, #132	; 0x84
10000b8e:	2200      	movs	r2, #0
10000b90:	011b      	lsls	r3, r3, #4
10000b92:	50ea      	str	r2, [r5, r3]
10000b94:	2006      	movs	r0, #6
10000b96:	4240      	negs	r0, r0
10000b98:	e7cc      	b.n	10000b34 <cyw43_spi_init+0x12c>
10000b9a:	59ec      	ldr	r4, [r5, r7]
10000b9c:	2c00      	cmp	r4, #0
10000b9e:	d1d4      	bne.n	10000b4a <cyw43_spi_init+0x142>
10000ba0:	e7f8      	b.n	10000b94 <cyw43_spi_init+0x18c>
10000ba2:	46c0      	nop			; (mov r8, r8)
10000ba4:	1000a8bc 	.word	0x1000a8bc
10000ba8:	50300000 	.word	0x50300000
10000bac:	50200000 	.word	0x50200000
10000bb0:	2000197c 	.word	0x2000197c
10000bb4:	9fffffff 	.word	0x9fffffff
10000bb8:	4001c078 	.word	0x4001c078
10000bbc:	4001d078 	.word	0x4001d078
10000bc0:	241c7718 	.word	0x241c7718
10000bc4:	0000e001 	.word	0x0000e001

10000bc8 <cyw43_spi_deinit>:
10000bc8:	2384      	movs	r3, #132	; 0x84
10000bca:	011b      	lsls	r3, r3, #4
10000bcc:	b570      	push	{r4, r5, r6, lr}
10000bce:	58c4      	ldr	r4, [r0, r3]
10000bd0:	0005      	movs	r5, r0
10000bd2:	2c00      	cmp	r4, #0
10000bd4:	d01c      	beq.n	10000c10 <cyw43_spi_deinit+0x48>
10000bd6:	2106      	movs	r1, #6
10000bd8:	5661      	ldrsb	r1, [r4, r1]
10000bda:	2900      	cmp	r1, #0
10000bdc:	db0c      	blt.n	10000bf8 <cyw43_spi_deinit+0x30>
10000bde:	2205      	movs	r2, #5
10000be0:	56a2      	ldrsb	r2, [r4, r2]
10000be2:	1c53      	adds	r3, r2, #1
10000be4:	d005      	beq.n	10000bf2 <cyw43_spi_deinit+0x2a>
10000be6:	4912      	ldr	r1, [pc, #72]	; (10000c30 <cyw43_spi_deinit+0x68>)
10000be8:	6820      	ldr	r0, [r4, #0]
10000bea:	f002 ffe3 	bl	10003bb4 <pio_remove_program>
10000bee:	2106      	movs	r1, #6
10000bf0:	5661      	ldrsb	r1, [r4, r1]
10000bf2:	6820      	ldr	r0, [r4, #0]
10000bf4:	f002 ff18 	bl	10003a28 <pio_sm_unclaim>
10000bf8:	2007      	movs	r0, #7
10000bfa:	5620      	ldrsb	r0, [r4, r0]
10000bfc:	2800      	cmp	r0, #0
10000bfe:	da0d      	bge.n	10000c1c <cyw43_spi_deinit+0x54>
10000c00:	2008      	movs	r0, #8
10000c02:	5620      	ldrsb	r0, [r4, r0]
10000c04:	2800      	cmp	r0, #0
10000c06:	da04      	bge.n	10000c12 <cyw43_spi_deinit+0x4a>
10000c08:	2384      	movs	r3, #132	; 0x84
10000c0a:	2200      	movs	r2, #0
10000c0c:	011b      	lsls	r3, r3, #4
10000c0e:	50ea      	str	r2, [r5, r3]
10000c10:	bd70      	pop	{r4, r5, r6, pc}
10000c12:	f004 fb55 	bl	100052c0 <dma_channel_unclaim>
10000c16:	23ff      	movs	r3, #255	; 0xff
10000c18:	7223      	strb	r3, [r4, #8]
10000c1a:	e7f5      	b.n	10000c08 <cyw43_spi_deinit+0x40>
10000c1c:	f004 fb50 	bl	100052c0 <dma_channel_unclaim>
10000c20:	23ff      	movs	r3, #255	; 0xff
10000c22:	2008      	movs	r0, #8
10000c24:	71e3      	strb	r3, [r4, #7]
10000c26:	5620      	ldrsb	r0, [r4, r0]
10000c28:	2800      	cmp	r0, #0
10000c2a:	dbed      	blt.n	10000c08 <cyw43_spi_deinit+0x40>
10000c2c:	e7f1      	b.n	10000c12 <cyw43_spi_deinit+0x4a>
10000c2e:	46c0      	nop			; (mov r8, r8)
10000c30:	1000a8bc 	.word	0x1000a8bc

10000c34 <cyw43_spi_transfer>:
10000c34:	b5f0      	push	{r4, r5, r6, r7, lr}
10000c36:	464e      	mov	r6, r9
10000c38:	4645      	mov	r5, r8
10000c3a:	46de      	mov	lr, fp
10000c3c:	4657      	mov	r7, sl
10000c3e:	b5e0      	push	{r5, r6, r7, lr}
10000c40:	b087      	sub	sp, #28
10000c42:	4688      	mov	r8, r1
10000c44:	0016      	movs	r6, r2
10000c46:	9302      	str	r3, [sp, #8]
10000c48:	2900      	cmp	r1, #0
10000c4a:	d100      	bne.n	10000c4e <cyw43_spi_transfer+0x1a>
10000c4c:	e0ba      	b.n	10000dc4 <cyw43_spi_transfer+0x190>
10000c4e:	2384      	movs	r3, #132	; 0x84
10000c50:	011b      	lsls	r3, r3, #4
10000c52:	58c4      	ldr	r4, [r0, r3]
10000c54:	2018      	movs	r0, #24
10000c56:	7921      	ldrb	r1, [r4, #4]
10000c58:	f003 f870 	bl	10003d3c <gpio_set_function>
10000c5c:	201d      	movs	r0, #29
10000c5e:	7921      	ldrb	r1, [r4, #4]
10000c60:	f003 f86c 	bl	10003d3c <gpio_set_function>
10000c64:	2201      	movs	r2, #1
10000c66:	2100      	movs	r1, #0
10000c68:	201d      	movs	r0, #29
10000c6a:	f003 f87f 	bl	10003d6c <gpio_set_pulls>
10000c6e:	23d0      	movs	r3, #208	; 0xd0
10000c70:	2280      	movs	r2, #128	; 0x80
10000c72:	061b      	lsls	r3, r3, #24
10000c74:	0492      	lsls	r2, r2, #18
10000c76:	619a      	str	r2, [r3, #24]
10000c78:	9b02      	ldr	r3, [sp, #8]
10000c7a:	2b00      	cmp	r3, #0
10000c7c:	d000      	beq.n	10000c80 <cyw43_spi_transfer+0x4c>
10000c7e:	e0bb      	b.n	10000df8 <cyw43_spi_transfer+0x1c4>
10000c80:	2106      	movs	r1, #6
10000c82:	2201      	movs	r2, #1
10000c84:	5661      	ldrsb	r1, [r4, r1]
10000c86:	4691      	mov	r9, r2
10000c88:	408a      	lsls	r2, r1
10000c8a:	6820      	ldr	r0, [r4, #0]
10000c8c:	6803      	ldr	r3, [r0, #0]
10000c8e:	4393      	bics	r3, r2
10000c90:	6003      	str	r3, [r0, #0]
10000c92:	2305      	movs	r3, #5
10000c94:	56e3      	ldrsb	r3, [r4, r3]
10000c96:	469c      	mov	ip, r3
10000c98:	004b      	lsls	r3, r1, #1
10000c9a:	185b      	adds	r3, r3, r1
10000c9c:	00db      	lsls	r3, r3, #3
10000c9e:	18c5      	adds	r5, r0, r3
10000ca0:	35cc      	adds	r5, #204	; 0xcc
10000ca2:	682a      	ldr	r2, [r5, #0]
10000ca4:	33d0      	adds	r3, #208	; 0xd0
10000ca6:	4692      	mov	sl, r2
10000ca8:	4662      	mov	r2, ip
10000caa:	3201      	adds	r2, #1
10000cac:	0317      	lsls	r7, r2, #12
10000cae:	9703      	str	r7, [sp, #12]
10000cb0:	4fd7      	ldr	r7, [pc, #860]	; (10001010 <cyw43_spi_transfer+0x3dc>)
10000cb2:	18c3      	adds	r3, r0, r3
10000cb4:	46bb      	mov	fp, r7
10000cb6:	4657      	mov	r7, sl
10000cb8:	465a      	mov	r2, fp
10000cba:	4017      	ands	r7, r2
10000cbc:	003a      	movs	r2, r7
10000cbe:	9f03      	ldr	r7, [sp, #12]
10000cc0:	4317      	orrs	r7, r2
10000cc2:	003a      	movs	r2, r7
10000cc4:	4667      	mov	r7, ip
10000cc6:	01ff      	lsls	r7, r7, #7
10000cc8:	433a      	orrs	r2, r7
10000cca:	602a      	str	r2, [r5, #0]
10000ccc:	2280      	movs	r2, #128	; 0x80
10000cce:	0152      	lsls	r2, r2, #5
10000cd0:	4313      	orrs	r3, r2
10000cd2:	2280      	movs	r2, #128	; 0x80
10000cd4:	0612      	lsls	r2, r2, #24
10000cd6:	601a      	str	r2, [r3, #0]
10000cd8:	601a      	str	r2, [r3, #0]
10000cda:	2380      	movs	r3, #128	; 0x80
10000cdc:	2506      	movs	r5, #6
10000cde:	045b      	lsls	r3, r3, #17
10000ce0:	001a      	movs	r2, r3
10000ce2:	f002 ff81 	bl	10003be8 <pio_sm_set_pindirs_with_mask>
10000ce6:	464a      	mov	r2, r9
10000ce8:	5765      	ldrsb	r5, [r4, r5]
10000cea:	6821      	ldr	r1, [r4, #0]
10000cec:	1d2b      	adds	r3, r5, #4
10000cee:	409a      	lsls	r2, r3
10000cf0:	469c      	mov	ip, r3
10000cf2:	2380      	movs	r3, #128	; 0x80
10000cf4:	019b      	lsls	r3, r3, #6
10000cf6:	430b      	orrs	r3, r1
10000cf8:	601a      	str	r2, [r3, #0]
10000cfa:	2208      	movs	r2, #8
10000cfc:	4692      	mov	sl, r2
10000cfe:	44aa      	add	sl, r5
10000d00:	4650      	mov	r0, sl
10000d02:	464a      	mov	r2, r9
10000d04:	4082      	lsls	r2, r0
10000d06:	601a      	str	r2, [r3, #0]
10000d08:	00f3      	lsls	r3, r6, #3
10000d0a:	00aa      	lsls	r2, r5, #2
10000d0c:	188a      	adds	r2, r1, r2
10000d0e:	3b01      	subs	r3, #1
10000d10:	6113      	str	r3, [r2, #16]
10000d12:	006b      	lsls	r3, r5, #1
10000d14:	195b      	adds	r3, r3, r5
10000d16:	00db      	lsls	r3, r3, #3
10000d18:	48be      	ldr	r0, [pc, #760]	; (10001014 <cyw43_spi_transfer+0x3e0>)
10000d1a:	18cb      	adds	r3, r1, r3
10000d1c:	33d8      	adds	r3, #216	; 0xd8
10000d1e:	6018      	str	r0, [r3, #0]
10000d20:	9802      	ldr	r0, [sp, #8]
10000d22:	6110      	str	r0, [r2, #16]
10000d24:	4abc      	ldr	r2, [pc, #752]	; (10001018 <cyw43_spi_transfer+0x3e4>)
10000d26:	601a      	str	r2, [r3, #0]
10000d28:	221f      	movs	r2, #31
10000d2a:	7960      	ldrb	r0, [r4, #5]
10000d2c:	4002      	ands	r2, r0
10000d2e:	601a      	str	r2, [r3, #0]
10000d30:	2307      	movs	r3, #7
10000d32:	56e3      	ldrsb	r3, [r4, r3]
10000d34:	20a0      	movs	r0, #160	; 0xa0
10000d36:	469b      	mov	fp, r3
10000d38:	464b      	mov	r3, r9
10000d3a:	465a      	mov	r2, fp
10000d3c:	4093      	lsls	r3, r2
10000d3e:	4ab7      	ldr	r2, [pc, #732]	; (1000101c <cyw43_spi_transfer+0x3e8>)
10000d40:	05c0      	lsls	r0, r0, #23
10000d42:	5083      	str	r3, [r0, r2]
10000d44:	465b      	mov	r3, fp
10000d46:	2280      	movs	r2, #128	; 0x80
10000d48:	019f      	lsls	r7, r3, #6
10000d4a:	4bb5      	ldr	r3, [pc, #724]	; (10001020 <cyw43_spi_transfer+0x3ec>)
10000d4c:	0452      	lsls	r2, r2, #17
10000d4e:	18f8      	adds	r0, r7, r3
10000d50:	6803      	ldr	r3, [r0, #0]
10000d52:	4213      	tst	r3, r2
10000d54:	d1fc      	bne.n	10000d50 <cyw43_spi_transfer+0x11c>
10000d56:	465b      	mov	r3, fp
10000d58:	4ab2      	ldr	r2, [pc, #712]	; (10001024 <cyw43_spi_transfer+0x3f0>)
10000d5a:	02db      	lsls	r3, r3, #11
10000d5c:	4291      	cmp	r1, r2
10000d5e:	d100      	bne.n	10000d62 <cyw43_spi_transfer+0x12e>
10000d60:	e151      	b.n	10001006 <cyw43_spi_transfer+0x3d2>
10000d62:	4ab1      	ldr	r2, [pc, #708]	; (10001028 <cyw43_spi_transfer+0x3f4>)
10000d64:	08b6      	lsrs	r6, r6, #2
10000d66:	4013      	ands	r3, r2
10000d68:	4652      	mov	r2, sl
10000d6a:	03d2      	lsls	r2, r2, #15
10000d6c:	4313      	orrs	r3, r2
10000d6e:	4aaf      	ldr	r2, [pc, #700]	; (1000102c <cyw43_spi_transfer+0x3f8>)
10000d70:	4313      	orrs	r3, r2
10000d72:	22a0      	movs	r2, #160	; 0xa0
10000d74:	05d2      	lsls	r2, r2, #23
10000d76:	4691      	mov	r9, r2
10000d78:	4642      	mov	r2, r8
10000d7a:	444f      	add	r7, r9
10000d7c:	603a      	str	r2, [r7, #0]
10000d7e:	4662      	mov	r2, ip
10000d80:	0090      	lsls	r0, r2, #2
10000d82:	1808      	adds	r0, r1, r0
10000d84:	6078      	str	r0, [r7, #4]
10000d86:	60be      	str	r6, [r7, #8]
10000d88:	60fb      	str	r3, [r7, #12]
10000d8a:	2301      	movs	r3, #1
10000d8c:	002a      	movs	r2, r5
10000d8e:	0018      	movs	r0, r3
10000d90:	3218      	adds	r2, #24
10000d92:	4090      	lsls	r0, r2
10000d94:	40ab      	lsls	r3, r5
10000d96:	6088      	str	r0, [r1, #8]
10000d98:	0002      	movs	r2, r0
10000d9a:	6808      	ldr	r0, [r1, #0]
10000d9c:	4303      	orrs	r3, r0
10000d9e:	600b      	str	r3, [r1, #0]
10000da0:	688b      	ldr	r3, [r1, #8]
10000da2:	421a      	tst	r2, r3
10000da4:	d0fc      	beq.n	10000da0 <cyw43_spi_transfer+0x16c>
10000da6:	2106      	movs	r1, #6
10000da8:	2201      	movs	r2, #1
10000daa:	5661      	ldrsb	r1, [r4, r1]
10000dac:	6820      	ldr	r0, [r4, #0]
10000dae:	408a      	lsls	r2, r1
10000db0:	6803      	ldr	r3, [r0, #0]
10000db2:	4393      	bics	r3, r2
10000db4:	6003      	str	r3, [r0, #0]
10000db6:	2300      	movs	r3, #0
10000db8:	2218      	movs	r2, #24
10000dba:	9300      	str	r3, [sp, #0]
10000dbc:	3301      	adds	r3, #1
10000dbe:	f002 ff65 	bl	10003c8c <pio_sm_set_consecutive_pindirs>
10000dc2:	e103      	b.n	10000fcc <cyw43_spi_transfer+0x398>
10000dc4:	2b00      	cmp	r3, #0
10000dc6:	d100      	bne.n	10000dca <cyw43_spi_transfer+0x196>
10000dc8:	e11f      	b.n	1000100a <cyw43_spi_transfer+0x3d6>
10000dca:	2384      	movs	r3, #132	; 0x84
10000dcc:	011b      	lsls	r3, r3, #4
10000dce:	58c4      	ldr	r4, [r0, r3]
10000dd0:	2018      	movs	r0, #24
10000dd2:	7921      	ldrb	r1, [r4, #4]
10000dd4:	f002 ffb2 	bl	10003d3c <gpio_set_function>
10000dd8:	201d      	movs	r0, #29
10000dda:	7921      	ldrb	r1, [r4, #4]
10000ddc:	f002 ffae 	bl	10003d3c <gpio_set_function>
10000de0:	2201      	movs	r2, #1
10000de2:	2100      	movs	r1, #0
10000de4:	201d      	movs	r0, #29
10000de6:	f002 ffc1 	bl	10003d6c <gpio_set_pulls>
10000dea:	23d0      	movs	r3, #208	; 0xd0
10000dec:	2280      	movs	r2, #128	; 0x80
10000dee:	061b      	lsls	r3, r3, #24
10000df0:	0492      	lsls	r2, r2, #18
10000df2:	619a      	str	r2, [r3, #24]
10000df4:	9b02      	ldr	r3, [sp, #8]
10000df6:	4698      	mov	r8, r3
10000df8:	2106      	movs	r1, #6
10000dfa:	2201      	movs	r2, #1
10000dfc:	5661      	ldrsb	r1, [r4, r1]
10000dfe:	4691      	mov	r9, r2
10000e00:	408a      	lsls	r2, r1
10000e02:	6820      	ldr	r0, [r4, #0]
10000e04:	6803      	ldr	r3, [r0, #0]
10000e06:	4393      	bics	r3, r2
10000e08:	6003      	str	r3, [r0, #0]
10000e0a:	2305      	movs	r3, #5
10000e0c:	56e3      	ldrsb	r3, [r4, r3]
10000e0e:	469c      	mov	ip, r3
10000e10:	004b      	lsls	r3, r1, #1
10000e12:	185b      	adds	r3, r3, r1
10000e14:	00db      	lsls	r3, r3, #3
10000e16:	18c5      	adds	r5, r0, r3
10000e18:	35cc      	adds	r5, #204	; 0xcc
10000e1a:	682a      	ldr	r2, [r5, #0]
10000e1c:	33d0      	adds	r3, #208	; 0xd0
10000e1e:	4692      	mov	sl, r2
10000e20:	4662      	mov	r2, ip
10000e22:	3205      	adds	r2, #5
10000e24:	0317      	lsls	r7, r2, #12
10000e26:	9703      	str	r7, [sp, #12]
10000e28:	4f79      	ldr	r7, [pc, #484]	; (10001010 <cyw43_spi_transfer+0x3dc>)
10000e2a:	18c3      	adds	r3, r0, r3
10000e2c:	46bb      	mov	fp, r7
10000e2e:	4657      	mov	r7, sl
10000e30:	465a      	mov	r2, fp
10000e32:	4017      	ands	r7, r2
10000e34:	003a      	movs	r2, r7
10000e36:	9f03      	ldr	r7, [sp, #12]
10000e38:	4317      	orrs	r7, r2
10000e3a:	003a      	movs	r2, r7
10000e3c:	4667      	mov	r7, ip
10000e3e:	01ff      	lsls	r7, r7, #7
10000e40:	433a      	orrs	r2, r7
10000e42:	602a      	str	r2, [r5, #0]
10000e44:	2280      	movs	r2, #128	; 0x80
10000e46:	0152      	lsls	r2, r2, #5
10000e48:	4313      	orrs	r3, r2
10000e4a:	2280      	movs	r2, #128	; 0x80
10000e4c:	0612      	lsls	r2, r2, #24
10000e4e:	601a      	str	r2, [r3, #0]
10000e50:	601a      	str	r2, [r3, #0]
10000e52:	2380      	movs	r3, #128	; 0x80
10000e54:	045b      	lsls	r3, r3, #17
10000e56:	001a      	movs	r2, r3
10000e58:	f002 fec6 	bl	10003be8 <pio_sm_set_pindirs_with_mask>
10000e5c:	2106      	movs	r1, #6
10000e5e:	4648      	mov	r0, r9
10000e60:	5661      	ldrsb	r1, [r4, r1]
10000e62:	6823      	ldr	r3, [r4, #0]
10000e64:	1d0a      	adds	r2, r1, #4
10000e66:	9203      	str	r2, [sp, #12]
10000e68:	4090      	lsls	r0, r2
10000e6a:	2280      	movs	r2, #128	; 0x80
10000e6c:	0192      	lsls	r2, r2, #6
10000e6e:	431a      	orrs	r2, r3
10000e70:	6010      	str	r0, [r2, #0]
10000e72:	2008      	movs	r0, #8
10000e74:	4682      	mov	sl, r0
10000e76:	448a      	add	sl, r1
10000e78:	4648      	mov	r0, r9
10000e7a:	4655      	mov	r5, sl
10000e7c:	40a8      	lsls	r0, r5
10000e7e:	6010      	str	r0, [r2, #0]
10000e80:	00f2      	lsls	r2, r6, #3
10000e82:	0088      	lsls	r0, r1, #2
10000e84:	1818      	adds	r0, r3, r0
10000e86:	3a01      	subs	r2, #1
10000e88:	6102      	str	r2, [r0, #16]
10000e8a:	004a      	lsls	r2, r1, #1
10000e8c:	1852      	adds	r2, r2, r1
10000e8e:	00d2      	lsls	r2, r2, #3
10000e90:	4d60      	ldr	r5, [pc, #384]	; (10001014 <cyw43_spi_transfer+0x3e0>)
10000e92:	189a      	adds	r2, r3, r2
10000e94:	32d8      	adds	r2, #216	; 0xd8
10000e96:	6015      	str	r5, [r2, #0]
10000e98:	9d10      	ldr	r5, [sp, #64]	; 0x40
10000e9a:	9f02      	ldr	r7, [sp, #8]
10000e9c:	1bad      	subs	r5, r5, r6
10000e9e:	00ed      	lsls	r5, r5, #3
10000ea0:	3d01      	subs	r5, #1
10000ea2:	6105      	str	r5, [r0, #16]
10000ea4:	485c      	ldr	r0, [pc, #368]	; (10001018 <cyw43_spi_transfer+0x3e4>)
10000ea6:	6010      	str	r0, [r2, #0]
10000ea8:	201f      	movs	r0, #31
10000eaa:	7965      	ldrb	r5, [r4, #5]
10000eac:	4028      	ands	r0, r5
10000eae:	6010      	str	r0, [r2, #0]
10000eb0:	2207      	movs	r2, #7
10000eb2:	56a2      	ldrsb	r2, [r4, r2]
10000eb4:	4694      	mov	ip, r2
10000eb6:	464a      	mov	r2, r9
10000eb8:	4660      	mov	r0, ip
10000eba:	4082      	lsls	r2, r0
10000ebc:	20a0      	movs	r0, #160	; 0xa0
10000ebe:	05c0      	lsls	r0, r0, #23
10000ec0:	4681      	mov	r9, r0
10000ec2:	464d      	mov	r5, r9
10000ec4:	4855      	ldr	r0, [pc, #340]	; (1000101c <cyw43_spi_transfer+0x3e8>)
10000ec6:	502a      	str	r2, [r5, r0]
10000ec8:	4662      	mov	r2, ip
10000eca:	0192      	lsls	r2, r2, #6
10000ecc:	4693      	mov	fp, r2
10000ece:	9204      	str	r2, [sp, #16]
10000ed0:	2280      	movs	r2, #128	; 0x80
10000ed2:	4d53      	ldr	r5, [pc, #332]	; (10001020 <cyw43_spi_transfer+0x3ec>)
10000ed4:	0452      	lsls	r2, r2, #17
10000ed6:	445d      	add	r5, fp
10000ed8:	6828      	ldr	r0, [r5, #0]
10000eda:	4210      	tst	r0, r2
10000edc:	d1fc      	bne.n	10000ed8 <cyw43_spi_transfer+0x2a4>
10000ede:	2208      	movs	r2, #8
10000ee0:	56a2      	ldrsb	r2, [r4, r2]
10000ee2:	464d      	mov	r5, r9
10000ee4:	4693      	mov	fp, r2
10000ee6:	2201      	movs	r2, #1
10000ee8:	4658      	mov	r0, fp
10000eea:	4082      	lsls	r2, r0
10000eec:	484b      	ldr	r0, [pc, #300]	; (1000101c <cyw43_spi_transfer+0x3e8>)
10000eee:	502a      	str	r2, [r5, r0]
10000ef0:	465a      	mov	r2, fp
10000ef2:	0192      	lsls	r2, r2, #6
10000ef4:	4691      	mov	r9, r2
10000ef6:	9205      	str	r2, [sp, #20]
10000ef8:	2280      	movs	r2, #128	; 0x80
10000efa:	4d49      	ldr	r5, [pc, #292]	; (10001020 <cyw43_spi_transfer+0x3ec>)
10000efc:	0452      	lsls	r2, r2, #17
10000efe:	444d      	add	r5, r9
10000f00:	6828      	ldr	r0, [r5, #0]
10000f02:	4210      	tst	r0, r2
10000f04:	d1fc      	bne.n	10000f00 <cyw43_spi_transfer+0x2cc>
10000f06:	4662      	mov	r2, ip
10000f08:	4846      	ldr	r0, [pc, #280]	; (10001024 <cyw43_spi_transfer+0x3f0>)
10000f0a:	9702      	str	r7, [sp, #8]
10000f0c:	02d2      	lsls	r2, r2, #11
10000f0e:	4283      	cmp	r3, r0
10000f10:	d100      	bne.n	10000f14 <cyw43_spi_transfer+0x2e0>
10000f12:	e074      	b.n	10000ffe <cyw43_spi_transfer+0x3ca>
10000f14:	200c      	movs	r0, #12
10000f16:	4681      	mov	r9, r0
10000f18:	4489      	add	r9, r1
10000f1a:	4655      	mov	r5, sl
10000f1c:	4f42      	ldr	r7, [pc, #264]	; (10001028 <cyw43_spi_transfer+0x3f4>)
10000f1e:	03ed      	lsls	r5, r5, #15
10000f20:	403a      	ands	r2, r7
10000f22:	432a      	orrs	r2, r5
10000f24:	4d41      	ldr	r5, [pc, #260]	; (1000102c <cyw43_spi_transfer+0x3f8>)
10000f26:	9f04      	ldr	r7, [sp, #16]
10000f28:	4315      	orrs	r5, r2
10000f2a:	9a03      	ldr	r2, [sp, #12]
10000f2c:	46aa      	mov	sl, r5
10000f2e:	0095      	lsls	r5, r2, #2
10000f30:	22a0      	movs	r2, #160	; 0xa0
10000f32:	05d2      	lsls	r2, r2, #23
10000f34:	4694      	mov	ip, r2
10000f36:	4467      	add	r7, ip
10000f38:	46bc      	mov	ip, r7
10000f3a:	003a      	movs	r2, r7
10000f3c:	4647      	mov	r7, r8
10000f3e:	6017      	str	r7, [r2, #0]
10000f40:	195a      	adds	r2, r3, r5
10000f42:	4690      	mov	r8, r2
10000f44:	4662      	mov	r2, ip
10000f46:	4647      	mov	r7, r8
10000f48:	6057      	str	r7, [r2, #4]
10000f4a:	4667      	mov	r7, ip
10000f4c:	08b0      	lsrs	r0, r6, #2
10000f4e:	60b8      	str	r0, [r7, #8]
10000f50:	0002      	movs	r2, r0
10000f52:	4650      	mov	r0, sl
10000f54:	60f8      	str	r0, [r7, #12]
10000f56:	4658      	mov	r0, fp
10000f58:	4f33      	ldr	r7, [pc, #204]	; (10001028 <cyw43_spi_transfer+0x3f4>)
10000f5a:	02c0      	lsls	r0, r0, #11
10000f5c:	4038      	ands	r0, r7
10000f5e:	464f      	mov	r7, r9
10000f60:	03ff      	lsls	r7, r7, #15
10000f62:	4338      	orrs	r0, r7
10000f64:	4f32      	ldr	r7, [pc, #200]	; (10001030 <cyw43_spi_transfer+0x3fc>)
10000f66:	3510      	adds	r5, #16
10000f68:	4338      	orrs	r0, r7
10000f6a:	9f10      	ldr	r7, [sp, #64]	; 0x40
10000f6c:	195d      	adds	r5, r3, r5
10000f6e:	08bf      	lsrs	r7, r7, #2
10000f70:	1aba      	subs	r2, r7, r2
10000f72:	27a0      	movs	r7, #160	; 0xa0
10000f74:	05ff      	lsls	r7, r7, #23
10000f76:	46b8      	mov	r8, r7
10000f78:	4694      	mov	ip, r2
10000f7a:	9a05      	ldr	r2, [sp, #20]
10000f7c:	9f02      	ldr	r7, [sp, #8]
10000f7e:	4442      	add	r2, r8
10000f80:	6015      	str	r5, [r2, #0]
10000f82:	19bd      	adds	r5, r7, r6
10000f84:	6055      	str	r5, [r2, #4]
10000f86:	4665      	mov	r5, ip
10000f88:	6095      	str	r5, [r2, #8]
10000f8a:	60d0      	str	r0, [r2, #12]
10000f8c:	2201      	movs	r2, #1
10000f8e:	408a      	lsls	r2, r1
10000f90:	6818      	ldr	r0, [r3, #0]
10000f92:	4302      	orrs	r2, r0
10000f94:	601a      	str	r2, [r3, #0]
10000f96:	2207      	movs	r2, #7
10000f98:	4b26      	ldr	r3, [pc, #152]	; (10001034 <cyw43_spi_transfer+0x400>)
10000f9a:	2180      	movs	r1, #128	; 0x80
10000f9c:	469c      	mov	ip, r3
10000f9e:	56a2      	ldrsb	r2, [r4, r2]
10000fa0:	0449      	lsls	r1, r1, #17
10000fa2:	0192      	lsls	r2, r2, #6
10000fa4:	4462      	add	r2, ip
10000fa6:	6813      	ldr	r3, [r2, #0]
10000fa8:	420b      	tst	r3, r1
10000faa:	d1fc      	bne.n	10000fa6 <cyw43_spi_transfer+0x372>
10000fac:	2208      	movs	r2, #8
10000fae:	4b21      	ldr	r3, [pc, #132]	; (10001034 <cyw43_spi_transfer+0x400>)
10000fb0:	2180      	movs	r1, #128	; 0x80
10000fb2:	469c      	mov	ip, r3
10000fb4:	56a2      	ldrsb	r2, [r4, r2]
10000fb6:	0449      	lsls	r1, r1, #17
10000fb8:	0192      	lsls	r2, r2, #6
10000fba:	4462      	add	r2, ip
10000fbc:	6813      	ldr	r3, [r2, #0]
10000fbe:	420b      	tst	r3, r1
10000fc0:	d1fc      	bne.n	10000fbc <cyw43_spi_transfer+0x388>
10000fc2:	0038      	movs	r0, r7
10000fc4:	2100      	movs	r1, #0
10000fc6:	0032      	movs	r2, r6
10000fc8:	f006 ff8a 	bl	10007ee0 <__wrap_memset>
10000fcc:	2106      	movs	r1, #6
10000fce:	5661      	ldrsb	r1, [r4, r1]
10000fd0:	6823      	ldr	r3, [r4, #0]
10000fd2:	004a      	lsls	r2, r1, #1
10000fd4:	1852      	adds	r2, r2, r1
10000fd6:	00d2      	lsls	r2, r2, #3
10000fd8:	189b      	adds	r3, r3, r2
10000fda:	4a17      	ldr	r2, [pc, #92]	; (10001038 <cyw43_spi_transfer+0x404>)
10000fdc:	33d8      	adds	r3, #216	; 0xd8
10000fde:	601a      	str	r2, [r3, #0]
10000fe0:	23d0      	movs	r3, #208	; 0xd0
10000fe2:	2280      	movs	r2, #128	; 0x80
10000fe4:	061b      	lsls	r3, r3, #24
10000fe6:	0492      	lsls	r2, r2, #18
10000fe8:	615a      	str	r2, [r3, #20]
10000fea:	f7ff fcfd 	bl	100009e8 <ns_delay.constprop.0>
10000fee:	2000      	movs	r0, #0
10000ff0:	b007      	add	sp, #28
10000ff2:	bcf0      	pop	{r4, r5, r6, r7}
10000ff4:	46bb      	mov	fp, r7
10000ff6:	46b2      	mov	sl, r6
10000ff8:	46a9      	mov	r9, r5
10000ffa:	46a0      	mov	r8, r4
10000ffc:	bdf0      	pop	{r4, r5, r6, r7, pc}
10000ffe:	9803      	ldr	r0, [sp, #12]
10001000:	468a      	mov	sl, r1
10001002:	4681      	mov	r9, r0
10001004:	e789      	b.n	10000f1a <cyw43_spi_transfer+0x2e6>
10001006:	46aa      	mov	sl, r5
10001008:	e6ab      	b.n	10000d62 <cyw43_spi_transfer+0x12e>
1000100a:	2005      	movs	r0, #5
1000100c:	4240      	negs	r0, r0
1000100e:	e7ef      	b.n	10000ff0 <cyw43_spi_transfer+0x3bc>
10001010:	fffe007f 	.word	0xfffe007f
10001014:	00006020 	.word	0x00006020
10001018:	00006040 	.word	0x00006040
1000101c:	00000444 	.word	0x00000444
10001020:	5000000c 	.word	0x5000000c
10001024:	50200000 	.word	0x50200000
10001028:	ff007ffd 	.word	0xff007ffd
1000102c:	00400019 	.word	0x00400019
10001030:	00400029 	.word	0x00400029
10001034:	50000010 	.word	0x50000010
10001038:	0000a003 	.word	0x0000a003

1000103c <cyw43_spi_gpio_setup>:
1000103c:	b510      	push	{r4, lr}
1000103e:	2017      	movs	r0, #23
10001040:	f002 ff30 	bl	10003ea4 <gpio_init>
10001044:	24d0      	movs	r4, #208	; 0xd0
10001046:	2380      	movs	r3, #128	; 0x80
10001048:	0624      	lsls	r4, r4, #24
1000104a:	041b      	lsls	r3, r3, #16
1000104c:	2200      	movs	r2, #0
1000104e:	2101      	movs	r1, #1
10001050:	6263      	str	r3, [r4, #36]	; 0x24
10001052:	2017      	movs	r0, #23
10001054:	f002 fe8a 	bl	10003d6c <gpio_set_pulls>
10001058:	2018      	movs	r0, #24
1000105a:	f002 ff23 	bl	10003ea4 <gpio_init>
1000105e:	2380      	movs	r3, #128	; 0x80
10001060:	045b      	lsls	r3, r3, #17
10001062:	6263      	str	r3, [r4, #36]	; 0x24
10001064:	2019      	movs	r0, #25
10001066:	61a3      	str	r3, [r4, #24]
10001068:	f002 ff1c 	bl	10003ea4 <gpio_init>
1000106c:	2380      	movs	r3, #128	; 0x80
1000106e:	049b      	lsls	r3, r3, #18
10001070:	6263      	str	r3, [r4, #36]	; 0x24
10001072:	6163      	str	r3, [r4, #20]
10001074:	bd10      	pop	{r4, pc}
10001076:	46c0      	nop			; (mov r8, r8)

10001078 <cyw43_spi_reset>:
10001078:	b570      	push	{r4, r5, r6, lr}
1000107a:	24d0      	movs	r4, #208	; 0xd0
1000107c:	2580      	movs	r5, #128	; 0x80
1000107e:	0624      	lsls	r4, r4, #24
10001080:	042d      	lsls	r5, r5, #16
10001082:	61a5      	str	r5, [r4, #24]
10001084:	2014      	movs	r0, #20
10001086:	f003 fd69 	bl	10004b5c <sleep_ms>
1000108a:	6165      	str	r5, [r4, #20]
1000108c:	20fa      	movs	r0, #250	; 0xfa
1000108e:	f003 fd65 	bl	10004b5c <sleep_ms>
10001092:	2018      	movs	r0, #24
10001094:	f002 ff06 	bl	10003ea4 <gpio_init>
10001098:	2380      	movs	r3, #128	; 0x80
1000109a:	045b      	lsls	r3, r3, #17
1000109c:	62a3      	str	r3, [r4, #40]	; 0x28
1000109e:	bd70      	pop	{r4, r5, r6, pc}

100010a0 <read_reg_u32_swap>:
100010a0:	2300      	movs	r3, #0
100010a2:	b500      	push	{lr}
100010a4:	b085      	sub	sp, #20
100010a6:	9303      	str	r3, [sp, #12]
100010a8:	4b0a      	ldr	r3, [pc, #40]	; (100010d4 <read_reg_u32_swap+0x34>)
100010aa:	02d2      	lsls	r2, r2, #11
100010ac:	401a      	ands	r2, r3
100010ae:	2308      	movs	r3, #8
100010b0:	0709      	lsls	r1, r1, #28
100010b2:	430a      	orrs	r2, r1
100010b4:	4908      	ldr	r1, [pc, #32]	; (100010d8 <read_reg_u32_swap+0x38>)
100010b6:	9300      	str	r3, [sp, #0]
100010b8:	4311      	orrs	r1, r2
100010ba:	ab02      	add	r3, sp, #8
100010bc:	ba49      	rev16	r1, r1
100010be:	2204      	movs	r2, #4
100010c0:	9102      	str	r1, [sp, #8]
100010c2:	2100      	movs	r1, #0
100010c4:	f7ff fdb6 	bl	10000c34 <cyw43_spi_transfer>
100010c8:	2800      	cmp	r0, #0
100010ca:	d101      	bne.n	100010d0 <read_reg_u32_swap+0x30>
100010cc:	9803      	ldr	r0, [sp, #12]
100010ce:	ba40      	rev16	r0, r0
100010d0:	b005      	add	sp, #20
100010d2:	bd00      	pop	{pc}
100010d4:	0ffff800 	.word	0x0ffff800
100010d8:	40000004 	.word	0x40000004

100010dc <cyw43_read_reg_u32>:
100010dc:	b510      	push	{r4, lr}
100010de:	b086      	sub	sp, #24
100010e0:	2901      	cmp	r1, #1
100010e2:	d016      	beq.n	10001112 <cyw43_read_reg_u32+0x36>
100010e4:	4b15      	ldr	r3, [pc, #84]	; (1000113c <cyw43_read_reg_u32+0x60>)
100010e6:	02d2      	lsls	r2, r2, #11
100010e8:	401a      	ands	r2, r3
100010ea:	2308      	movs	r3, #8
100010ec:	0709      	lsls	r1, r1, #28
100010ee:	430a      	orrs	r2, r1
100010f0:	4913      	ldr	r1, [pc, #76]	; (10001140 <cyw43_read_reg_u32+0x64>)
100010f2:	ac03      	add	r4, sp, #12
100010f4:	430a      	orrs	r2, r1
100010f6:	9203      	str	r2, [sp, #12]
100010f8:	9300      	str	r3, [sp, #0]
100010fa:	2204      	movs	r2, #4
100010fc:	0023      	movs	r3, r4
100010fe:	2100      	movs	r1, #0
10001100:	f7ff fd98 	bl	10000c34 <cyw43_spi_transfer>
10001104:	2301      	movs	r3, #1
10001106:	2800      	cmp	r0, #0
10001108:	d101      	bne.n	1000110e <cyw43_read_reg_u32+0x32>
1000110a:	009b      	lsls	r3, r3, #2
1000110c:	58e0      	ldr	r0, [r4, r3]
1000110e:	b006      	add	sp, #24
10001110:	bd10      	pop	{r4, pc}
10001112:	4b0a      	ldr	r3, [pc, #40]	; (1000113c <cyw43_read_reg_u32+0x60>)
10001114:	02d2      	lsls	r2, r2, #11
10001116:	401a      	ands	r2, r3
10001118:	4b0a      	ldr	r3, [pc, #40]	; (10001144 <cyw43_read_reg_u32+0x68>)
1000111a:	ac03      	add	r4, sp, #12
1000111c:	431a      	orrs	r2, r3
1000111e:	230c      	movs	r3, #12
10001120:	9203      	str	r2, [sp, #12]
10001122:	9300      	str	r3, [sp, #0]
10001124:	2204      	movs	r2, #4
10001126:	0023      	movs	r3, r4
10001128:	2100      	movs	r1, #0
1000112a:	f7ff fd83 	bl	10000c34 <cyw43_spi_transfer>
1000112e:	2800      	cmp	r0, #0
10001130:	d1ed      	bne.n	1000110e <cyw43_read_reg_u32+0x32>
10001132:	2302      	movs	r3, #2
10001134:	009b      	lsls	r3, r3, #2
10001136:	58e0      	ldr	r0, [r4, r3]
10001138:	e7e9      	b.n	1000110e <cyw43_read_reg_u32+0x32>
1000113a:	46c0      	nop			; (mov r8, r8)
1000113c:	0ffff800 	.word	0x0ffff800
10001140:	40000004 	.word	0x40000004
10001144:	50000008 	.word	0x50000008

10001148 <cyw43_read_reg_u16>:
10001148:	b510      	push	{r4, lr}
1000114a:	b086      	sub	sp, #24
1000114c:	2901      	cmp	r1, #1
1000114e:	d016      	beq.n	1000117e <cyw43_read_reg_u16+0x36>
10001150:	4b15      	ldr	r3, [pc, #84]	; (100011a8 <cyw43_read_reg_u16+0x60>)
10001152:	02d2      	lsls	r2, r2, #11
10001154:	401a      	ands	r2, r3
10001156:	2308      	movs	r3, #8
10001158:	0709      	lsls	r1, r1, #28
1000115a:	430a      	orrs	r2, r1
1000115c:	4913      	ldr	r1, [pc, #76]	; (100011ac <cyw43_read_reg_u16+0x64>)
1000115e:	ac03      	add	r4, sp, #12
10001160:	430a      	orrs	r2, r1
10001162:	9203      	str	r2, [sp, #12]
10001164:	9300      	str	r3, [sp, #0]
10001166:	2204      	movs	r2, #4
10001168:	0023      	movs	r3, r4
1000116a:	2100      	movs	r1, #0
1000116c:	f7ff fd62 	bl	10000c34 <cyw43_spi_transfer>
10001170:	2301      	movs	r3, #1
10001172:	2800      	cmp	r0, #0
10001174:	d101      	bne.n	1000117a <cyw43_read_reg_u16+0x32>
10001176:	009b      	lsls	r3, r3, #2
10001178:	58e0      	ldr	r0, [r4, r3]
1000117a:	b006      	add	sp, #24
1000117c:	bd10      	pop	{r4, pc}
1000117e:	4b0a      	ldr	r3, [pc, #40]	; (100011a8 <cyw43_read_reg_u16+0x60>)
10001180:	02d2      	lsls	r2, r2, #11
10001182:	401a      	ands	r2, r3
10001184:	4b0a      	ldr	r3, [pc, #40]	; (100011b0 <cyw43_read_reg_u16+0x68>)
10001186:	ac03      	add	r4, sp, #12
10001188:	431a      	orrs	r2, r3
1000118a:	230c      	movs	r3, #12
1000118c:	9203      	str	r2, [sp, #12]
1000118e:	9300      	str	r3, [sp, #0]
10001190:	2204      	movs	r2, #4
10001192:	0023      	movs	r3, r4
10001194:	2100      	movs	r1, #0
10001196:	f7ff fd4d 	bl	10000c34 <cyw43_spi_transfer>
1000119a:	2800      	cmp	r0, #0
1000119c:	d1ed      	bne.n	1000117a <cyw43_read_reg_u16+0x32>
1000119e:	2302      	movs	r3, #2
100011a0:	009b      	lsls	r3, r3, #2
100011a2:	58e0      	ldr	r0, [r4, r3]
100011a4:	e7e9      	b.n	1000117a <cyw43_read_reg_u16+0x32>
100011a6:	46c0      	nop			; (mov r8, r8)
100011a8:	0ffff800 	.word	0x0ffff800
100011ac:	40000002 	.word	0x40000002
100011b0:	50000006 	.word	0x50000006

100011b4 <cyw43_read_reg_u8>:
100011b4:	b510      	push	{r4, lr}
100011b6:	b086      	sub	sp, #24
100011b8:	2901      	cmp	r1, #1
100011ba:	d016      	beq.n	100011ea <cyw43_read_reg_u8+0x36>
100011bc:	4b15      	ldr	r3, [pc, #84]	; (10001214 <cyw43_read_reg_u8+0x60>)
100011be:	02d2      	lsls	r2, r2, #11
100011c0:	401a      	ands	r2, r3
100011c2:	2308      	movs	r3, #8
100011c4:	0709      	lsls	r1, r1, #28
100011c6:	430a      	orrs	r2, r1
100011c8:	4913      	ldr	r1, [pc, #76]	; (10001218 <cyw43_read_reg_u8+0x64>)
100011ca:	ac03      	add	r4, sp, #12
100011cc:	430a      	orrs	r2, r1
100011ce:	9203      	str	r2, [sp, #12]
100011d0:	9300      	str	r3, [sp, #0]
100011d2:	2204      	movs	r2, #4
100011d4:	0023      	movs	r3, r4
100011d6:	2100      	movs	r1, #0
100011d8:	f7ff fd2c 	bl	10000c34 <cyw43_spi_transfer>
100011dc:	2301      	movs	r3, #1
100011de:	2800      	cmp	r0, #0
100011e0:	d101      	bne.n	100011e6 <cyw43_read_reg_u8+0x32>
100011e2:	009b      	lsls	r3, r3, #2
100011e4:	58e0      	ldr	r0, [r4, r3]
100011e6:	b006      	add	sp, #24
100011e8:	bd10      	pop	{r4, pc}
100011ea:	4b0a      	ldr	r3, [pc, #40]	; (10001214 <cyw43_read_reg_u8+0x60>)
100011ec:	02d2      	lsls	r2, r2, #11
100011ee:	401a      	ands	r2, r3
100011f0:	4b0a      	ldr	r3, [pc, #40]	; (1000121c <cyw43_read_reg_u8+0x68>)
100011f2:	ac03      	add	r4, sp, #12
100011f4:	431a      	orrs	r2, r3
100011f6:	230c      	movs	r3, #12
100011f8:	9203      	str	r2, [sp, #12]
100011fa:	9300      	str	r3, [sp, #0]
100011fc:	2204      	movs	r2, #4
100011fe:	0023      	movs	r3, r4
10001200:	2100      	movs	r1, #0
10001202:	f7ff fd17 	bl	10000c34 <cyw43_spi_transfer>
10001206:	2800      	cmp	r0, #0
10001208:	d1ed      	bne.n	100011e6 <cyw43_read_reg_u8+0x32>
1000120a:	2302      	movs	r3, #2
1000120c:	009b      	lsls	r3, r3, #2
1000120e:	58e0      	ldr	r0, [r4, r3]
10001210:	e7e9      	b.n	100011e6 <cyw43_read_reg_u8+0x32>
10001212:	46c0      	nop			; (mov r8, r8)
10001214:	0ffff800 	.word	0x0ffff800
10001218:	40000001 	.word	0x40000001
1000121c:	50000005 	.word	0x50000005

10001220 <write_reg_u32_swap>:
10001220:	b5f0      	push	{r4, r5, r6, r7, lr}
10001222:	ba5b      	rev16	r3, r3
10001224:	46d6      	mov	lr, sl
10001226:	464f      	mov	r7, r9
10001228:	4646      	mov	r6, r8
1000122a:	b5c0      	push	{r6, r7, lr}
1000122c:	b084      	sub	sp, #16
1000122e:	9303      	str	r3, [sp, #12]
10001230:	2384      	movs	r3, #132	; 0x84
10001232:	4c68      	ldr	r4, [pc, #416]	; (100013d4 <write_reg_u32_swap+0x1b4>)
10001234:	02d2      	lsls	r2, r2, #11
10001236:	4022      	ands	r2, r4
10001238:	0709      	lsls	r1, r1, #28
1000123a:	430a      	orrs	r2, r1
1000123c:	011b      	lsls	r3, r3, #4
1000123e:	4966      	ldr	r1, [pc, #408]	; (100013d8 <write_reg_u32_swap+0x1b8>)
10001240:	58c4      	ldr	r4, [r0, r3]
10001242:	4311      	orrs	r1, r2
10001244:	ba49      	rev16	r1, r1
10001246:	9102      	str	r1, [sp, #8]
10001248:	2018      	movs	r0, #24
1000124a:	7921      	ldrb	r1, [r4, #4]
1000124c:	f002 fd76 	bl	10003d3c <gpio_set_function>
10001250:	201d      	movs	r0, #29
10001252:	7921      	ldrb	r1, [r4, #4]
10001254:	f002 fd72 	bl	10003d3c <gpio_set_function>
10001258:	2201      	movs	r2, #1
1000125a:	2100      	movs	r1, #0
1000125c:	201d      	movs	r0, #29
1000125e:	f002 fd85 	bl	10003d6c <gpio_set_pulls>
10001262:	23d0      	movs	r3, #208	; 0xd0
10001264:	2280      	movs	r2, #128	; 0x80
10001266:	2106      	movs	r1, #6
10001268:	061b      	lsls	r3, r3, #24
1000126a:	0492      	lsls	r2, r2, #18
1000126c:	619a      	str	r2, [r3, #24]
1000126e:	2201      	movs	r2, #1
10001270:	5661      	ldrsb	r1, [r4, r1]
10001272:	4690      	mov	r8, r2
10001274:	408a      	lsls	r2, r1
10001276:	6820      	ldr	r0, [r4, #0]
10001278:	4e58      	ldr	r6, [pc, #352]	; (100013dc <write_reg_u32_swap+0x1bc>)
1000127a:	6803      	ldr	r3, [r0, #0]
1000127c:	ad02      	add	r5, sp, #8
1000127e:	4393      	bics	r3, r2
10001280:	6003      	str	r3, [r0, #0]
10001282:	2305      	movs	r3, #5
10001284:	56e3      	ldrsb	r3, [r4, r3]
10001286:	469c      	mov	ip, r3
10001288:	004b      	lsls	r3, r1, #1
1000128a:	185b      	adds	r3, r3, r1
1000128c:	00db      	lsls	r3, r3, #3
1000128e:	18c7      	adds	r7, r0, r3
10001290:	37cc      	adds	r7, #204	; 0xcc
10001292:	683a      	ldr	r2, [r7, #0]
10001294:	33d0      	adds	r3, #208	; 0xd0
10001296:	4691      	mov	r9, r2
10001298:	4662      	mov	r2, ip
1000129a:	3201      	adds	r2, #1
1000129c:	0312      	lsls	r2, r2, #12
1000129e:	4692      	mov	sl, r2
100012a0:	464a      	mov	r2, r9
100012a2:	4016      	ands	r6, r2
100012a4:	4652      	mov	r2, sl
100012a6:	4332      	orrs	r2, r6
100012a8:	4666      	mov	r6, ip
100012aa:	01f6      	lsls	r6, r6, #7
100012ac:	4332      	orrs	r2, r6
100012ae:	603a      	str	r2, [r7, #0]
100012b0:	2280      	movs	r2, #128	; 0x80
100012b2:	18c3      	adds	r3, r0, r3
100012b4:	0152      	lsls	r2, r2, #5
100012b6:	4313      	orrs	r3, r2
100012b8:	2280      	movs	r2, #128	; 0x80
100012ba:	0612      	lsls	r2, r2, #24
100012bc:	601a      	str	r2, [r3, #0]
100012be:	601a      	str	r2, [r3, #0]
100012c0:	2380      	movs	r3, #128	; 0x80
100012c2:	2606      	movs	r6, #6
100012c4:	045b      	lsls	r3, r3, #17
100012c6:	001a      	movs	r2, r3
100012c8:	f002 fc8e 	bl	10003be8 <pio_sm_set_pindirs_with_mask>
100012cc:	4641      	mov	r1, r8
100012ce:	57a6      	ldrsb	r6, [r4, r6]
100012d0:	2380      	movs	r3, #128	; 0x80
100012d2:	1d37      	adds	r7, r6, #4
100012d4:	40b9      	lsls	r1, r7
100012d6:	6822      	ldr	r2, [r4, #0]
100012d8:	019b      	lsls	r3, r3, #6
100012da:	4313      	orrs	r3, r2
100012dc:	6019      	str	r1, [r3, #0]
100012de:	2108      	movs	r1, #8
100012e0:	468c      	mov	ip, r1
100012e2:	44b4      	add	ip, r6
100012e4:	4641      	mov	r1, r8
100012e6:	4660      	mov	r0, ip
100012e8:	4081      	lsls	r1, r0
100012ea:	6019      	str	r1, [r3, #0]
100012ec:	233f      	movs	r3, #63	; 0x3f
100012ee:	00b1      	lsls	r1, r6, #2
100012f0:	1851      	adds	r1, r2, r1
100012f2:	610b      	str	r3, [r1, #16]
100012f4:	0073      	lsls	r3, r6, #1
100012f6:	199b      	adds	r3, r3, r6
100012f8:	00db      	lsls	r3, r3, #3
100012fa:	4839      	ldr	r0, [pc, #228]	; (100013e0 <write_reg_u32_swap+0x1c0>)
100012fc:	18d3      	adds	r3, r2, r3
100012fe:	33d8      	adds	r3, #216	; 0xd8
10001300:	6018      	str	r0, [r3, #0]
10001302:	2000      	movs	r0, #0
10001304:	6108      	str	r0, [r1, #16]
10001306:	4937      	ldr	r1, [pc, #220]	; (100013e4 <write_reg_u32_swap+0x1c4>)
10001308:	6019      	str	r1, [r3, #0]
1000130a:	211f      	movs	r1, #31
1000130c:	7960      	ldrb	r0, [r4, #5]
1000130e:	4001      	ands	r1, r0
10001310:	6019      	str	r1, [r3, #0]
10001312:	2307      	movs	r3, #7
10001314:	56e3      	ldrsb	r3, [r4, r3]
10001316:	20a0      	movs	r0, #160	; 0xa0
10001318:	4699      	mov	r9, r3
1000131a:	4643      	mov	r3, r8
1000131c:	4649      	mov	r1, r9
1000131e:	408b      	lsls	r3, r1
10001320:	4931      	ldr	r1, [pc, #196]	; (100013e8 <write_reg_u32_swap+0x1c8>)
10001322:	05c0      	lsls	r0, r0, #23
10001324:	5043      	str	r3, [r0, r1]
10001326:	464b      	mov	r3, r9
10001328:	019b      	lsls	r3, r3, #6
1000132a:	4698      	mov	r8, r3
1000132c:	2180      	movs	r1, #128	; 0x80
1000132e:	482f      	ldr	r0, [pc, #188]	; (100013ec <write_reg_u32_swap+0x1cc>)
10001330:	0449      	lsls	r1, r1, #17
10001332:	4440      	add	r0, r8
10001334:	6803      	ldr	r3, [r0, #0]
10001336:	420b      	tst	r3, r1
10001338:	d1fc      	bne.n	10001334 <write_reg_u32_swap+0x114>
1000133a:	464b      	mov	r3, r9
1000133c:	492c      	ldr	r1, [pc, #176]	; (100013f0 <write_reg_u32_swap+0x1d0>)
1000133e:	02db      	lsls	r3, r3, #11
10001340:	428a      	cmp	r2, r1
10001342:	d044      	beq.n	100013ce <write_reg_u32_swap+0x1ae>
10001344:	492b      	ldr	r1, [pc, #172]	; (100013f4 <write_reg_u32_swap+0x1d4>)
10001346:	2002      	movs	r0, #2
10001348:	400b      	ands	r3, r1
1000134a:	4661      	mov	r1, ip
1000134c:	03c9      	lsls	r1, r1, #15
1000134e:	430b      	orrs	r3, r1
10001350:	4929      	ldr	r1, [pc, #164]	; (100013f8 <write_reg_u32_swap+0x1d8>)
10001352:	00bf      	lsls	r7, r7, #2
10001354:	430b      	orrs	r3, r1
10001356:	21a0      	movs	r1, #160	; 0xa0
10001358:	05c9      	lsls	r1, r1, #23
1000135a:	4441      	add	r1, r8
1000135c:	19d7      	adds	r7, r2, r7
1000135e:	600d      	str	r5, [r1, #0]
10001360:	604f      	str	r7, [r1, #4]
10001362:	6088      	str	r0, [r1, #8]
10001364:	60cb      	str	r3, [r1, #12]
10001366:	2301      	movs	r3, #1
10001368:	0031      	movs	r1, r6
1000136a:	0018      	movs	r0, r3
1000136c:	3118      	adds	r1, #24
1000136e:	4088      	lsls	r0, r1
10001370:	40b3      	lsls	r3, r6
10001372:	6090      	str	r0, [r2, #8]
10001374:	0001      	movs	r1, r0
10001376:	6810      	ldr	r0, [r2, #0]
10001378:	4303      	orrs	r3, r0
1000137a:	6013      	str	r3, [r2, #0]
1000137c:	6893      	ldr	r3, [r2, #8]
1000137e:	420b      	tst	r3, r1
10001380:	d0fc      	beq.n	1000137c <write_reg_u32_swap+0x15c>
10001382:	2106      	movs	r1, #6
10001384:	2201      	movs	r2, #1
10001386:	5661      	ldrsb	r1, [r4, r1]
10001388:	6820      	ldr	r0, [r4, #0]
1000138a:	408a      	lsls	r2, r1
1000138c:	6803      	ldr	r3, [r0, #0]
1000138e:	4393      	bics	r3, r2
10001390:	6003      	str	r3, [r0, #0]
10001392:	2300      	movs	r3, #0
10001394:	2218      	movs	r2, #24
10001396:	9300      	str	r3, [sp, #0]
10001398:	3301      	adds	r3, #1
1000139a:	f002 fc77 	bl	10003c8c <pio_sm_set_consecutive_pindirs>
1000139e:	2106      	movs	r1, #6
100013a0:	5661      	ldrsb	r1, [r4, r1]
100013a2:	6823      	ldr	r3, [r4, #0]
100013a4:	004a      	lsls	r2, r1, #1
100013a6:	1852      	adds	r2, r2, r1
100013a8:	00d2      	lsls	r2, r2, #3
100013aa:	189b      	adds	r3, r3, r2
100013ac:	4a13      	ldr	r2, [pc, #76]	; (100013fc <write_reg_u32_swap+0x1dc>)
100013ae:	33d8      	adds	r3, #216	; 0xd8
100013b0:	601a      	str	r2, [r3, #0]
100013b2:	23d0      	movs	r3, #208	; 0xd0
100013b4:	2280      	movs	r2, #128	; 0x80
100013b6:	061b      	lsls	r3, r3, #24
100013b8:	0492      	lsls	r2, r2, #18
100013ba:	615a      	str	r2, [r3, #20]
100013bc:	f7ff fb14 	bl	100009e8 <ns_delay.constprop.0>
100013c0:	2000      	movs	r0, #0
100013c2:	b004      	add	sp, #16
100013c4:	bce0      	pop	{r5, r6, r7}
100013c6:	46ba      	mov	sl, r7
100013c8:	46b1      	mov	r9, r6
100013ca:	46a8      	mov	r8, r5
100013cc:	bdf0      	pop	{r4, r5, r6, r7, pc}
100013ce:	46b4      	mov	ip, r6
100013d0:	e7b8      	b.n	10001344 <write_reg_u32_swap+0x124>
100013d2:	46c0      	nop			; (mov r8, r8)
100013d4:	0ffff800 	.word	0x0ffff800
100013d8:	c0000004 	.word	0xc0000004
100013dc:	fffe007f 	.word	0xfffe007f
100013e0:	00006020 	.word	0x00006020
100013e4:	00006040 	.word	0x00006040
100013e8:	00000444 	.word	0x00000444
100013ec:	5000000c 	.word	0x5000000c
100013f0:	50200000 	.word	0x50200000
100013f4:	ff007ffd 	.word	0xff007ffd
100013f8:	00400019 	.word	0x00400019
100013fc:	0000a003 	.word	0x0000a003

10001400 <cyw43_write_reg_u32>:
10001400:	b5f0      	push	{r4, r5, r6, r7, lr}
10001402:	46d6      	mov	lr, sl
10001404:	464f      	mov	r7, r9
10001406:	4646      	mov	r6, r8
10001408:	b5c0      	push	{r6, r7, lr}
1000140a:	4c6f      	ldr	r4, [pc, #444]	; (100015c8 <cyw43_write_reg_u32+0x1c8>)
1000140c:	02d2      	lsls	r2, r2, #11
1000140e:	4022      	ands	r2, r4
10001410:	070c      	lsls	r4, r1, #28
10001412:	4322      	orrs	r2, r4
10001414:	4c6d      	ldr	r4, [pc, #436]	; (100015cc <cyw43_write_reg_u32+0x1cc>)
10001416:	b084      	sub	sp, #16
10001418:	4322      	orrs	r2, r4
1000141a:	ad02      	add	r5, sp, #8
1000141c:	9202      	str	r2, [sp, #8]
1000141e:	606b      	str	r3, [r5, #4]
10001420:	2901      	cmp	r1, #1
10001422:	d10a      	bne.n	1000143a <cyw43_write_reg_u32+0x3a>
10001424:	2408      	movs	r4, #8
10001426:	496a      	ldr	r1, [pc, #424]	; (100015d0 <cyw43_write_reg_u32+0x1d0>)
10001428:	5044      	str	r4, [r0, r1]
1000142a:	496a      	ldr	r1, [pc, #424]	; (100015d4 <cyw43_write_reg_u32+0x1d4>)
1000142c:	5042      	str	r2, [r0, r1]
1000142e:	4a6a      	ldr	r2, [pc, #424]	; (100015d8 <cyw43_write_reg_u32+0x1d8>)
10001430:	5083      	str	r3, [r0, r2]
10001432:	2385      	movs	r3, #133	; 0x85
10001434:	6882      	ldr	r2, [r0, #8]
10001436:	011b      	lsls	r3, r3, #4
10001438:	50c2      	str	r2, [r0, r3]
1000143a:	2384      	movs	r3, #132	; 0x84
1000143c:	011b      	lsls	r3, r3, #4
1000143e:	58c4      	ldr	r4, [r0, r3]
10001440:	2018      	movs	r0, #24
10001442:	7921      	ldrb	r1, [r4, #4]
10001444:	f002 fc7a 	bl	10003d3c <gpio_set_function>
10001448:	201d      	movs	r0, #29
1000144a:	7921      	ldrb	r1, [r4, #4]
1000144c:	f002 fc76 	bl	10003d3c <gpio_set_function>
10001450:	2201      	movs	r2, #1
10001452:	2100      	movs	r1, #0
10001454:	201d      	movs	r0, #29
10001456:	f002 fc89 	bl	10003d6c <gpio_set_pulls>
1000145a:	23d0      	movs	r3, #208	; 0xd0
1000145c:	2280      	movs	r2, #128	; 0x80
1000145e:	2106      	movs	r1, #6
10001460:	061b      	lsls	r3, r3, #24
10001462:	0492      	lsls	r2, r2, #18
10001464:	619a      	str	r2, [r3, #24]
10001466:	2201      	movs	r2, #1
10001468:	5661      	ldrsb	r1, [r4, r1]
1000146a:	4690      	mov	r8, r2
1000146c:	408a      	lsls	r2, r1
1000146e:	6820      	ldr	r0, [r4, #0]
10001470:	4e5a      	ldr	r6, [pc, #360]	; (100015dc <cyw43_write_reg_u32+0x1dc>)
10001472:	6803      	ldr	r3, [r0, #0]
10001474:	4393      	bics	r3, r2
10001476:	6003      	str	r3, [r0, #0]
10001478:	2305      	movs	r3, #5
1000147a:	56e3      	ldrsb	r3, [r4, r3]
1000147c:	469c      	mov	ip, r3
1000147e:	004b      	lsls	r3, r1, #1
10001480:	185b      	adds	r3, r3, r1
10001482:	00db      	lsls	r3, r3, #3
10001484:	18c7      	adds	r7, r0, r3
10001486:	37cc      	adds	r7, #204	; 0xcc
10001488:	683a      	ldr	r2, [r7, #0]
1000148a:	33d0      	adds	r3, #208	; 0xd0
1000148c:	4691      	mov	r9, r2
1000148e:	4662      	mov	r2, ip
10001490:	3201      	adds	r2, #1
10001492:	0312      	lsls	r2, r2, #12
10001494:	4692      	mov	sl, r2
10001496:	464a      	mov	r2, r9
10001498:	4016      	ands	r6, r2
1000149a:	4652      	mov	r2, sl
1000149c:	4332      	orrs	r2, r6
1000149e:	4666      	mov	r6, ip
100014a0:	01f6      	lsls	r6, r6, #7
100014a2:	4332      	orrs	r2, r6
100014a4:	603a      	str	r2, [r7, #0]
100014a6:	2280      	movs	r2, #128	; 0x80
100014a8:	18c3      	adds	r3, r0, r3
100014aa:	0152      	lsls	r2, r2, #5
100014ac:	4313      	orrs	r3, r2
100014ae:	2280      	movs	r2, #128	; 0x80
100014b0:	0612      	lsls	r2, r2, #24
100014b2:	601a      	str	r2, [r3, #0]
100014b4:	601a      	str	r2, [r3, #0]
100014b6:	2380      	movs	r3, #128	; 0x80
100014b8:	2606      	movs	r6, #6
100014ba:	045b      	lsls	r3, r3, #17
100014bc:	001a      	movs	r2, r3
100014be:	f002 fb93 	bl	10003be8 <pio_sm_set_pindirs_with_mask>
100014c2:	4641      	mov	r1, r8
100014c4:	57a6      	ldrsb	r6, [r4, r6]
100014c6:	2380      	movs	r3, #128	; 0x80
100014c8:	1d37      	adds	r7, r6, #4
100014ca:	40b9      	lsls	r1, r7
100014cc:	6822      	ldr	r2, [r4, #0]
100014ce:	019b      	lsls	r3, r3, #6
100014d0:	4313      	orrs	r3, r2
100014d2:	6019      	str	r1, [r3, #0]
100014d4:	2108      	movs	r1, #8
100014d6:	468c      	mov	ip, r1
100014d8:	44b4      	add	ip, r6
100014da:	4641      	mov	r1, r8
100014dc:	4660      	mov	r0, ip
100014de:	4081      	lsls	r1, r0
100014e0:	6019      	str	r1, [r3, #0]
100014e2:	233f      	movs	r3, #63	; 0x3f
100014e4:	00b1      	lsls	r1, r6, #2
100014e6:	1851      	adds	r1, r2, r1
100014e8:	610b      	str	r3, [r1, #16]
100014ea:	0073      	lsls	r3, r6, #1
100014ec:	199b      	adds	r3, r3, r6
100014ee:	00db      	lsls	r3, r3, #3
100014f0:	483b      	ldr	r0, [pc, #236]	; (100015e0 <cyw43_write_reg_u32+0x1e0>)
100014f2:	18d3      	adds	r3, r2, r3
100014f4:	33d8      	adds	r3, #216	; 0xd8
100014f6:	6018      	str	r0, [r3, #0]
100014f8:	2000      	movs	r0, #0
100014fa:	6108      	str	r0, [r1, #16]
100014fc:	4939      	ldr	r1, [pc, #228]	; (100015e4 <cyw43_write_reg_u32+0x1e4>)
100014fe:	6019      	str	r1, [r3, #0]
10001500:	211f      	movs	r1, #31
10001502:	7960      	ldrb	r0, [r4, #5]
10001504:	4001      	ands	r1, r0
10001506:	6019      	str	r1, [r3, #0]
10001508:	2307      	movs	r3, #7
1000150a:	56e3      	ldrsb	r3, [r4, r3]
1000150c:	20a0      	movs	r0, #160	; 0xa0
1000150e:	4699      	mov	r9, r3
10001510:	4643      	mov	r3, r8
10001512:	4649      	mov	r1, r9
10001514:	408b      	lsls	r3, r1
10001516:	4934      	ldr	r1, [pc, #208]	; (100015e8 <cyw43_write_reg_u32+0x1e8>)
10001518:	05c0      	lsls	r0, r0, #23
1000151a:	5043      	str	r3, [r0, r1]
1000151c:	464b      	mov	r3, r9
1000151e:	019b      	lsls	r3, r3, #6
10001520:	4698      	mov	r8, r3
10001522:	2180      	movs	r1, #128	; 0x80
10001524:	4831      	ldr	r0, [pc, #196]	; (100015ec <cyw43_write_reg_u32+0x1ec>)
10001526:	0449      	lsls	r1, r1, #17
10001528:	4440      	add	r0, r8
1000152a:	6803      	ldr	r3, [r0, #0]
1000152c:	420b      	tst	r3, r1
1000152e:	d1fc      	bne.n	1000152a <cyw43_write_reg_u32+0x12a>
10001530:	464b      	mov	r3, r9
10001532:	492f      	ldr	r1, [pc, #188]	; (100015f0 <cyw43_write_reg_u32+0x1f0>)
10001534:	02db      	lsls	r3, r3, #11
10001536:	428a      	cmp	r2, r1
10001538:	d044      	beq.n	100015c4 <cyw43_write_reg_u32+0x1c4>
1000153a:	492e      	ldr	r1, [pc, #184]	; (100015f4 <cyw43_write_reg_u32+0x1f4>)
1000153c:	2002      	movs	r0, #2
1000153e:	400b      	ands	r3, r1
10001540:	4661      	mov	r1, ip
10001542:	03c9      	lsls	r1, r1, #15
10001544:	430b      	orrs	r3, r1
10001546:	492c      	ldr	r1, [pc, #176]	; (100015f8 <cyw43_write_reg_u32+0x1f8>)
10001548:	00bf      	lsls	r7, r7, #2
1000154a:	430b      	orrs	r3, r1
1000154c:	21a0      	movs	r1, #160	; 0xa0
1000154e:	05c9      	lsls	r1, r1, #23
10001550:	4441      	add	r1, r8
10001552:	19d7      	adds	r7, r2, r7
10001554:	600d      	str	r5, [r1, #0]
10001556:	604f      	str	r7, [r1, #4]
10001558:	6088      	str	r0, [r1, #8]
1000155a:	60cb      	str	r3, [r1, #12]
1000155c:	2301      	movs	r3, #1
1000155e:	0031      	movs	r1, r6
10001560:	0018      	movs	r0, r3
10001562:	3118      	adds	r1, #24
10001564:	4088      	lsls	r0, r1
10001566:	40b3      	lsls	r3, r6
10001568:	6090      	str	r0, [r2, #8]
1000156a:	0001      	movs	r1, r0
1000156c:	6810      	ldr	r0, [r2, #0]
1000156e:	4303      	orrs	r3, r0
10001570:	6013      	str	r3, [r2, #0]
10001572:	6893      	ldr	r3, [r2, #8]
10001574:	420b      	tst	r3, r1
10001576:	d0fc      	beq.n	10001572 <cyw43_write_reg_u32+0x172>
10001578:	2106      	movs	r1, #6
1000157a:	2201      	movs	r2, #1
1000157c:	5661      	ldrsb	r1, [r4, r1]
1000157e:	6820      	ldr	r0, [r4, #0]
10001580:	408a      	lsls	r2, r1
10001582:	6803      	ldr	r3, [r0, #0]
10001584:	4393      	bics	r3, r2
10001586:	6003      	str	r3, [r0, #0]
10001588:	2300      	movs	r3, #0
1000158a:	2218      	movs	r2, #24
1000158c:	9300      	str	r3, [sp, #0]
1000158e:	3301      	adds	r3, #1
10001590:	f002 fb7c 	bl	10003c8c <pio_sm_set_consecutive_pindirs>
10001594:	2106      	movs	r1, #6
10001596:	5661      	ldrsb	r1, [r4, r1]
10001598:	6823      	ldr	r3, [r4, #0]
1000159a:	004a      	lsls	r2, r1, #1
1000159c:	1852      	adds	r2, r2, r1
1000159e:	00d2      	lsls	r2, r2, #3
100015a0:	189b      	adds	r3, r3, r2
100015a2:	4a16      	ldr	r2, [pc, #88]	; (100015fc <cyw43_write_reg_u32+0x1fc>)
100015a4:	33d8      	adds	r3, #216	; 0xd8
100015a6:	601a      	str	r2, [r3, #0]
100015a8:	23d0      	movs	r3, #208	; 0xd0
100015aa:	2280      	movs	r2, #128	; 0x80
100015ac:	061b      	lsls	r3, r3, #24
100015ae:	0492      	lsls	r2, r2, #18
100015b0:	615a      	str	r2, [r3, #20]
100015b2:	f7ff fa19 	bl	100009e8 <ns_delay.constprop.0>
100015b6:	2000      	movs	r0, #0
100015b8:	b004      	add	sp, #16
100015ba:	bce0      	pop	{r5, r6, r7}
100015bc:	46ba      	mov	sl, r7
100015be:	46b1      	mov	r9, r6
100015c0:	46a8      	mov	r8, r5
100015c2:	bdf0      	pop	{r4, r5, r6, r7, pc}
100015c4:	46b4      	mov	ip, r6
100015c6:	e7b8      	b.n	1000153a <cyw43_write_reg_u32+0x13a>
100015c8:	0ffff800 	.word	0x0ffff800
100015cc:	c0000004 	.word	0xc0000004
100015d0:	0000084c 	.word	0x0000084c
100015d4:	00000844 	.word	0x00000844
100015d8:	00000848 	.word	0x00000848
100015dc:	fffe007f 	.word	0xfffe007f
100015e0:	00006020 	.word	0x00006020
100015e4:	00006040 	.word	0x00006040
100015e8:	00000444 	.word	0x00000444
100015ec:	5000000c 	.word	0x5000000c
100015f0:	50200000 	.word	0x50200000
100015f4:	ff007ffd 	.word	0xff007ffd
100015f8:	00400019 	.word	0x00400019
100015fc:	0000a003 	.word	0x0000a003

10001600 <cyw43_write_reg_u16>:
10001600:	b5f0      	push	{r4, r5, r6, r7, lr}
10001602:	46d6      	mov	lr, sl
10001604:	464f      	mov	r7, r9
10001606:	4646      	mov	r6, r8
10001608:	b5c0      	push	{r6, r7, lr}
1000160a:	4c6f      	ldr	r4, [pc, #444]	; (100017c8 <cyw43_write_reg_u16+0x1c8>)
1000160c:	02d2      	lsls	r2, r2, #11
1000160e:	4022      	ands	r2, r4
10001610:	070c      	lsls	r4, r1, #28
10001612:	4322      	orrs	r2, r4
10001614:	4c6d      	ldr	r4, [pc, #436]	; (100017cc <cyw43_write_reg_u16+0x1cc>)
10001616:	b084      	sub	sp, #16
10001618:	4322      	orrs	r2, r4
1000161a:	ad02      	add	r5, sp, #8
1000161c:	9202      	str	r2, [sp, #8]
1000161e:	606b      	str	r3, [r5, #4]
10001620:	2901      	cmp	r1, #1
10001622:	d10a      	bne.n	1000163a <cyw43_write_reg_u16+0x3a>
10001624:	2408      	movs	r4, #8
10001626:	496a      	ldr	r1, [pc, #424]	; (100017d0 <cyw43_write_reg_u16+0x1d0>)
10001628:	5044      	str	r4, [r0, r1]
1000162a:	496a      	ldr	r1, [pc, #424]	; (100017d4 <cyw43_write_reg_u16+0x1d4>)
1000162c:	5042      	str	r2, [r0, r1]
1000162e:	4a6a      	ldr	r2, [pc, #424]	; (100017d8 <cyw43_write_reg_u16+0x1d8>)
10001630:	5083      	str	r3, [r0, r2]
10001632:	2385      	movs	r3, #133	; 0x85
10001634:	6882      	ldr	r2, [r0, #8]
10001636:	011b      	lsls	r3, r3, #4
10001638:	50c2      	str	r2, [r0, r3]
1000163a:	2384      	movs	r3, #132	; 0x84
1000163c:	011b      	lsls	r3, r3, #4
1000163e:	58c4      	ldr	r4, [r0, r3]
10001640:	2018      	movs	r0, #24
10001642:	7921      	ldrb	r1, [r4, #4]
10001644:	f002 fb7a 	bl	10003d3c <gpio_set_function>
10001648:	201d      	movs	r0, #29
1000164a:	7921      	ldrb	r1, [r4, #4]
1000164c:	f002 fb76 	bl	10003d3c <gpio_set_function>
10001650:	2201      	movs	r2, #1
10001652:	2100      	movs	r1, #0
10001654:	201d      	movs	r0, #29
10001656:	f002 fb89 	bl	10003d6c <gpio_set_pulls>
1000165a:	23d0      	movs	r3, #208	; 0xd0
1000165c:	2280      	movs	r2, #128	; 0x80
1000165e:	2106      	movs	r1, #6
10001660:	061b      	lsls	r3, r3, #24
10001662:	0492      	lsls	r2, r2, #18
10001664:	619a      	str	r2, [r3, #24]
10001666:	2201      	movs	r2, #1
10001668:	5661      	ldrsb	r1, [r4, r1]
1000166a:	4690      	mov	r8, r2
1000166c:	408a      	lsls	r2, r1
1000166e:	6820      	ldr	r0, [r4, #0]
10001670:	4e5a      	ldr	r6, [pc, #360]	; (100017dc <cyw43_write_reg_u16+0x1dc>)
10001672:	6803      	ldr	r3, [r0, #0]
10001674:	4393      	bics	r3, r2
10001676:	6003      	str	r3, [r0, #0]
10001678:	2305      	movs	r3, #5
1000167a:	56e3      	ldrsb	r3, [r4, r3]
1000167c:	469c      	mov	ip, r3
1000167e:	004b      	lsls	r3, r1, #1
10001680:	185b      	adds	r3, r3, r1
10001682:	00db      	lsls	r3, r3, #3
10001684:	18c7      	adds	r7, r0, r3
10001686:	37cc      	adds	r7, #204	; 0xcc
10001688:	683a      	ldr	r2, [r7, #0]
1000168a:	33d0      	adds	r3, #208	; 0xd0
1000168c:	4691      	mov	r9, r2
1000168e:	4662      	mov	r2, ip
10001690:	3201      	adds	r2, #1
10001692:	0312      	lsls	r2, r2, #12
10001694:	4692      	mov	sl, r2
10001696:	464a      	mov	r2, r9
10001698:	4016      	ands	r6, r2
1000169a:	4652      	mov	r2, sl
1000169c:	4332      	orrs	r2, r6
1000169e:	4666      	mov	r6, ip
100016a0:	01f6      	lsls	r6, r6, #7
100016a2:	4332      	orrs	r2, r6
100016a4:	603a      	str	r2, [r7, #0]
100016a6:	2280      	movs	r2, #128	; 0x80
100016a8:	18c3      	adds	r3, r0, r3
100016aa:	0152      	lsls	r2, r2, #5
100016ac:	4313      	orrs	r3, r2
100016ae:	2280      	movs	r2, #128	; 0x80
100016b0:	0612      	lsls	r2, r2, #24
100016b2:	601a      	str	r2, [r3, #0]
100016b4:	601a      	str	r2, [r3, #0]
100016b6:	2380      	movs	r3, #128	; 0x80
100016b8:	2606      	movs	r6, #6
100016ba:	045b      	lsls	r3, r3, #17
100016bc:	001a      	movs	r2, r3
100016be:	f002 fa93 	bl	10003be8 <pio_sm_set_pindirs_with_mask>
100016c2:	4641      	mov	r1, r8
100016c4:	57a6      	ldrsb	r6, [r4, r6]
100016c6:	2380      	movs	r3, #128	; 0x80
100016c8:	1d37      	adds	r7, r6, #4
100016ca:	40b9      	lsls	r1, r7
100016cc:	6822      	ldr	r2, [r4, #0]
100016ce:	019b      	lsls	r3, r3, #6
100016d0:	4313      	orrs	r3, r2
100016d2:	6019      	str	r1, [r3, #0]
100016d4:	2108      	movs	r1, #8
100016d6:	468c      	mov	ip, r1
100016d8:	44b4      	add	ip, r6
100016da:	4641      	mov	r1, r8
100016dc:	4660      	mov	r0, ip
100016de:	4081      	lsls	r1, r0
100016e0:	6019      	str	r1, [r3, #0]
100016e2:	233f      	movs	r3, #63	; 0x3f
100016e4:	00b1      	lsls	r1, r6, #2
100016e6:	1851      	adds	r1, r2, r1
100016e8:	610b      	str	r3, [r1, #16]
100016ea:	0073      	lsls	r3, r6, #1
100016ec:	199b      	adds	r3, r3, r6
100016ee:	00db      	lsls	r3, r3, #3
100016f0:	483b      	ldr	r0, [pc, #236]	; (100017e0 <cyw43_write_reg_u16+0x1e0>)
100016f2:	18d3      	adds	r3, r2, r3
100016f4:	33d8      	adds	r3, #216	; 0xd8
100016f6:	6018      	str	r0, [r3, #0]
100016f8:	2000      	movs	r0, #0
100016fa:	6108      	str	r0, [r1, #16]
100016fc:	4939      	ldr	r1, [pc, #228]	; (100017e4 <cyw43_write_reg_u16+0x1e4>)
100016fe:	6019      	str	r1, [r3, #0]
10001700:	211f      	movs	r1, #31
10001702:	7960      	ldrb	r0, [r4, #5]
10001704:	4001      	ands	r1, r0
10001706:	6019      	str	r1, [r3, #0]
10001708:	2307      	movs	r3, #7
1000170a:	56e3      	ldrsb	r3, [r4, r3]
1000170c:	20a0      	movs	r0, #160	; 0xa0
1000170e:	4699      	mov	r9, r3
10001710:	4643      	mov	r3, r8
10001712:	4649      	mov	r1, r9
10001714:	408b      	lsls	r3, r1
10001716:	4934      	ldr	r1, [pc, #208]	; (100017e8 <cyw43_write_reg_u16+0x1e8>)
10001718:	05c0      	lsls	r0, r0, #23
1000171a:	5043      	str	r3, [r0, r1]
1000171c:	464b      	mov	r3, r9
1000171e:	019b      	lsls	r3, r3, #6
10001720:	4698      	mov	r8, r3
10001722:	2180      	movs	r1, #128	; 0x80
10001724:	4831      	ldr	r0, [pc, #196]	; (100017ec <cyw43_write_reg_u16+0x1ec>)
10001726:	0449      	lsls	r1, r1, #17
10001728:	4440      	add	r0, r8
1000172a:	6803      	ldr	r3, [r0, #0]
1000172c:	420b      	tst	r3, r1
1000172e:	d1fc      	bne.n	1000172a <cyw43_write_reg_u16+0x12a>
10001730:	464b      	mov	r3, r9
10001732:	492f      	ldr	r1, [pc, #188]	; (100017f0 <cyw43_write_reg_u16+0x1f0>)
10001734:	02db      	lsls	r3, r3, #11
10001736:	428a      	cmp	r2, r1
10001738:	d044      	beq.n	100017c4 <cyw43_write_reg_u16+0x1c4>
1000173a:	492e      	ldr	r1, [pc, #184]	; (100017f4 <cyw43_write_reg_u16+0x1f4>)
1000173c:	2002      	movs	r0, #2
1000173e:	400b      	ands	r3, r1
10001740:	4661      	mov	r1, ip
10001742:	03c9      	lsls	r1, r1, #15
10001744:	430b      	orrs	r3, r1
10001746:	492c      	ldr	r1, [pc, #176]	; (100017f8 <cyw43_write_reg_u16+0x1f8>)
10001748:	00bf      	lsls	r7, r7, #2
1000174a:	430b      	orrs	r3, r1
1000174c:	21a0      	movs	r1, #160	; 0xa0
1000174e:	05c9      	lsls	r1, r1, #23
10001750:	4441      	add	r1, r8
10001752:	19d7      	adds	r7, r2, r7
10001754:	600d      	str	r5, [r1, #0]
10001756:	604f      	str	r7, [r1, #4]
10001758:	6088      	str	r0, [r1, #8]
1000175a:	60cb      	str	r3, [r1, #12]
1000175c:	2301      	movs	r3, #1
1000175e:	0031      	movs	r1, r6
10001760:	0018      	movs	r0, r3
10001762:	3118      	adds	r1, #24
10001764:	4088      	lsls	r0, r1
10001766:	40b3      	lsls	r3, r6
10001768:	6090      	str	r0, [r2, #8]
1000176a:	0001      	movs	r1, r0
1000176c:	6810      	ldr	r0, [r2, #0]
1000176e:	4303      	orrs	r3, r0
10001770:	6013      	str	r3, [r2, #0]
10001772:	6893      	ldr	r3, [r2, #8]
10001774:	420b      	tst	r3, r1
10001776:	d0fc      	beq.n	10001772 <cyw43_write_reg_u16+0x172>
10001778:	2106      	movs	r1, #6
1000177a:	2201      	movs	r2, #1
1000177c:	5661      	ldrsb	r1, [r4, r1]
1000177e:	6820      	ldr	r0, [r4, #0]
10001780:	408a      	lsls	r2, r1
10001782:	6803      	ldr	r3, [r0, #0]
10001784:	4393      	bics	r3, r2
10001786:	6003      	str	r3, [r0, #0]
10001788:	2300      	movs	r3, #0
1000178a:	2218      	movs	r2, #24
1000178c:	9300      	str	r3, [sp, #0]
1000178e:	3301      	adds	r3, #1
10001790:	f002 fa7c 	bl	10003c8c <pio_sm_set_consecutive_pindirs>
10001794:	2106      	movs	r1, #6
10001796:	5661      	ldrsb	r1, [r4, r1]
10001798:	6823      	ldr	r3, [r4, #0]
1000179a:	004a      	lsls	r2, r1, #1
1000179c:	1852      	adds	r2, r2, r1
1000179e:	00d2      	lsls	r2, r2, #3
100017a0:	189b      	adds	r3, r3, r2
100017a2:	4a16      	ldr	r2, [pc, #88]	; (100017fc <cyw43_write_reg_u16+0x1fc>)
100017a4:	33d8      	adds	r3, #216	; 0xd8
100017a6:	601a      	str	r2, [r3, #0]
100017a8:	23d0      	movs	r3, #208	; 0xd0
100017aa:	2280      	movs	r2, #128	; 0x80
100017ac:	061b      	lsls	r3, r3, #24
100017ae:	0492      	lsls	r2, r2, #18
100017b0:	615a      	str	r2, [r3, #20]
100017b2:	f7ff f919 	bl	100009e8 <ns_delay.constprop.0>
100017b6:	2000      	movs	r0, #0
100017b8:	b004      	add	sp, #16
100017ba:	bce0      	pop	{r5, r6, r7}
100017bc:	46ba      	mov	sl, r7
100017be:	46b1      	mov	r9, r6
100017c0:	46a8      	mov	r8, r5
100017c2:	bdf0      	pop	{r4, r5, r6, r7, pc}
100017c4:	46b4      	mov	ip, r6
100017c6:	e7b8      	b.n	1000173a <cyw43_write_reg_u16+0x13a>
100017c8:	0ffff800 	.word	0x0ffff800
100017cc:	c0000002 	.word	0xc0000002
100017d0:	0000084c 	.word	0x0000084c
100017d4:	00000844 	.word	0x00000844
100017d8:	00000848 	.word	0x00000848
100017dc:	fffe007f 	.word	0xfffe007f
100017e0:	00006020 	.word	0x00006020
100017e4:	00006040 	.word	0x00006040
100017e8:	00000444 	.word	0x00000444
100017ec:	5000000c 	.word	0x5000000c
100017f0:	50200000 	.word	0x50200000
100017f4:	ff007ffd 	.word	0xff007ffd
100017f8:	00400019 	.word	0x00400019
100017fc:	0000a003 	.word	0x0000a003

10001800 <cyw43_write_reg_u8>:
10001800:	b5f0      	push	{r4, r5, r6, r7, lr}
10001802:	46d6      	mov	lr, sl
10001804:	464f      	mov	r7, r9
10001806:	4646      	mov	r6, r8
10001808:	b5c0      	push	{r6, r7, lr}
1000180a:	4c6f      	ldr	r4, [pc, #444]	; (100019c8 <cyw43_write_reg_u8+0x1c8>)
1000180c:	02d2      	lsls	r2, r2, #11
1000180e:	4022      	ands	r2, r4
10001810:	070c      	lsls	r4, r1, #28
10001812:	4322      	orrs	r2, r4
10001814:	4c6d      	ldr	r4, [pc, #436]	; (100019cc <cyw43_write_reg_u8+0x1cc>)
10001816:	b084      	sub	sp, #16
10001818:	4322      	orrs	r2, r4
1000181a:	ad02      	add	r5, sp, #8
1000181c:	9202      	str	r2, [sp, #8]
1000181e:	606b      	str	r3, [r5, #4]
10001820:	2901      	cmp	r1, #1
10001822:	d10a      	bne.n	1000183a <cyw43_write_reg_u8+0x3a>
10001824:	2408      	movs	r4, #8
10001826:	496a      	ldr	r1, [pc, #424]	; (100019d0 <cyw43_write_reg_u8+0x1d0>)
10001828:	5044      	str	r4, [r0, r1]
1000182a:	496a      	ldr	r1, [pc, #424]	; (100019d4 <cyw43_write_reg_u8+0x1d4>)
1000182c:	5042      	str	r2, [r0, r1]
1000182e:	4a6a      	ldr	r2, [pc, #424]	; (100019d8 <cyw43_write_reg_u8+0x1d8>)
10001830:	5083      	str	r3, [r0, r2]
10001832:	2385      	movs	r3, #133	; 0x85
10001834:	6882      	ldr	r2, [r0, #8]
10001836:	011b      	lsls	r3, r3, #4
10001838:	50c2      	str	r2, [r0, r3]
1000183a:	2384      	movs	r3, #132	; 0x84
1000183c:	011b      	lsls	r3, r3, #4
1000183e:	58c4      	ldr	r4, [r0, r3]
10001840:	2018      	movs	r0, #24
10001842:	7921      	ldrb	r1, [r4, #4]
10001844:	f002 fa7a 	bl	10003d3c <gpio_set_function>
10001848:	201d      	movs	r0, #29
1000184a:	7921      	ldrb	r1, [r4, #4]
1000184c:	f002 fa76 	bl	10003d3c <gpio_set_function>
10001850:	2201      	movs	r2, #1
10001852:	2100      	movs	r1, #0
10001854:	201d      	movs	r0, #29
10001856:	f002 fa89 	bl	10003d6c <gpio_set_pulls>
1000185a:	23d0      	movs	r3, #208	; 0xd0
1000185c:	2280      	movs	r2, #128	; 0x80
1000185e:	2106      	movs	r1, #6
10001860:	061b      	lsls	r3, r3, #24
10001862:	0492      	lsls	r2, r2, #18
10001864:	619a      	str	r2, [r3, #24]
10001866:	2201      	movs	r2, #1
10001868:	5661      	ldrsb	r1, [r4, r1]
1000186a:	4690      	mov	r8, r2
1000186c:	408a      	lsls	r2, r1
1000186e:	6820      	ldr	r0, [r4, #0]
10001870:	4e5a      	ldr	r6, [pc, #360]	; (100019dc <cyw43_write_reg_u8+0x1dc>)
10001872:	6803      	ldr	r3, [r0, #0]
10001874:	4393      	bics	r3, r2
10001876:	6003      	str	r3, [r0, #0]
10001878:	2305      	movs	r3, #5
1000187a:	56e3      	ldrsb	r3, [r4, r3]
1000187c:	469c      	mov	ip, r3
1000187e:	004b      	lsls	r3, r1, #1
10001880:	185b      	adds	r3, r3, r1
10001882:	00db      	lsls	r3, r3, #3
10001884:	18c7      	adds	r7, r0, r3
10001886:	37cc      	adds	r7, #204	; 0xcc
10001888:	683a      	ldr	r2, [r7, #0]
1000188a:	33d0      	adds	r3, #208	; 0xd0
1000188c:	4691      	mov	r9, r2
1000188e:	4662      	mov	r2, ip
10001890:	3201      	adds	r2, #1
10001892:	0312      	lsls	r2, r2, #12
10001894:	4692      	mov	sl, r2
10001896:	464a      	mov	r2, r9
10001898:	4016      	ands	r6, r2
1000189a:	4652      	mov	r2, sl
1000189c:	4332      	orrs	r2, r6
1000189e:	4666      	mov	r6, ip
100018a0:	01f6      	lsls	r6, r6, #7
100018a2:	4332      	orrs	r2, r6
100018a4:	603a      	str	r2, [r7, #0]
100018a6:	2280      	movs	r2, #128	; 0x80
100018a8:	18c3      	adds	r3, r0, r3
100018aa:	0152      	lsls	r2, r2, #5
100018ac:	4313      	orrs	r3, r2
100018ae:	2280      	movs	r2, #128	; 0x80
100018b0:	0612      	lsls	r2, r2, #24
100018b2:	601a      	str	r2, [r3, #0]
100018b4:	601a      	str	r2, [r3, #0]
100018b6:	2380      	movs	r3, #128	; 0x80
100018b8:	2606      	movs	r6, #6
100018ba:	045b      	lsls	r3, r3, #17
100018bc:	001a      	movs	r2, r3
100018be:	f002 f993 	bl	10003be8 <pio_sm_set_pindirs_with_mask>
100018c2:	4641      	mov	r1, r8
100018c4:	57a6      	ldrsb	r6, [r4, r6]
100018c6:	2380      	movs	r3, #128	; 0x80
100018c8:	1d37      	adds	r7, r6, #4
100018ca:	40b9      	lsls	r1, r7
100018cc:	6822      	ldr	r2, [r4, #0]
100018ce:	019b      	lsls	r3, r3, #6
100018d0:	4313      	orrs	r3, r2
100018d2:	6019      	str	r1, [r3, #0]
100018d4:	2108      	movs	r1, #8
100018d6:	468c      	mov	ip, r1
100018d8:	44b4      	add	ip, r6
100018da:	4641      	mov	r1, r8
100018dc:	4660      	mov	r0, ip
100018de:	4081      	lsls	r1, r0
100018e0:	6019      	str	r1, [r3, #0]
100018e2:	233f      	movs	r3, #63	; 0x3f
100018e4:	00b1      	lsls	r1, r6, #2
100018e6:	1851      	adds	r1, r2, r1
100018e8:	610b      	str	r3, [r1, #16]
100018ea:	0073      	lsls	r3, r6, #1
100018ec:	199b      	adds	r3, r3, r6
100018ee:	00db      	lsls	r3, r3, #3
100018f0:	483b      	ldr	r0, [pc, #236]	; (100019e0 <cyw43_write_reg_u8+0x1e0>)
100018f2:	18d3      	adds	r3, r2, r3
100018f4:	33d8      	adds	r3, #216	; 0xd8
100018f6:	6018      	str	r0, [r3, #0]
100018f8:	2000      	movs	r0, #0
100018fa:	6108      	str	r0, [r1, #16]
100018fc:	4939      	ldr	r1, [pc, #228]	; (100019e4 <cyw43_write_reg_u8+0x1e4>)
100018fe:	6019      	str	r1, [r3, #0]
10001900:	211f      	movs	r1, #31
10001902:	7960      	ldrb	r0, [r4, #5]
10001904:	4001      	ands	r1, r0
10001906:	6019      	str	r1, [r3, #0]
10001908:	2307      	movs	r3, #7
1000190a:	56e3      	ldrsb	r3, [r4, r3]
1000190c:	20a0      	movs	r0, #160	; 0xa0
1000190e:	4699      	mov	r9, r3
10001910:	4643      	mov	r3, r8
10001912:	4649      	mov	r1, r9
10001914:	408b      	lsls	r3, r1
10001916:	4934      	ldr	r1, [pc, #208]	; (100019e8 <cyw43_write_reg_u8+0x1e8>)
10001918:	05c0      	lsls	r0, r0, #23
1000191a:	5043      	str	r3, [r0, r1]
1000191c:	464b      	mov	r3, r9
1000191e:	019b      	lsls	r3, r3, #6
10001920:	4698      	mov	r8, r3
10001922:	2180      	movs	r1, #128	; 0x80
10001924:	4831      	ldr	r0, [pc, #196]	; (100019ec <cyw43_write_reg_u8+0x1ec>)
10001926:	0449      	lsls	r1, r1, #17
10001928:	4440      	add	r0, r8
1000192a:	6803      	ldr	r3, [r0, #0]
1000192c:	420b      	tst	r3, r1
1000192e:	d1fc      	bne.n	1000192a <cyw43_write_reg_u8+0x12a>
10001930:	464b      	mov	r3, r9
10001932:	492f      	ldr	r1, [pc, #188]	; (100019f0 <cyw43_write_reg_u8+0x1f0>)
10001934:	02db      	lsls	r3, r3, #11
10001936:	428a      	cmp	r2, r1
10001938:	d044      	beq.n	100019c4 <cyw43_write_reg_u8+0x1c4>
1000193a:	492e      	ldr	r1, [pc, #184]	; (100019f4 <cyw43_write_reg_u8+0x1f4>)
1000193c:	2002      	movs	r0, #2
1000193e:	400b      	ands	r3, r1
10001940:	4661      	mov	r1, ip
10001942:	03c9      	lsls	r1, r1, #15
10001944:	430b      	orrs	r3, r1
10001946:	492c      	ldr	r1, [pc, #176]	; (100019f8 <cyw43_write_reg_u8+0x1f8>)
10001948:	00bf      	lsls	r7, r7, #2
1000194a:	430b      	orrs	r3, r1
1000194c:	21a0      	movs	r1, #160	; 0xa0
1000194e:	05c9      	lsls	r1, r1, #23
10001950:	4441      	add	r1, r8
10001952:	19d7      	adds	r7, r2, r7
10001954:	600d      	str	r5, [r1, #0]
10001956:	604f      	str	r7, [r1, #4]
10001958:	6088      	str	r0, [r1, #8]
1000195a:	60cb      	str	r3, [r1, #12]
1000195c:	2301      	movs	r3, #1
1000195e:	0031      	movs	r1, r6
10001960:	0018      	movs	r0, r3
10001962:	3118      	adds	r1, #24
10001964:	4088      	lsls	r0, r1
10001966:	40b3      	lsls	r3, r6
10001968:	6090      	str	r0, [r2, #8]
1000196a:	0001      	movs	r1, r0
1000196c:	6810      	ldr	r0, [r2, #0]
1000196e:	4303      	orrs	r3, r0
10001970:	6013      	str	r3, [r2, #0]
10001972:	6893      	ldr	r3, [r2, #8]
10001974:	420b      	tst	r3, r1
10001976:	d0fc      	beq.n	10001972 <cyw43_write_reg_u8+0x172>
10001978:	2106      	movs	r1, #6
1000197a:	2201      	movs	r2, #1
1000197c:	5661      	ldrsb	r1, [r4, r1]
1000197e:	6820      	ldr	r0, [r4, #0]
10001980:	408a      	lsls	r2, r1
10001982:	6803      	ldr	r3, [r0, #0]
10001984:	4393      	bics	r3, r2
10001986:	6003      	str	r3, [r0, #0]
10001988:	2300      	movs	r3, #0
1000198a:	2218      	movs	r2, #24
1000198c:	9300      	str	r3, [sp, #0]
1000198e:	3301      	adds	r3, #1
10001990:	f002 f97c 	bl	10003c8c <pio_sm_set_consecutive_pindirs>
10001994:	2106      	movs	r1, #6
10001996:	5661      	ldrsb	r1, [r4, r1]
10001998:	6823      	ldr	r3, [r4, #0]
1000199a:	004a      	lsls	r2, r1, #1
1000199c:	1852      	adds	r2, r2, r1
1000199e:	00d2      	lsls	r2, r2, #3
100019a0:	189b      	adds	r3, r3, r2
100019a2:	4a16      	ldr	r2, [pc, #88]	; (100019fc <cyw43_write_reg_u8+0x1fc>)
100019a4:	33d8      	adds	r3, #216	; 0xd8
100019a6:	601a      	str	r2, [r3, #0]
100019a8:	23d0      	movs	r3, #208	; 0xd0
100019aa:	2280      	movs	r2, #128	; 0x80
100019ac:	061b      	lsls	r3, r3, #24
100019ae:	0492      	lsls	r2, r2, #18
100019b0:	615a      	str	r2, [r3, #20]
100019b2:	f7ff f819 	bl	100009e8 <ns_delay.constprop.0>
100019b6:	2000      	movs	r0, #0
100019b8:	b004      	add	sp, #16
100019ba:	bce0      	pop	{r5, r6, r7}
100019bc:	46ba      	mov	sl, r7
100019be:	46b1      	mov	r9, r6
100019c0:	46a8      	mov	r8, r5
100019c2:	bdf0      	pop	{r4, r5, r6, r7, pc}
100019c4:	46b4      	mov	ip, r6
100019c6:	e7b8      	b.n	1000193a <cyw43_write_reg_u8+0x13a>
100019c8:	0ffff800 	.word	0x0ffff800
100019cc:	c0000001 	.word	0xc0000001
100019d0:	0000084c 	.word	0x0000084c
100019d4:	00000844 	.word	0x00000844
100019d8:	00000848 	.word	0x00000848
100019dc:	fffe007f 	.word	0xfffe007f
100019e0:	00006020 	.word	0x00006020
100019e4:	00006040 	.word	0x00006040
100019e8:	00000444 	.word	0x00000444
100019ec:	5000000c 	.word	0x5000000c
100019f0:	50200000 	.word	0x50200000
100019f4:	ff007ffd 	.word	0xff007ffd
100019f8:	00400019 	.word	0x00400019
100019fc:	0000a003 	.word	0x0000a003

10001a00 <cyw43_read_bytes>:
10001a00:	b5f0      	push	{r4, r5, r6, r7, lr}
10001a02:	46c6      	mov	lr, r8
10001a04:	b500      	push	{lr}
10001a06:	0004      	movs	r4, r0
10001a08:	001d      	movs	r5, r3
10001a0a:	b082      	sub	sp, #8
10001a0c:	2901      	cmp	r1, #1
10001a0e:	d02e      	beq.n	10001a6e <cyw43_read_bytes+0x6e>
10001a10:	001f      	movs	r7, r3
10001a12:	2318      	movs	r3, #24
10001a14:	2001      	movs	r0, #1
10001a16:	4698      	mov	r8, r3
10001a18:	2600      	movs	r6, #0
10001a1a:	4b1a      	ldr	r3, [pc, #104]	; (10001a84 <cyw43_read_bytes+0x84>)
10001a1c:	02d2      	lsls	r2, r2, #11
10001a1e:	401a      	ands	r2, r3
10001a20:	0709      	lsls	r1, r1, #28
10001a22:	433a      	orrs	r2, r7
10001a24:	430a      	orrs	r2, r1
10001a26:	2180      	movs	r1, #128	; 0x80
10001a28:	3004      	adds	r0, #4
10001a2a:	05c9      	lsls	r1, r1, #23
10001a2c:	0080      	lsls	r0, r0, #2
10001a2e:	430a      	orrs	r2, r1
10001a30:	1820      	adds	r0, r4, r0
10001a32:	6042      	str	r2, [r0, #4]
10001a34:	2203      	movs	r2, #3
10001a36:	4643      	mov	r3, r8
10001a38:	1ce9      	adds	r1, r5, #3
10001a3a:	4391      	bics	r1, r2
10001a3c:	3104      	adds	r1, #4
10001a3e:	1989      	adds	r1, r1, r6
10001a40:	9100      	str	r1, [sp, #0]
10001a42:	0020      	movs	r0, r4
10001a44:	2100      	movs	r1, #0
10001a46:	18e3      	adds	r3, r4, r3
10001a48:	3201      	adds	r2, #1
10001a4a:	f7ff f8f3 	bl	10000c34 <cyw43_spi_transfer>
10001a4e:	1e06      	subs	r6, r0, #0
10001a50:	d113      	bne.n	10001a7a <cyw43_read_bytes+0x7a>
10001a52:	0021      	movs	r1, r4
10001a54:	9b08      	ldr	r3, [sp, #32]
10001a56:	311c      	adds	r1, #28
10001a58:	4299      	cmp	r1, r3
10001a5a:	d003      	beq.n	10001a64 <cyw43_read_bytes+0x64>
10001a5c:	002a      	movs	r2, r5
10001a5e:	0018      	movs	r0, r3
10001a60:	f006 fa44 	bl	10007eec <__wrap___aeabi_memcpy>
10001a64:	0030      	movs	r0, r6
10001a66:	b002      	add	sp, #8
10001a68:	bc80      	pop	{r7}
10001a6a:	46b8      	mov	r8, r7
10001a6c:	bdf0      	pop	{r4, r5, r6, r7, pc}
10001a6e:	1d1f      	adds	r7, r3, #4
10001a70:	2314      	movs	r3, #20
10001a72:	2000      	movs	r0, #0
10001a74:	4698      	mov	r8, r3
10001a76:	2604      	movs	r6, #4
10001a78:	e7cf      	b.n	10001a1a <cyw43_read_bytes+0x1a>
10001a7a:	0001      	movs	r1, r0
10001a7c:	4802      	ldr	r0, [pc, #8]	; (10001a88 <cyw43_read_bytes+0x88>)
10001a7e:	f006 fc3b 	bl	100082f8 <__wrap_printf>
10001a82:	e7ef      	b.n	10001a64 <cyw43_read_bytes+0x64>
10001a84:	0ffff800 	.word	0x0ffff800
10001a88:	1000a8a0 	.word	0x1000a8a0

10001a8c <cyw43_write_bytes>:
10001a8c:	b5f0      	push	{r4, r5, r6, r7, lr}
10001a8e:	464e      	mov	r6, r9
10001a90:	4645      	mov	r5, r8
10001a92:	46de      	mov	lr, fp
10001a94:	4657      	mov	r7, sl
10001a96:	4691      	mov	r9, r2
10001a98:	4698      	mov	r8, r3
10001a9a:	1cda      	adds	r2, r3, #3
10001a9c:	2303      	movs	r3, #3
10001a9e:	b5e0      	push	{r5, r6, r7, lr}
10001aa0:	439a      	bics	r2, r3
10001aa2:	b089      	sub	sp, #36	; 0x24
10001aa4:	0005      	movs	r5, r0
10001aa6:	000e      	movs	r6, r1
10001aa8:	9203      	str	r2, [sp, #12]
10001aaa:	2902      	cmp	r1, #2
10001aac:	d024      	beq.n	10001af8 <cyw43_write_bytes+0x6c>
10001aae:	0028      	movs	r0, r5
10001ab0:	9b12      	ldr	r3, [sp, #72]	; 0x48
10001ab2:	301c      	adds	r0, #28
10001ab4:	4298      	cmp	r0, r3
10001ab6:	d03f      	beq.n	10001b38 <cyw43_write_bytes+0xac>
10001ab8:	0019      	movs	r1, r3
10001aba:	4643      	mov	r3, r8
10001abc:	0736      	lsls	r6, r6, #28
10001abe:	431e      	orrs	r6, r3
10001ac0:	464b      	mov	r3, r9
10001ac2:	4a24      	ldr	r2, [pc, #144]	; (10001b54 <cyw43_write_bytes+0xc8>)
10001ac4:	02df      	lsls	r7, r3, #11
10001ac6:	4017      	ands	r7, r2
10001ac8:	433e      	orrs	r6, r7
10001aca:	27c0      	movs	r7, #192	; 0xc0
10001acc:	063f      	lsls	r7, r7, #24
10001ace:	433e      	orrs	r6, r7
10001ad0:	4642      	mov	r2, r8
10001ad2:	61ae      	str	r6, [r5, #24]
10001ad4:	f006 fa0a 	bl	10007eec <__wrap___aeabi_memcpy>
10001ad8:	0029      	movs	r1, r5
10001ada:	2300      	movs	r3, #0
10001adc:	9a03      	ldr	r2, [sp, #12]
10001ade:	0028      	movs	r0, r5
10001ae0:	3204      	adds	r2, #4
10001ae2:	3118      	adds	r1, #24
10001ae4:	9300      	str	r3, [sp, #0]
10001ae6:	f7ff f8a5 	bl	10000c34 <cyw43_spi_transfer>
10001aea:	b009      	add	sp, #36	; 0x24
10001aec:	bcf0      	pop	{r4, r5, r6, r7}
10001aee:	46bb      	mov	fp, r7
10001af0:	46b2      	mov	sl, r6
10001af2:	46a9      	mov	r9, r5
10001af4:	46a0      	mov	r8, r4
10001af6:	bdf0      	pop	{r4, r5, r6, r7, pc}
10001af8:	4b17      	ldr	r3, [pc, #92]	; (10001b58 <cyw43_write_bytes+0xcc>)
10001afa:	2720      	movs	r7, #32
10001afc:	469b      	mov	fp, r3
10001afe:	2308      	movs	r3, #8
10001b00:	4c16      	ldr	r4, [pc, #88]	; (10001b5c <cyw43_write_bytes+0xd0>)
10001b02:	469a      	mov	sl, r3
10001b04:	e001      	b.n	10001b0a <cyw43_write_bytes+0x7e>
10001b06:	3c01      	subs	r4, #1
10001b08:	d310      	bcc.n	10001b2c <cyw43_write_bytes+0xa0>
10001b0a:	465b      	mov	r3, fp
10001b0c:	9305      	str	r3, [sp, #20]
10001b0e:	4653      	mov	r3, sl
10001b10:	2204      	movs	r2, #4
10001b12:	9300      	str	r3, [sp, #0]
10001b14:	2100      	movs	r1, #0
10001b16:	0028      	movs	r0, r5
10001b18:	ab05      	add	r3, sp, #20
10001b1a:	f7ff f88b 	bl	10000c34 <cyw43_spi_transfer>
10001b1e:	2800      	cmp	r0, #0
10001b20:	d100      	bne.n	10001b24 <cyw43_write_bytes+0x98>
10001b22:	9806      	ldr	r0, [sp, #24]
10001b24:	4207      	tst	r7, r0
10001b26:	d0ee      	beq.n	10001b06 <cyw43_write_bytes+0x7a>
10001b28:	2c00      	cmp	r4, #0
10001b2a:	d1c0      	bne.n	10001aae <cyw43_write_bytes+0x22>
10001b2c:	480c      	ldr	r0, [pc, #48]	; (10001b60 <cyw43_write_bytes+0xd4>)
10001b2e:	f006 fb41 	bl	100081b4 <__wrap_puts>
10001b32:	2006      	movs	r0, #6
10001b34:	4240      	negs	r0, r0
10001b36:	e7d8      	b.n	10001aea <cyw43_write_bytes+0x5e>
10001b38:	464b      	mov	r3, r9
10001b3a:	02df      	lsls	r7, r3, #11
10001b3c:	4643      	mov	r3, r8
10001b3e:	4a05      	ldr	r2, [pc, #20]	; (10001b54 <cyw43_write_bytes+0xc8>)
10001b40:	0736      	lsls	r6, r6, #28
10001b42:	4017      	ands	r7, r2
10001b44:	431e      	orrs	r6, r3
10001b46:	433e      	orrs	r6, r7
10001b48:	27c0      	movs	r7, #192	; 0xc0
10001b4a:	063f      	lsls	r7, r7, #24
10001b4c:	433e      	orrs	r6, r7
10001b4e:	61ae      	str	r6, [r5, #24]
10001b50:	e7c2      	b.n	10001ad8 <cyw43_write_bytes+0x4c>
10001b52:	46c0      	nop			; (mov r8, r8)
10001b54:	0ffff800 	.word	0x0ffff800
10001b58:	40004004 	.word	0x40004004
10001b5c:	000003e7 	.word	0x000003e7
10001b60:	1000aabc 	.word	0x1000aabc

10001b64 <cyw43_set_backplane_window>:
10001b64:	6883      	ldr	r3, [r0, #8]
10001b66:	b570      	push	{r4, r5, r6, lr}
10001b68:	0bcc      	lsrs	r4, r1, #15
10001b6a:	0005      	movs	r5, r0
10001b6c:	03e4      	lsls	r4, r4, #15
10001b6e:	42a3      	cmp	r3, r4
10001b70:	d00b      	beq.n	10001b8a <cyw43_set_backplane_window+0x26>
10001b72:	4063      	eors	r3, r4
10001b74:	0e1a      	lsrs	r2, r3, #24
10001b76:	d119      	bne.n	10001bac <cyw43_set_backplane_window+0x48>
10001b78:	22ff      	movs	r2, #255	; 0xff
10001b7a:	0412      	lsls	r2, r2, #16
10001b7c:	4213      	tst	r3, r2
10001b7e:	d10c      	bne.n	10001b9a <cyw43_set_backplane_window+0x36>
10001b80:	22ff      	movs	r2, #255	; 0xff
10001b82:	0212      	lsls	r2, r2, #8
10001b84:	4213      	tst	r3, r2
10001b86:	d101      	bne.n	10001b8c <cyw43_set_backplane_window+0x28>
10001b88:	60ac      	str	r4, [r5, #8]
10001b8a:	bd70      	pop	{r4, r5, r6, pc}
10001b8c:	2101      	movs	r1, #1
10001b8e:	0028      	movs	r0, r5
10001b90:	4a0a      	ldr	r2, [pc, #40]	; (10001bbc <cyw43_set_backplane_window+0x58>)
10001b92:	0a23      	lsrs	r3, r4, #8
10001b94:	f7ff fe34 	bl	10001800 <cyw43_write_reg_u8>
10001b98:	e7f6      	b.n	10001b88 <cyw43_set_backplane_window+0x24>
10001b9a:	0c23      	lsrs	r3, r4, #16
10001b9c:	2101      	movs	r1, #1
10001b9e:	0028      	movs	r0, r5
10001ba0:	4a07      	ldr	r2, [pc, #28]	; (10001bc0 <cyw43_set_backplane_window+0x5c>)
10001ba2:	f7ff fe2d 	bl	10001800 <cyw43_write_reg_u8>
10001ba6:	68ab      	ldr	r3, [r5, #8]
10001ba8:	4063      	eors	r3, r4
10001baa:	e7e9      	b.n	10001b80 <cyw43_set_backplane_window+0x1c>
10001bac:	0e23      	lsrs	r3, r4, #24
10001bae:	2101      	movs	r1, #1
10001bb0:	4a04      	ldr	r2, [pc, #16]	; (10001bc4 <cyw43_set_backplane_window+0x60>)
10001bb2:	f7ff fe25 	bl	10001800 <cyw43_write_reg_u8>
10001bb6:	68ab      	ldr	r3, [r5, #8]
10001bb8:	4063      	eors	r3, r4
10001bba:	e7dd      	b.n	10001b78 <cyw43_set_backplane_window+0x14>
10001bbc:	0001000a 	.word	0x0001000a
10001bc0:	0001000b 	.word	0x0001000b
10001bc4:	0001000c 	.word	0x0001000c

10001bc8 <cyw43_ll_parse_async_event>:
10001bc8:	b5f0      	push	{r4, r5, r6, r7, lr}
10001bca:	46c6      	mov	lr, r8
10001bcc:	3003      	adds	r0, #3
10001bce:	0883      	lsrs	r3, r0, #2
10001bd0:	469c      	mov	ip, r3
10001bd2:	b500      	push	{lr}
10001bd4:	1e8e      	subs	r6, r1, #2
10001bd6:	2b00      	cmp	r3, #0
10001bd8:	d01d      	beq.n	10001c16 <cyw43_ll_parse_async_event+0x4e>
10001bda:	000b      	movs	r3, r1
10001bdc:	4333      	orrs	r3, r6
10001bde:	075b      	lsls	r3, r3, #29
10001be0:	d154      	bne.n	10001c8c <cyw43_ll_parse_async_event+0xc4>
10001be2:	4663      	mov	r3, ip
10001be4:	3b01      	subs	r3, #1
10001be6:	2b0a      	cmp	r3, #10
10001be8:	d950      	bls.n	10001c8c <cyw43_ll_parse_async_event+0xc4>
10001bea:	08c3      	lsrs	r3, r0, #3
10001bec:	4698      	mov	r8, r3
10001bee:	4642      	mov	r2, r8
10001bf0:	0030      	movs	r0, r6
10001bf2:	000b      	movs	r3, r1
10001bf4:	00d2      	lsls	r2, r2, #3
10001bf6:	188f      	adds	r7, r1, r2
10001bf8:	cb30      	ldmia	r3!, {r4, r5}
10001bfa:	c030      	stmia	r0!, {r4, r5}
10001bfc:	429f      	cmp	r7, r3
10001bfe:	d1fb      	bne.n	10001bf8 <cyw43_ll_parse_async_event+0x30>
10001c00:	4643      	mov	r3, r8
10001c02:	18b4      	adds	r4, r6, r2
10001c04:	005f      	lsls	r7, r3, #1
10001c06:	188a      	adds	r2, r1, r2
10001c08:	45bc      	cmp	ip, r7
10001c0a:	d004      	beq.n	10001c16 <cyw43_ll_parse_async_event+0x4e>
10001c0c:	8853      	ldrh	r3, [r2, #2]
10001c0e:	8810      	ldrh	r0, [r2, #0]
10001c10:	041b      	lsls	r3, r3, #16
10001c12:	4303      	orrs	r3, r0
10001c14:	6023      	str	r3, [r4, #0]
10001c16:	0008      	movs	r0, r1
10001c18:	880b      	ldrh	r3, [r1, #0]
10001c1a:	1d8a      	adds	r2, r1, #6
10001c1c:	ba5b      	rev16	r3, r3
10001c1e:	8073      	strh	r3, [r6, #2]
10001c20:	1c8b      	adds	r3, r1, #2
10001c22:	681b      	ldr	r3, [r3, #0]
10001c24:	300a      	adds	r0, #10
10001c26:	ba1b      	rev	r3, r3
10001c28:	6073      	str	r3, [r6, #4]
10001c2a:	6812      	ldr	r2, [r2, #0]
10001c2c:	ba12      	rev	r2, r2
10001c2e:	60b2      	str	r2, [r6, #8]
10001c30:	6800      	ldr	r0, [r0, #0]
10001c32:	ba00      	rev	r0, r0
10001c34:	60f0      	str	r0, [r6, #12]
10001c36:	2b45      	cmp	r3, #69	; 0x45
10001c38:	d003      	beq.n	10001c42 <cyw43_ll_parse_async_event+0x7a>
10001c3a:	0030      	movs	r0, r6
10001c3c:	bc80      	pop	{r7}
10001c3e:	46b8      	mov	r8, r7
10001c40:	bdf0      	pop	{r4, r5, r6, r7, pc}
10001c42:	2a08      	cmp	r2, #8
10001c44:	d1f9      	bne.n	10001c3a <cyw43_ll_parse_async_event+0x72>
10001c46:	000b      	movs	r3, r1
10001c48:	000a      	movs	r2, r1
10001c4a:	000c      	movs	r4, r1
10001c4c:	32b2      	adds	r2, #178	; 0xb2
10001c4e:	33ae      	adds	r3, #174	; 0xae
10001c50:	881b      	ldrh	r3, [r3, #0]
10001c52:	6810      	ldr	r0, [r2, #0]
10001c54:	342e      	adds	r4, #46	; 0x2e
10001c56:	6925      	ldr	r5, [r4, #16]
10001c58:	181a      	adds	r2, r3, r0
10001c5a:	42aa      	cmp	r2, r5
10001c5c:	d822      	bhi.n	10001ca4 <cyw43_ll_parse_async_event+0xdc>
10001c5e:	313a      	adds	r1, #58	; 0x3a
10001c60:	18c9      	adds	r1, r1, r3
10001c62:	1808      	adds	r0, r1, r0
10001c64:	4281      	cmp	r1, r0
10001c66:	d24a      	bcs.n	10001cfe <cyw43_ll_parse_async_event+0x136>
10001c68:	2700      	movs	r7, #0
10001c6a:	2500      	movs	r5, #0
10001c6c:	e004      	b.n	10001c78 <cyw43_ll_parse_async_event+0xb0>
10001c6e:	2add      	cmp	r2, #221	; 0xdd
10001c70:	d01c      	beq.n	10001cac <cyw43_ll_parse_async_event+0xe4>
10001c72:	18c9      	adds	r1, r1, r3
10001c74:	4288      	cmp	r0, r1
10001c76:	d92c      	bls.n	10001cd2 <cyw43_ll_parse_async_event+0x10a>
10001c78:	784b      	ldrb	r3, [r1, #1]
10001c7a:	3302      	adds	r3, #2
10001c7c:	18ca      	adds	r2, r1, r3
10001c7e:	4290      	cmp	r0, r2
10001c80:	d3f7      	bcc.n	10001c72 <cyw43_ll_parse_async_event+0xaa>
10001c82:	780a      	ldrb	r2, [r1, #0]
10001c84:	2a30      	cmp	r2, #48	; 0x30
10001c86:	d1f2      	bne.n	10001c6e <cyw43_ll_parse_async_event+0xa6>
10001c88:	000d      	movs	r5, r1
10001c8a:	e7f2      	b.n	10001c72 <cyw43_ll_parse_async_event+0xaa>
10001c8c:	4663      	mov	r3, ip
10001c8e:	0032      	movs	r2, r6
10001c90:	0098      	lsls	r0, r3, #2
10001c92:	1830      	adds	r0, r6, r0
10001c94:	8893      	ldrh	r3, [r2, #4]
10001c96:	8854      	ldrh	r4, [r2, #2]
10001c98:	041b      	lsls	r3, r3, #16
10001c9a:	4323      	orrs	r3, r4
10001c9c:	c208      	stmia	r2!, {r3}
10001c9e:	4282      	cmp	r2, r0
10001ca0:	d1f8      	bne.n	10001c94 <cyw43_ll_parse_async_event+0xcc>
10001ca2:	e7b8      	b.n	10001c16 <cyw43_ll_parse_async_event+0x4e>
10001ca4:	2301      	movs	r3, #1
10001ca6:	425b      	negs	r3, r3
10001ca8:	60b3      	str	r3, [r6, #8]
10001caa:	e7c6      	b.n	10001c3a <cyw43_ll_parse_async_event+0x72>
10001cac:	1c8a      	adds	r2, r1, #2
10001cae:	4690      	mov	r8, r2
10001cb0:	788a      	ldrb	r2, [r1, #2]
10001cb2:	2a00      	cmp	r2, #0
10001cb4:	d1dd      	bne.n	10001c72 <cyw43_ll_parse_async_event+0xaa>
10001cb6:	4642      	mov	r2, r8
10001cb8:	7852      	ldrb	r2, [r2, #1]
10001cba:	2a50      	cmp	r2, #80	; 0x50
10001cbc:	d1d9      	bne.n	10001c72 <cyw43_ll_parse_async_event+0xaa>
10001cbe:	4642      	mov	r2, r8
10001cc0:	7892      	ldrb	r2, [r2, #2]
10001cc2:	2af2      	cmp	r2, #242	; 0xf2
10001cc4:	d1d5      	bne.n	10001c72 <cyw43_ll_parse_async_event+0xaa>
10001cc6:	4642      	mov	r2, r8
10001cc8:	78d2      	ldrb	r2, [r2, #3]
10001cca:	2a01      	cmp	r2, #1
10001ccc:	d1d1      	bne.n	10001c72 <cyw43_ll_parse_async_event+0xaa>
10001cce:	000f      	movs	r7, r1
10001cd0:	e7cf      	b.n	10001c72 <cyw43_ll_parse_async_event+0xaa>
10001cd2:	2d00      	cmp	r5, #0
10001cd4:	d010      	beq.n	10001cf8 <cyw43_ll_parse_async_event+0x130>
10001cd6:	2306      	movs	r3, #6
10001cd8:	2204      	movs	r2, #4
10001cda:	2f00      	cmp	r7, #0
10001cdc:	d00a      	beq.n	10001cf4 <cyw43_ll_parse_async_event+0x12c>
10001cde:	8ba2      	ldrh	r2, [r4, #28]
10001ce0:	06d2      	lsls	r2, r2, #27
10001ce2:	d501      	bpl.n	10001ce8 <cyw43_ll_parse_async_event+0x120>
10001ce4:	2201      	movs	r2, #1
10001ce6:	4313      	orrs	r3, r2
10001ce8:	2284      	movs	r2, #132	; 0x84
10001cea:	5cb1      	ldrb	r1, [r6, r2]
10001cec:	52b1      	strh	r1, [r6, r2]
10001cee:	3204      	adds	r2, #4
10001cf0:	54b3      	strb	r3, [r6, r2]
10001cf2:	e7a2      	b.n	10001c3a <cyw43_ll_parse_async_event+0x72>
10001cf4:	0013      	movs	r3, r2
10001cf6:	e7f2      	b.n	10001cde <cyw43_ll_parse_async_event+0x116>
10001cf8:	2302      	movs	r3, #2
10001cfa:	2200      	movs	r2, #0
10001cfc:	e7ed      	b.n	10001cda <cyw43_ll_parse_async_event+0x112>
10001cfe:	2300      	movs	r3, #0
10001d00:	e7ed      	b.n	10001cde <cyw43_ll_parse_async_event+0x116>
10001d02:	46c0      	nop			; (mov r8, r8)

10001d04 <cyw43_kso_set>:
10001d04:	b5f8      	push	{r3, r4, r5, r6, r7, lr}
10001d06:	46ce      	mov	lr, r9
10001d08:	4647      	mov	r7, r8
10001d0a:	0005      	movs	r5, r0
10001d0c:	4689      	mov	r9, r1
10001d0e:	b580      	push	{r7, lr}
10001d10:	2900      	cmp	r1, #0
10001d12:	d032      	beq.n	10001d7a <cyw43_kso_set+0x76>
10001d14:	2301      	movs	r3, #1
10001d16:	2101      	movs	r1, #1
10001d18:	4a20      	ldr	r2, [pc, #128]	; (10001d9c <cyw43_kso_set+0x98>)
10001d1a:	f7ff fd71 	bl	10001800 <cyw43_write_reg_u8>
10001d1e:	2301      	movs	r3, #1
10001d20:	2101      	movs	r1, #1
10001d22:	0028      	movs	r0, r5
10001d24:	4a1d      	ldr	r2, [pc, #116]	; (10001d9c <cyw43_kso_set+0x98>)
10001d26:	f7ff fd6b 	bl	10001800 <cyw43_write_reg_u8>
10001d2a:	2303      	movs	r3, #3
10001d2c:	2703      	movs	r7, #3
10001d2e:	4698      	mov	r8, r3
10001d30:	2601      	movs	r6, #1
10001d32:	2440      	movs	r4, #64	; 0x40
10001d34:	e00b      	b.n	10001d4e <cyw43_kso_set+0x4a>
10001d36:	2001      	movs	r0, #1
10001d38:	f003 fbf2 	bl	10005520 <cyw43_delay_ms>
10001d3c:	3c01      	subs	r4, #1
10001d3e:	0033      	movs	r3, r6
10001d40:	2101      	movs	r1, #1
10001d42:	0028      	movs	r0, r5
10001d44:	4a15      	ldr	r2, [pc, #84]	; (10001d9c <cyw43_kso_set+0x98>)
10001d46:	f7ff fd5b 	bl	10001800 <cyw43_write_reg_u8>
10001d4a:	2c00      	cmp	r4, #0
10001d4c:	d010      	beq.n	10001d70 <cyw43_kso_set+0x6c>
10001d4e:	2101      	movs	r1, #1
10001d50:	0028      	movs	r0, r5
10001d52:	4a12      	ldr	r2, [pc, #72]	; (10001d9c <cyw43_kso_set+0x98>)
10001d54:	f7ff fa2e 	bl	100011b4 <cyw43_read_reg_u8>
10001d58:	2800      	cmp	r0, #0
10001d5a:	dbec      	blt.n	10001d36 <cyw43_kso_set+0x32>
10001d5c:	003b      	movs	r3, r7
10001d5e:	4003      	ands	r3, r0
10001d60:	4543      	cmp	r3, r8
10001d62:	d1e8      	bne.n	10001d36 <cyw43_kso_set+0x32>
10001d64:	28ff      	cmp	r0, #255	; 0xff
10001d66:	d0e6      	beq.n	10001d36 <cyw43_kso_set+0x32>
10001d68:	bcc0      	pop	{r6, r7}
10001d6a:	46b9      	mov	r9, r7
10001d6c:	46b0      	mov	r8, r6
10001d6e:	bdf8      	pop	{r3, r4, r5, r6, r7, pc}
10001d70:	4649      	mov	r1, r9
10001d72:	480b      	ldr	r0, [pc, #44]	; (10001da0 <cyw43_kso_set+0x9c>)
10001d74:	f006 fac0 	bl	100082f8 <__wrap_printf>
10001d78:	e7f6      	b.n	10001d68 <cyw43_kso_set+0x64>
10001d7a:	2300      	movs	r3, #0
10001d7c:	2101      	movs	r1, #1
10001d7e:	4a07      	ldr	r2, [pc, #28]	; (10001d9c <cyw43_kso_set+0x98>)
10001d80:	f7ff fd3e 	bl	10001800 <cyw43_write_reg_u8>
10001d84:	2300      	movs	r3, #0
10001d86:	2101      	movs	r1, #1
10001d88:	0028      	movs	r0, r5
10001d8a:	4a04      	ldr	r2, [pc, #16]	; (10001d9c <cyw43_kso_set+0x98>)
10001d8c:	f7ff fd38 	bl	10001800 <cyw43_write_reg_u8>
10001d90:	2300      	movs	r3, #0
10001d92:	2701      	movs	r7, #1
10001d94:	4698      	mov	r8, r3
10001d96:	2600      	movs	r6, #0
10001d98:	e7cb      	b.n	10001d32 <cyw43_kso_set+0x2e>
10001d9a:	46c0      	nop			; (mov r8, r8)
10001d9c:	0001001f 	.word	0x0001001f
10001da0:	1000a8d0 	.word	0x1000a8d0

10001da4 <cyw43_ll_sdpcm_poll_device>:
10001da4:	b5f0      	push	{r4, r5, r6, r7, lr}
10001da6:	46d6      	mov	lr, sl
10001da8:	464f      	mov	r7, r9
10001daa:	4646      	mov	r6, r8
10001dac:	b5c0      	push	{r6, r7, lr}
10001dae:	7cc3      	ldrb	r3, [r0, #19]
10001db0:	0005      	movs	r5, r0
10001db2:	000f      	movs	r7, r1
10001db4:	4692      	mov	sl, r2
10001db6:	b082      	sub	sp, #8
10001db8:	2b00      	cmp	r3, #0
10001dba:	d104      	bne.n	10001dc6 <cyw43_ll_sdpcm_poll_device+0x22>
10001dbc:	6800      	ldr	r0, [r0, #0]
10001dbe:	f001 fcb9 	bl	10003734 <cyw43_cb_read_host_interrupt_pin>
10001dc2:	2800      	cmp	r0, #0
10001dc4:	d065      	beq.n	10001e92 <cyw43_ll_sdpcm_poll_device+0xee>
10001dc6:	0028      	movs	r0, r5
10001dc8:	f001 fcba 	bl	10003740 <cyw43_cb_ensure_awake>
10001dcc:	7cab      	ldrb	r3, [r5, #18]
10001dce:	2b00      	cmp	r3, #0
10001dd0:	d105      	bne.n	10001dde <cyw43_ll_sdpcm_poll_device+0x3a>
10001dd2:	2101      	movs	r1, #1
10001dd4:	0028      	movs	r0, r5
10001dd6:	f7ff ff95 	bl	10001d04 <cyw43_kso_set>
10001dda:	2301      	movs	r3, #1
10001ddc:	74ab      	strb	r3, [r5, #18]
10001dde:	7ceb      	ldrb	r3, [r5, #19]
10001de0:	2b00      	cmp	r3, #0
10001de2:	d064      	beq.n	10001eae <cyw43_ll_sdpcm_poll_device+0x10a>
10001de4:	24fa      	movs	r4, #250	; 0xfa
10001de6:	00a4      	lsls	r4, r4, #2
10001de8:	e002      	b.n	10001df0 <cyw43_ll_sdpcm_poll_device+0x4c>
10001dea:	3c01      	subs	r4, #1
10001dec:	2c00      	cmp	r4, #0
10001dee:	d050      	beq.n	10001e92 <cyw43_ll_sdpcm_poll_device+0xee>
10001df0:	2208      	movs	r2, #8
10001df2:	2100      	movs	r1, #0
10001df4:	0028      	movs	r0, r5
10001df6:	f7ff f971 	bl	100010dc <cyw43_read_reg_u32>
10001dfa:	1c43      	adds	r3, r0, #1
10001dfc:	d0f5      	beq.n	10001dea <cyw43_ll_sdpcm_poll_device+0x46>
10001dfe:	05c3      	lsls	r3, r0, #23
10001e00:	d545      	bpl.n	10001e8e <cyw43_ll_sdpcm_poll_device+0xea>
10001e02:	22c0      	movs	r2, #192	; 0xc0
10001e04:	0303      	lsls	r3, r0, #12
10001e06:	0d5b      	lsrs	r3, r3, #21
10001e08:	1e59      	subs	r1, r3, #1
10001e0a:	00d2      	lsls	r2, r2, #3
10001e0c:	4291      	cmp	r1, r2
10001e0e:	d300      	bcc.n	10001e12 <cyw43_ll_sdpcm_poll_device+0x6e>
10001e10:	e0b7      	b.n	10001f82 <cyw43_ll_sdpcm_poll_device+0x1de>
10001e12:	0782      	lsls	r2, r0, #30
10001e14:	d500      	bpl.n	10001e18 <cyw43_ll_sdpcm_poll_device+0x74>
10001e16:	e0b4      	b.n	10001f82 <cyw43_ll_sdpcm_poll_device+0x1de>
10001e18:	002c      	movs	r4, r5
10001e1a:	341c      	adds	r4, #28
10001e1c:	2200      	movs	r2, #0
10001e1e:	2102      	movs	r1, #2
10001e20:	0028      	movs	r0, r5
10001e22:	9400      	str	r4, [sp, #0]
10001e24:	f7ff fdec 	bl	10001a00 <cyw43_read_bytes>
10001e28:	2800      	cmp	r0, #0
10001e2a:	d128      	bne.n	10001e7e <cyw43_ll_sdpcm_poll_device+0xda>
10001e2c:	8bab      	ldrh	r3, [r5, #28]
10001e2e:	8bea      	ldrh	r2, [r5, #30]
10001e30:	2b00      	cmp	r3, #0
10001e32:	d02a      	beq.n	10001e8a <cyw43_ll_sdpcm_poll_device+0xe6>
10001e34:	2101      	movs	r1, #1
10001e36:	74e9      	strb	r1, [r5, #19]
10001e38:	4966      	ldr	r1, [pc, #408]	; (10001fd4 <cyw43_ll_sdpcm_poll_device+0x230>)
10001e3a:	468c      	mov	ip, r1
10001e3c:	0019      	movs	r1, r3
10001e3e:	4051      	eors	r1, r2
10001e40:	4561      	cmp	r1, ip
10001e42:	d000      	beq.n	10001e46 <cyw43_ll_sdpcm_poll_device+0xa2>
10001e44:	e0a4      	b.n	10001f90 <cyw43_ll_sdpcm_poll_device+0x1ec>
10001e46:	43d2      	mvns	r2, r2
10001e48:	b292      	uxth	r2, r2
10001e4a:	4293      	cmp	r3, r2
10001e4c:	d000      	beq.n	10001e50 <cyw43_ll_sdpcm_poll_device+0xac>
10001e4e:	e0a6      	b.n	10001f9e <cyw43_ll_sdpcm_poll_device+0x1fa>
10001e50:	2b0b      	cmp	r3, #11
10001e52:	d800      	bhi.n	10001e56 <cyw43_ll_sdpcm_poll_device+0xb2>
10001e54:	e0a9      	b.n	10001faa <cyw43_ll_sdpcm_poll_device+0x206>
10001e56:	2224      	movs	r2, #36	; 0x24
10001e58:	5caa      	ldrb	r2, [r5, r2]
10001e5a:	73aa      	strb	r2, [r5, #14]
10001e5c:	2221      	movs	r2, #33	; 0x21
10001e5e:	5ca9      	ldrb	r1, [r5, r2]
10001e60:	3a12      	subs	r2, #18
10001e62:	400a      	ands	r2, r1
10001e64:	2a02      	cmp	r2, #2
10001e66:	d917      	bls.n	10001e98 <cyw43_ll_sdpcm_poll_device+0xf4>
10001e68:	2b0c      	cmp	r3, #12
10001e6a:	d100      	bne.n	10001e6e <cyw43_ll_sdpcm_poll_device+0xca>
10001e6c:	e0a9      	b.n	10001fc2 <cyw43_ll_sdpcm_poll_device+0x21e>
10001e6e:	2a01      	cmp	r2, #1
10001e70:	d05b      	beq.n	10001f2a <cyw43_ll_sdpcm_poll_device+0x186>
10001e72:	2a02      	cmp	r2, #2
10001e74:	d036      	beq.n	10001ee4 <cyw43_ll_sdpcm_poll_device+0x140>
10001e76:	2a00      	cmp	r2, #0
10001e78:	d047      	beq.n	10001f0a <cyw43_ll_sdpcm_poll_device+0x166>
10001e7a:	200b      	movs	r0, #11
10001e7c:	4240      	negs	r0, r0
10001e7e:	b002      	add	sp, #8
10001e80:	bce0      	pop	{r5, r6, r7}
10001e82:	46ba      	mov	sl, r7
10001e84:	46b1      	mov	r9, r6
10001e86:	46a8      	mov	r8, r5
10001e88:	bdf0      	pop	{r4, r5, r6, r7, pc}
10001e8a:	2a00      	cmp	r2, #0
10001e8c:	d1d2      	bne.n	10001e34 <cyw43_ll_sdpcm_poll_device+0x90>
10001e8e:	2300      	movs	r3, #0
10001e90:	74eb      	strb	r3, [r5, #19]
10001e92:	2001      	movs	r0, #1
10001e94:	4240      	negs	r0, r0
10001e96:	e7f2      	b.n	10001e7e <cyw43_ll_sdpcm_poll_device+0xda>
10001e98:	2125      	movs	r1, #37	; 0x25
10001e9a:	5c69      	ldrb	r1, [r5, r1]
10001e9c:	468c      	mov	ip, r1
10001e9e:	4666      	mov	r6, ip
10001ea0:	7b69      	ldrb	r1, [r5, #13]
10001ea2:	1a71      	subs	r1, r6, r1
10001ea4:	b2c9      	uxtb	r1, r1
10001ea6:	2914      	cmp	r1, #20
10001ea8:	d8de      	bhi.n	10001e68 <cyw43_ll_sdpcm_poll_device+0xc4>
10001eaa:	736e      	strb	r6, [r5, #13]
10001eac:	e7dc      	b.n	10001e68 <cyw43_ll_sdpcm_poll_device+0xc4>
10001eae:	2204      	movs	r2, #4
10001eb0:	2100      	movs	r1, #0
10001eb2:	0028      	movs	r0, r5
10001eb4:	f7ff f948 	bl	10001148 <cyw43_read_reg_u16>
10001eb8:	b283      	uxth	r3, r0
10001eba:	4698      	mov	r8, r3
10001ebc:	4b46      	ldr	r3, [pc, #280]	; (10001fd8 <cyw43_ll_sdpcm_poll_device+0x234>)
10001ebe:	0400      	lsls	r0, r0, #16
10001ec0:	4699      	mov	r9, r3
10001ec2:	881b      	ldrh	r3, [r3, #0]
10001ec4:	0c04      	lsrs	r4, r0, #16
10001ec6:	4543      	cmp	r3, r8
10001ec8:	d002      	beq.n	10001ed0 <cyw43_ll_sdpcm_poll_device+0x12c>
10001eca:	2386      	movs	r3, #134	; 0x86
10001ecc:	4223      	tst	r3, r4
10001ece:	d14d      	bne.n	10001f6c <cyw43_ll_sdpcm_poll_device+0x1c8>
10001ed0:	4643      	mov	r3, r8
10001ed2:	2b00      	cmp	r3, #0
10001ed4:	d14f      	bne.n	10001f76 <cyw43_ll_sdpcm_poll_device+0x1d2>
10001ed6:	464b      	mov	r3, r9
10001ed8:	4642      	mov	r2, r8
10001eda:	801a      	strh	r2, [r3, #0]
10001edc:	06a3      	lsls	r3, r4, #26
10001ede:	d500      	bpl.n	10001ee2 <cyw43_ll_sdpcm_poll_device+0x13e>
10001ee0:	e780      	b.n	10001de4 <cyw43_ll_sdpcm_poll_device+0x40>
10001ee2:	e7d6      	b.n	10001e92 <cyw43_ll_sdpcm_poll_device+0xee>
10001ee4:	2b10      	cmp	r3, #16
10001ee6:	d969      	bls.n	10001fbc <cyw43_ll_sdpcm_poll_device+0x218>
10001ee8:	2223      	movs	r2, #35	; 0x23
10001eea:	5ca9      	ldrb	r1, [r5, r2]
10001eec:	2002      	movs	r0, #2
10001eee:	1861      	adds	r1, r4, r1
10001ef0:	78ca      	ldrb	r2, [r1, #3]
10001ef2:	0092      	lsls	r2, r2, #2
10001ef4:	3204      	adds	r2, #4
10001ef6:	188a      	adds	r2, r1, r2
10001ef8:	1b14      	subs	r4, r2, r4
10001efa:	1b1c      	subs	r4, r3, r4
10001efc:	788b      	ldrb	r3, [r1, #2]
10001efe:	07db      	lsls	r3, r3, #31
10001f00:	431c      	orrs	r4, r3
10001f02:	4653      	mov	r3, sl
10001f04:	603c      	str	r4, [r7, #0]
10001f06:	601a      	str	r2, [r3, #0]
10001f08:	e7b9      	b.n	10001e7e <cyw43_ll_sdpcm_poll_device+0xda>
10001f0a:	2b1b      	cmp	r3, #27
10001f0c:	d95f      	bls.n	10001fce <cyw43_ll_sdpcm_poll_device+0x22a>
10001f0e:	3223      	adds	r2, #35	; 0x23
10001f10:	5caa      	ldrb	r2, [r5, r2]
10001f12:	8a2d      	ldrh	r5, [r5, #16]
10001f14:	18a2      	adds	r2, r4, r2
10001f16:	8951      	ldrh	r1, [r2, #10]
10001f18:	428d      	cmp	r5, r1
10001f1a:	d14c      	bne.n	10001fb6 <cyw43_ll_sdpcm_poll_device+0x212>
10001f1c:	3210      	adds	r2, #16
10001f1e:	1b14      	subs	r4, r2, r4
10001f20:	1b1c      	subs	r4, r3, r4
10001f22:	4653      	mov	r3, sl
10001f24:	603c      	str	r4, [r7, #0]
10001f26:	601a      	str	r2, [r3, #0]
10001f28:	e7a9      	b.n	10001e7e <cyw43_ll_sdpcm_poll_device+0xda>
10001f2a:	2b10      	cmp	r3, #16
10001f2c:	d94c      	bls.n	10001fc8 <cyw43_ll_sdpcm_poll_device+0x224>
10001f2e:	2223      	movs	r2, #35	; 0x23
10001f30:	5caa      	ldrb	r2, [r5, r2]
10001f32:	18a2      	adds	r2, r4, r2
10001f34:	78d1      	ldrb	r1, [r2, #3]
10001f36:	0089      	lsls	r1, r1, #2
10001f38:	3104      	adds	r1, #4
10001f3a:	1852      	adds	r2, r2, r1
10001f3c:	7b11      	ldrb	r1, [r2, #12]
10001f3e:	1b14      	subs	r4, r2, r4
10001f40:	1b1b      	subs	r3, r3, r4
10001f42:	2988      	cmp	r1, #136	; 0x88
10001f44:	d134      	bne.n	10001fb0 <cyw43_ll_sdpcm_poll_device+0x20c>
10001f46:	7b51      	ldrb	r1, [r2, #13]
10001f48:	296c      	cmp	r1, #108	; 0x6c
10001f4a:	d131      	bne.n	10001fb0 <cyw43_ll_sdpcm_poll_device+0x20c>
10001f4c:	7cd1      	ldrb	r1, [r2, #19]
10001f4e:	2900      	cmp	r1, #0
10001f50:	d128      	bne.n	10001fa4 <cyw43_ll_sdpcm_poll_device+0x200>
10001f52:	7d11      	ldrb	r1, [r2, #20]
10001f54:	2910      	cmp	r1, #16
10001f56:	d125      	bne.n	10001fa4 <cyw43_ll_sdpcm_poll_device+0x200>
10001f58:	7d51      	ldrb	r1, [r2, #21]
10001f5a:	2918      	cmp	r1, #24
10001f5c:	d122      	bne.n	10001fa4 <cyw43_ll_sdpcm_poll_device+0x200>
10001f5e:	3b18      	subs	r3, #24
10001f60:	603b      	str	r3, [r7, #0]
10001f62:	4653      	mov	r3, sl
10001f64:	3218      	adds	r2, #24
10001f66:	2001      	movs	r0, #1
10001f68:	601a      	str	r2, [r3, #0]
10001f6a:	e788      	b.n	10001e7e <cyw43_ll_sdpcm_poll_device+0xda>
10001f6c:	0021      	movs	r1, r4
10001f6e:	481b      	ldr	r0, [pc, #108]	; (10001fdc <cyw43_ll_sdpcm_poll_device+0x238>)
10001f70:	f006 f9c2 	bl	100082f8 <__wrap_printf>
10001f74:	e7ac      	b.n	10001ed0 <cyw43_ll_sdpcm_poll_device+0x12c>
10001f76:	2204      	movs	r2, #4
10001f78:	2100      	movs	r1, #0
10001f7a:	0028      	movs	r0, r5
10001f7c:	f7ff fb40 	bl	10001600 <cyw43_write_reg_u16>
10001f80:	e7a9      	b.n	10001ed6 <cyw43_ll_sdpcm_poll_device+0x132>
10001f82:	2301      	movs	r3, #1
10001f84:	2101      	movs	r1, #1
10001f86:	0028      	movs	r0, r5
10001f88:	4a15      	ldr	r2, [pc, #84]	; (10001fe0 <cyw43_ll_sdpcm_poll_device+0x23c>)
10001f8a:	f7ff fc39 	bl	10001800 <cyw43_write_reg_u8>
10001f8e:	e77e      	b.n	10001e8e <cyw43_ll_sdpcm_poll_device+0xea>
10001f90:	0019      	movs	r1, r3
10001f92:	4814      	ldr	r0, [pc, #80]	; (10001fe4 <cyw43_ll_sdpcm_poll_device+0x240>)
10001f94:	f006 f9b0 	bl	100082f8 <__wrap_printf>
10001f98:	2001      	movs	r0, #1
10001f9a:	4240      	negs	r0, r0
10001f9c:	e76f      	b.n	10001e7e <cyw43_ll_sdpcm_poll_device+0xda>
10001f9e:	2002      	movs	r0, #2
10001fa0:	4240      	negs	r0, r0
10001fa2:	e76c      	b.n	10001e7e <cyw43_ll_sdpcm_poll_device+0xda>
10001fa4:	200a      	movs	r0, #10
10001fa6:	4240      	negs	r0, r0
10001fa8:	e769      	b.n	10001e7e <cyw43_ll_sdpcm_poll_device+0xda>
10001faa:	2003      	movs	r0, #3
10001fac:	4240      	negs	r0, r0
10001fae:	e766      	b.n	10001e7e <cyw43_ll_sdpcm_poll_device+0xda>
10001fb0:	2009      	movs	r0, #9
10001fb2:	4240      	negs	r0, r0
10001fb4:	e763      	b.n	10001e7e <cyw43_ll_sdpcm_poll_device+0xda>
10001fb6:	2006      	movs	r0, #6
10001fb8:	4240      	negs	r0, r0
10001fba:	e760      	b.n	10001e7e <cyw43_ll_sdpcm_poll_device+0xda>
10001fbc:	2007      	movs	r0, #7
10001fbe:	4240      	negs	r0, r0
10001fc0:	e75d      	b.n	10001e7e <cyw43_ll_sdpcm_poll_device+0xda>
10001fc2:	2004      	movs	r0, #4
10001fc4:	4240      	negs	r0, r0
10001fc6:	e75a      	b.n	10001e7e <cyw43_ll_sdpcm_poll_device+0xda>
10001fc8:	2008      	movs	r0, #8
10001fca:	4240      	negs	r0, r0
10001fcc:	e757      	b.n	10001e7e <cyw43_ll_sdpcm_poll_device+0xda>
10001fce:	2005      	movs	r0, #5
10001fd0:	4240      	negs	r0, r0
10001fd2:	e754      	b.n	10001e7e <cyw43_ll_sdpcm_poll_device+0xda>
10001fd4:	0000ffff 	.word	0x0000ffff
10001fd8:	20002c7c 	.word	0x20002c7c
10001fdc:	1000a8f4 	.word	0x1000a8f4
10001fe0:	0001000d 	.word	0x0001000d
10001fe4:	1000a920 	.word	0x1000a920

10001fe8 <cyw43_sdpcm_send_common>:
10001fe8:	b5f0      	push	{r4, r5, r6, r7, lr}
10001fea:	46de      	mov	lr, fp
10001fec:	4657      	mov	r7, sl
10001fee:	464e      	mov	r6, r9
10001ff0:	4645      	mov	r5, r8
10001ff2:	0004      	movs	r4, r0
10001ff4:	b5e0      	push	{r5, r6, r7, lr}
10001ff6:	b085      	sub	sp, #20
10001ff8:	469a      	mov	sl, r3
10001ffa:	4689      	mov	r9, r1
10001ffc:	4693      	mov	fp, r2
10001ffe:	f001 fb9f 	bl	10003740 <cyw43_cb_ensure_awake>
10002002:	7ca3      	ldrb	r3, [r4, #18]
10002004:	2b00      	cmp	r3, #0
10002006:	d105      	bne.n	10002014 <cyw43_sdpcm_send_common+0x2c>
10002008:	2101      	movs	r1, #1
1000200a:	0020      	movs	r0, r4
1000200c:	f7ff fe7a 	bl	10001d04 <cyw43_kso_set>
10002010:	2301      	movs	r3, #1
10002012:	74a3      	strb	r3, [r4, #18]
10002014:	7ba3      	ldrb	r3, [r4, #14]
10002016:	2b00      	cmp	r3, #0
10002018:	d024      	beq.n	10002064 <cyw43_sdpcm_send_common+0x7c>
1000201a:	4e2c      	ldr	r6, [pc, #176]	; (100020cc <cyw43_sdpcm_send_common+0xe4>)
1000201c:	4f2c      	ldr	r7, [pc, #176]	; (100020d0 <cyw43_sdpcm_send_common+0xe8>)
1000201e:	6ab3      	ldr	r3, [r6, #40]	; 0x28
10002020:	4698      	mov	r8, r3
10002022:	e00e      	b.n	10002042 <cyw43_sdpcm_send_common+0x5a>
10002024:	7ba1      	ldrb	r1, [r4, #14]
10002026:	2900      	cmp	r1, #0
10002028:	d103      	bne.n	10002032 <cyw43_sdpcm_send_common+0x4a>
1000202a:	7b20      	ldrb	r0, [r4, #12]
1000202c:	7b63      	ldrb	r3, [r4, #13]
1000202e:	4283      	cmp	r3, r0
10002030:	d11c      	bne.n	1000206c <cyw43_sdpcm_send_common+0x84>
10002032:	4643      	mov	r3, r8
10002034:	1aed      	subs	r5, r5, r3
10002036:	42bd      	cmp	r5, r7
10002038:	d83f      	bhi.n	100020ba <cyw43_sdpcm_send_common+0xd2>
1000203a:	20fa      	movs	r0, #250	; 0xfa
1000203c:	0080      	lsls	r0, r0, #2
1000203e:	f003 fa55 	bl	100054ec <cyw43_await_background_or_timeout_us>
10002042:	0020      	movs	r0, r4
10002044:	aa03      	add	r2, sp, #12
10002046:	a902      	add	r1, sp, #8
10002048:	6ab5      	ldr	r5, [r6, #40]	; 0x28
1000204a:	f7ff feab 	bl	10001da4 <cyw43_ll_sdpcm_poll_device>
1000204e:	2801      	cmp	r0, #1
10002050:	d1e8      	bne.n	10002024 <cyw43_sdpcm_send_common+0x3c>
10002052:	9903      	ldr	r1, [sp, #12]
10002054:	9802      	ldr	r0, [sp, #8]
10002056:	f7ff fdb7 	bl	10001bc8 <cyw43_ll_parse_async_event>
1000205a:	0001      	movs	r1, r0
1000205c:	0020      	movs	r0, r4
1000205e:	f001 fb75 	bl	1000374c <cyw43_cb_process_async_event>
10002062:	e7df      	b.n	10002024 <cyw43_sdpcm_send_common+0x3c>
10002064:	7b20      	ldrb	r0, [r4, #12]
10002066:	7b63      	ldrb	r3, [r4, #13]
10002068:	4283      	cmp	r3, r0
1000206a:	d0d6      	beq.n	1000201a <cyw43_sdpcm_send_common+0x32>
1000206c:	465b      	mov	r3, fp
1000206e:	4651      	mov	r1, sl
10002070:	330c      	adds	r3, #12
10002072:	b29a      	uxth	r2, r3
10002074:	800a      	strh	r2, [r1, #0]
10002076:	43d2      	mvns	r2, r2
10002078:	7108      	strb	r0, [r1, #4]
1000207a:	804a      	strh	r2, [r1, #2]
1000207c:	4652      	mov	r2, sl
1000207e:	4649      	mov	r1, r9
10002080:	7151      	strb	r1, [r2, #5]
10002082:	2200      	movs	r2, #0
10002084:	4651      	mov	r1, sl
10002086:	718a      	strb	r2, [r1, #6]
10002088:	4649      	mov	r1, r9
1000208a:	3902      	subs	r1, #2
1000208c:	424d      	negs	r5, r1
1000208e:	4169      	adcs	r1, r5
10002090:	4655      	mov	r5, sl
10002092:	0049      	lsls	r1, r1, #1
10002094:	310c      	adds	r1, #12
10002096:	3001      	adds	r0, #1
10002098:	71e9      	strb	r1, [r5, #7]
1000209a:	812a      	strh	r2, [r5, #8]
1000209c:	816a      	strh	r2, [r5, #10]
1000209e:	2102      	movs	r1, #2
100020a0:	7320      	strb	r0, [r4, #12]
100020a2:	2200      	movs	r2, #0
100020a4:	0020      	movs	r0, r4
100020a6:	9500      	str	r5, [sp, #0]
100020a8:	f7ff fcf0 	bl	10001a8c <cyw43_write_bytes>
100020ac:	b005      	add	sp, #20
100020ae:	bcf0      	pop	{r4, r5, r6, r7}
100020b0:	46bb      	mov	fp, r7
100020b2:	46b2      	mov	sl, r6
100020b4:	46a9      	mov	r9, r5
100020b6:	46a0      	mov	r8, r4
100020b8:	bdf0      	pop	{r4, r5, r6, r7, pc}
100020ba:	7b63      	ldrb	r3, [r4, #13]
100020bc:	7b22      	ldrb	r2, [r4, #12]
100020be:	4805      	ldr	r0, [pc, #20]	; (100020d4 <cyw43_sdpcm_send_common+0xec>)
100020c0:	f006 f91a 	bl	100082f8 <__wrap_printf>
100020c4:	2001      	movs	r0, #1
100020c6:	4240      	negs	r0, r0
100020c8:	e7f0      	b.n	100020ac <cyw43_sdpcm_send_common+0xc4>
100020ca:	46c0      	nop			; (mov r8, r8)
100020cc:	40054000 	.word	0x40054000
100020d0:	000f4240 	.word	0x000f4240
100020d4:	1000a94c 	.word	0x1000a94c

100020d8 <cyw43_do_ioctl>:
100020d8:	b5f0      	push	{r4, r5, r6, r7, lr}
100020da:	4645      	mov	r5, r8
100020dc:	4657      	mov	r7, sl
100020de:	464e      	mov	r6, r9
100020e0:	46de      	mov	lr, fp
100020e2:	4692      	mov	sl, r2
100020e4:	001a      	movs	r2, r3
100020e6:	4698      	mov	r8, r3
100020e8:	2380      	movs	r3, #128	; 0x80
100020ea:	b5e0      	push	{r5, r6, r7, lr}
100020ec:	321c      	adds	r2, #28
100020ee:	0005      	movs	r5, r0
100020f0:	4689      	mov	r9, r1
100020f2:	b083      	sub	sp, #12
100020f4:	011b      	lsls	r3, r3, #4
100020f6:	429a      	cmp	r2, r3
100020f8:	d81e      	bhi.n	10002138 <cyw43_do_ioctl+0x60>
100020fa:	4652      	mov	r2, sl
100020fc:	6282      	str	r2, [r0, #40]	; 0x28
100020fe:	4642      	mov	r2, r8
10002100:	0412      	lsls	r2, r2, #16
10002102:	8a03      	ldrh	r3, [r0, #16]
10002104:	0c12      	lsrs	r2, r2, #16
10002106:	62c2      	str	r2, [r0, #44]	; 0x2c
10002108:	9a0d      	ldr	r2, [sp, #52]	; 0x34
1000210a:	3301      	adds	r3, #1
1000210c:	b29b      	uxth	r3, r3
1000210e:	0312      	lsls	r2, r2, #12
10002110:	8203      	strh	r3, [r0, #16]
10002112:	430a      	orrs	r2, r1
10002114:	041b      	lsls	r3, r3, #16
10002116:	4313      	orrs	r3, r2
10002118:	6303      	str	r3, [r0, #48]	; 0x30
1000211a:	2300      	movs	r3, #0
1000211c:	4642      	mov	r2, r8
1000211e:	6343      	str	r3, [r0, #52]	; 0x34
10002120:	990c      	ldr	r1, [sp, #48]	; 0x30
10002122:	3038      	adds	r0, #56	; 0x38
10002124:	f005 fee2 	bl	10007eec <__wrap___aeabi_memcpy>
10002128:	002b      	movs	r3, r5
1000212a:	4642      	mov	r2, r8
1000212c:	2100      	movs	r1, #0
1000212e:	0028      	movs	r0, r5
10002130:	331c      	adds	r3, #28
10002132:	3210      	adds	r2, #16
10002134:	f7ff ff58 	bl	10001fe8 <cyw43_sdpcm_send_common>
10002138:	4e27      	ldr	r6, [pc, #156]	; (100021d8 <cyw43_do_ioctl+0x100>)
1000213a:	4a28      	ldr	r2, [pc, #160]	; (100021dc <cyw43_do_ioctl+0x104>)
1000213c:	6ab7      	ldr	r7, [r6, #40]	; 0x28
1000213e:	6ab3      	ldr	r3, [r6, #40]	; 0x28
10002140:	1bdb      	subs	r3, r3, r7
10002142:	4293      	cmp	r3, r2
10002144:	d82e      	bhi.n	100021a4 <cyw43_do_ioctl+0xcc>
10002146:	4b26      	ldr	r3, [pc, #152]	; (100021e0 <cyw43_do_ioctl+0x108>)
10002148:	469b      	mov	fp, r3
1000214a:	e010      	b.n	1000216e <cyw43_do_ioctl+0x96>
1000214c:	2802      	cmp	r0, #2
1000214e:	d020      	beq.n	10002192 <cyw43_do_ioctl+0xba>
10002150:	2800      	cmp	r0, #0
10002152:	db03      	blt.n	1000215c <cyw43_do_ioctl+0x84>
10002154:	0001      	movs	r1, r0
10002156:	4658      	mov	r0, fp
10002158:	f006 f8ce 	bl	100082f8 <__wrap_printf>
1000215c:	20fa      	movs	r0, #250	; 0xfa
1000215e:	0080      	lsls	r0, r0, #2
10002160:	f003 f9c4 	bl	100054ec <cyw43_await_background_or_timeout_us>
10002164:	6ab3      	ldr	r3, [r6, #40]	; 0x28
10002166:	4a1d      	ldr	r2, [pc, #116]	; (100021dc <cyw43_do_ioctl+0x104>)
10002168:	1bdb      	subs	r3, r3, r7
1000216a:	4293      	cmp	r3, r2
1000216c:	d81a      	bhi.n	100021a4 <cyw43_do_ioctl+0xcc>
1000216e:	4669      	mov	r1, sp
10002170:	0028      	movs	r0, r5
10002172:	aa01      	add	r2, sp, #4
10002174:	f7ff fe16 	bl	10001da4 <cyw43_ll_sdpcm_poll_device>
10002178:	1e04      	subs	r4, r0, #0
1000217a:	d023      	beq.n	100021c4 <cyw43_do_ioctl+0xec>
1000217c:	2801      	cmp	r0, #1
1000217e:	d1e5      	bne.n	1000214c <cyw43_do_ioctl+0x74>
10002180:	9901      	ldr	r1, [sp, #4]
10002182:	9800      	ldr	r0, [sp, #0]
10002184:	f7ff fd20 	bl	10001bc8 <cyw43_ll_parse_async_event>
10002188:	0001      	movs	r1, r0
1000218a:	0028      	movs	r0, r5
1000218c:	f001 fade 	bl	1000374c <cyw43_cb_process_async_event>
10002190:	e7e4      	b.n	1000215c <cyw43_do_ioctl+0x84>
10002192:	9900      	ldr	r1, [sp, #0]
10002194:	9b01      	ldr	r3, [sp, #4]
10002196:	004a      	lsls	r2, r1, #1
10002198:	6828      	ldr	r0, [r5, #0]
1000219a:	0852      	lsrs	r2, r2, #1
1000219c:	0fc9      	lsrs	r1, r1, #31
1000219e:	f003 f9ef 	bl	10005580 <cyw43_cb_process_ethernet>
100021a2:	e7db      	b.n	1000215c <cyw43_do_ioctl+0x84>
100021a4:	4643      	mov	r3, r8
100021a6:	4652      	mov	r2, sl
100021a8:	4649      	mov	r1, r9
100021aa:	2401      	movs	r4, #1
100021ac:	480d      	ldr	r0, [pc, #52]	; (100021e4 <cyw43_do_ioctl+0x10c>)
100021ae:	f006 f8a3 	bl	100082f8 <__wrap_printf>
100021b2:	4264      	negs	r4, r4
100021b4:	0020      	movs	r0, r4
100021b6:	b003      	add	sp, #12
100021b8:	bcf0      	pop	{r4, r5, r6, r7}
100021ba:	46bb      	mov	fp, r7
100021bc:	46b2      	mov	sl, r6
100021be:	46a9      	mov	r9, r5
100021c0:	46a0      	mov	r8, r4
100021c2:	bdf0      	pop	{r4, r5, r6, r7, pc}
100021c4:	9a00      	ldr	r2, [sp, #0]
100021c6:	4542      	cmp	r2, r8
100021c8:	d900      	bls.n	100021cc <cyw43_do_ioctl+0xf4>
100021ca:	4642      	mov	r2, r8
100021cc:	9901      	ldr	r1, [sp, #4]
100021ce:	980c      	ldr	r0, [sp, #48]	; 0x30
100021d0:	f008 fb42 	bl	1000a858 <__memmove_veneer>
100021d4:	e7ee      	b.n	100021b4 <cyw43_do_ioctl+0xdc>
100021d6:	46c0      	nop			; (mov r8, r8)
100021d8:	40054000 	.word	0x40054000
100021dc:	000f423f 	.word	0x000f423f
100021e0:	1000a970 	.word	0x1000a970
100021e4:	1000a99c 	.word	0x1000a99c

100021e8 <cyw43_do_ioctl.constprop.0>:
100021e8:	b5f0      	push	{r4, r5, r6, r7, lr}
100021ea:	4645      	mov	r5, r8
100021ec:	4657      	mov	r7, sl
100021ee:	464e      	mov	r6, r9
100021f0:	46de      	mov	lr, fp
100021f2:	4692      	mov	sl, r2
100021f4:	001a      	movs	r2, r3
100021f6:	4698      	mov	r8, r3
100021f8:	2380      	movs	r3, #128	; 0x80
100021fa:	b5e0      	push	{r5, r6, r7, lr}
100021fc:	321c      	adds	r2, #28
100021fe:	0005      	movs	r5, r0
10002200:	4689      	mov	r9, r1
10002202:	b083      	sub	sp, #12
10002204:	011b      	lsls	r3, r3, #4
10002206:	429a      	cmp	r2, r3
10002208:	d81b      	bhi.n	10002242 <cyw43_do_ioctl.constprop.0+0x5a>
1000220a:	4652      	mov	r2, sl
1000220c:	8a03      	ldrh	r3, [r0, #16]
1000220e:	6282      	str	r2, [r0, #40]	; 0x28
10002210:	3301      	adds	r3, #1
10002212:	b29b      	uxth	r3, r3
10002214:	8203      	strh	r3, [r0, #16]
10002216:	4642      	mov	r2, r8
10002218:	041b      	lsls	r3, r3, #16
1000221a:	430b      	orrs	r3, r1
1000221c:	6303      	str	r3, [r0, #48]	; 0x30
1000221e:	2300      	movs	r3, #0
10002220:	0412      	lsls	r2, r2, #16
10002222:	0c12      	lsrs	r2, r2, #16
10002224:	62c2      	str	r2, [r0, #44]	; 0x2c
10002226:	6343      	str	r3, [r0, #52]	; 0x34
10002228:	4642      	mov	r2, r8
1000222a:	990c      	ldr	r1, [sp, #48]	; 0x30
1000222c:	3038      	adds	r0, #56	; 0x38
1000222e:	f005 fe5d 	bl	10007eec <__wrap___aeabi_memcpy>
10002232:	002b      	movs	r3, r5
10002234:	4642      	mov	r2, r8
10002236:	2100      	movs	r1, #0
10002238:	0028      	movs	r0, r5
1000223a:	331c      	adds	r3, #28
1000223c:	3210      	adds	r2, #16
1000223e:	f7ff fed3 	bl	10001fe8 <cyw43_sdpcm_send_common>
10002242:	4e27      	ldr	r6, [pc, #156]	; (100022e0 <cyw43_do_ioctl.constprop.0+0xf8>)
10002244:	4a27      	ldr	r2, [pc, #156]	; (100022e4 <cyw43_do_ioctl.constprop.0+0xfc>)
10002246:	6ab7      	ldr	r7, [r6, #40]	; 0x28
10002248:	6ab3      	ldr	r3, [r6, #40]	; 0x28
1000224a:	1bdb      	subs	r3, r3, r7
1000224c:	4293      	cmp	r3, r2
1000224e:	d82e      	bhi.n	100022ae <cyw43_do_ioctl.constprop.0+0xc6>
10002250:	4b25      	ldr	r3, [pc, #148]	; (100022e8 <cyw43_do_ioctl.constprop.0+0x100>)
10002252:	469b      	mov	fp, r3
10002254:	e010      	b.n	10002278 <cyw43_do_ioctl.constprop.0+0x90>
10002256:	2802      	cmp	r0, #2
10002258:	d020      	beq.n	1000229c <cyw43_do_ioctl.constprop.0+0xb4>
1000225a:	2800      	cmp	r0, #0
1000225c:	db03      	blt.n	10002266 <cyw43_do_ioctl.constprop.0+0x7e>
1000225e:	0001      	movs	r1, r0
10002260:	4658      	mov	r0, fp
10002262:	f006 f849 	bl	100082f8 <__wrap_printf>
10002266:	20fa      	movs	r0, #250	; 0xfa
10002268:	0080      	lsls	r0, r0, #2
1000226a:	f003 f93f 	bl	100054ec <cyw43_await_background_or_timeout_us>
1000226e:	6ab3      	ldr	r3, [r6, #40]	; 0x28
10002270:	4a1c      	ldr	r2, [pc, #112]	; (100022e4 <cyw43_do_ioctl.constprop.0+0xfc>)
10002272:	1bdb      	subs	r3, r3, r7
10002274:	4293      	cmp	r3, r2
10002276:	d81a      	bhi.n	100022ae <cyw43_do_ioctl.constprop.0+0xc6>
10002278:	4669      	mov	r1, sp
1000227a:	0028      	movs	r0, r5
1000227c:	aa01      	add	r2, sp, #4
1000227e:	f7ff fd91 	bl	10001da4 <cyw43_ll_sdpcm_poll_device>
10002282:	1e04      	subs	r4, r0, #0
10002284:	d023      	beq.n	100022ce <cyw43_do_ioctl.constprop.0+0xe6>
10002286:	2801      	cmp	r0, #1
10002288:	d1e5      	bne.n	10002256 <cyw43_do_ioctl.constprop.0+0x6e>
1000228a:	9901      	ldr	r1, [sp, #4]
1000228c:	9800      	ldr	r0, [sp, #0]
1000228e:	f7ff fc9b 	bl	10001bc8 <cyw43_ll_parse_async_event>
10002292:	0001      	movs	r1, r0
10002294:	0028      	movs	r0, r5
10002296:	f001 fa59 	bl	1000374c <cyw43_cb_process_async_event>
1000229a:	e7e4      	b.n	10002266 <cyw43_do_ioctl.constprop.0+0x7e>
1000229c:	9900      	ldr	r1, [sp, #0]
1000229e:	9b01      	ldr	r3, [sp, #4]
100022a0:	004a      	lsls	r2, r1, #1
100022a2:	6828      	ldr	r0, [r5, #0]
100022a4:	0852      	lsrs	r2, r2, #1
100022a6:	0fc9      	lsrs	r1, r1, #31
100022a8:	f003 f96a 	bl	10005580 <cyw43_cb_process_ethernet>
100022ac:	e7db      	b.n	10002266 <cyw43_do_ioctl.constprop.0+0x7e>
100022ae:	4643      	mov	r3, r8
100022b0:	4652      	mov	r2, sl
100022b2:	4649      	mov	r1, r9
100022b4:	2401      	movs	r4, #1
100022b6:	480d      	ldr	r0, [pc, #52]	; (100022ec <cyw43_do_ioctl.constprop.0+0x104>)
100022b8:	f006 f81e 	bl	100082f8 <__wrap_printf>
100022bc:	4264      	negs	r4, r4
100022be:	0020      	movs	r0, r4
100022c0:	b003      	add	sp, #12
100022c2:	bcf0      	pop	{r4, r5, r6, r7}
100022c4:	46bb      	mov	fp, r7
100022c6:	46b2      	mov	sl, r6
100022c8:	46a9      	mov	r9, r5
100022ca:	46a0      	mov	r8, r4
100022cc:	bdf0      	pop	{r4, r5, r6, r7, pc}
100022ce:	9a00      	ldr	r2, [sp, #0]
100022d0:	4542      	cmp	r2, r8
100022d2:	d900      	bls.n	100022d6 <cyw43_do_ioctl.constprop.0+0xee>
100022d4:	4642      	mov	r2, r8
100022d6:	9901      	ldr	r1, [sp, #4]
100022d8:	980c      	ldr	r0, [sp, #48]	; 0x30
100022da:	f008 fabd 	bl	1000a858 <__memmove_veneer>
100022de:	e7ee      	b.n	100022be <cyw43_do_ioctl.constprop.0+0xd6>
100022e0:	40054000 	.word	0x40054000
100022e4:	000f423f 	.word	0x000f423f
100022e8:	1000a970 	.word	0x1000a970
100022ec:	1000a99c 	.word	0x1000a99c

100022f0 <reset_device_core.constprop.0>:
100022f0:	b5f8      	push	{r3, r4, r5, r6, r7, lr}
100022f2:	46ce      	mov	lr, r9
100022f4:	4647      	mov	r7, r8
100022f6:	0004      	movs	r4, r0
100022f8:	000d      	movs	r5, r1
100022fa:	b580      	push	{r7, lr}
100022fc:	2901      	cmp	r1, #1
100022fe:	d100      	bne.n	10002302 <reset_device_core.constprop.0+0x12>
10002300:	e1d4      	b.n	100026ac <reset_device_core.constprop.0+0x3bc>
10002302:	4bd0      	ldr	r3, [pc, #832]	; (10002644 <reset_device_core.constprop.0+0x354>)
10002304:	2790      	movs	r7, #144	; 0x90
10002306:	4698      	mov	r8, r3
10002308:	01ff      	lsls	r7, r7, #7
1000230a:	26c0      	movs	r6, #192	; 0xc0
1000230c:	4641      	mov	r1, r8
1000230e:	0020      	movs	r0, r4
10002310:	f7ff fc28 	bl	10001b64 <cyw43_set_backplane_window>
10002314:	003a      	movs	r2, r7
10002316:	2101      	movs	r1, #1
10002318:	0020      	movs	r0, r4
1000231a:	f7fe ff4b 	bl	100011b4 <cyw43_read_reg_u8>
1000231e:	68a3      	ldr	r3, [r4, #8]
10002320:	0576      	lsls	r6, r6, #21
10002322:	42b3      	cmp	r3, r6
10002324:	d010      	beq.n	10002348 <reset_device_core.constprop.0+0x58>
10002326:	4073      	eors	r3, r6
10002328:	0e1a      	lsrs	r2, r3, #24
1000232a:	d000      	beq.n	1000232e <reset_device_core.constprop.0+0x3e>
1000232c:	e0db      	b.n	100024e6 <reset_device_core.constprop.0+0x1f6>
1000232e:	22ff      	movs	r2, #255	; 0xff
10002330:	0412      	lsls	r2, r2, #16
10002332:	4213      	tst	r3, r2
10002334:	d000      	beq.n	10002338 <reset_device_core.constprop.0+0x48>
10002336:	e0e3      	b.n	10002500 <reset_device_core.constprop.0+0x210>
10002338:	22ff      	movs	r2, #255	; 0xff
1000233a:	0212      	lsls	r2, r2, #8
1000233c:	4213      	tst	r3, r2
1000233e:	d000      	beq.n	10002342 <reset_device_core.constprop.0+0x52>
10002340:	e0ee      	b.n	10002520 <reset_device_core.constprop.0+0x230>
10002342:	23c0      	movs	r3, #192	; 0xc0
10002344:	055b      	lsls	r3, r3, #21
10002346:	60a3      	str	r3, [r4, #8]
10002348:	4641      	mov	r1, r8
1000234a:	0020      	movs	r0, r4
1000234c:	f7ff fc0a 	bl	10001b64 <cyw43_set_backplane_window>
10002350:	003a      	movs	r2, r7
10002352:	2101      	movs	r1, #1
10002354:	0020      	movs	r0, r4
10002356:	f7fe ff2d 	bl	100011b4 <cyw43_read_reg_u8>
1000235a:	22c0      	movs	r2, #192	; 0xc0
1000235c:	68a3      	ldr	r3, [r4, #8]
1000235e:	0552      	lsls	r2, r2, #21
10002360:	0006      	movs	r6, r0
10002362:	4691      	mov	r9, r2
10002364:	4293      	cmp	r3, r2
10002366:	d010      	beq.n	1000238a <reset_device_core.constprop.0+0x9a>
10002368:	4053      	eors	r3, r2
1000236a:	0e1a      	lsrs	r2, r3, #24
1000236c:	d000      	beq.n	10002370 <reset_device_core.constprop.0+0x80>
1000236e:	e193      	b.n	10002698 <reset_device_core.constprop.0+0x3a8>
10002370:	22ff      	movs	r2, #255	; 0xff
10002372:	0412      	lsls	r2, r2, #16
10002374:	4213      	tst	r3, r2
10002376:	d000      	beq.n	1000237a <reset_device_core.constprop.0+0x8a>
10002378:	e182      	b.n	10002680 <reset_device_core.constprop.0+0x390>
1000237a:	22ff      	movs	r2, #255	; 0xff
1000237c:	0212      	lsls	r2, r2, #8
1000237e:	4213      	tst	r3, r2
10002380:	d000      	beq.n	10002384 <reset_device_core.constprop.0+0x94>
10002382:	e175      	b.n	10002670 <reset_device_core.constprop.0+0x380>
10002384:	23c0      	movs	r3, #192	; 0xc0
10002386:	055b      	lsls	r3, r3, #21
10002388:	60a3      	str	r3, [r4, #8]
1000238a:	07f3      	lsls	r3, r6, #31
1000238c:	d400      	bmi.n	10002390 <reset_device_core.constprop.0+0xa0>
1000238e:	e195      	b.n	100026bc <reset_device_core.constprop.0+0x3cc>
10002390:	2d01      	cmp	r5, #1
10002392:	d100      	bne.n	10002396 <reset_device_core.constprop.0+0xa6>
10002394:	e18f      	b.n	100026b6 <reset_device_core.constprop.0+0x3c6>
10002396:	4dac      	ldr	r5, [pc, #688]	; (10002648 <reset_device_core.constprop.0+0x358>)
10002398:	4eac      	ldr	r6, [pc, #688]	; (1000264c <reset_device_core.constprop.0+0x35c>)
1000239a:	0031      	movs	r1, r6
1000239c:	0020      	movs	r0, r4
1000239e:	f7ff fbe1 	bl	10001b64 <cyw43_set_backplane_window>
100023a2:	2303      	movs	r3, #3
100023a4:	002a      	movs	r2, r5
100023a6:	2101      	movs	r1, #1
100023a8:	0020      	movs	r0, r4
100023aa:	f7ff fa29 	bl	10001800 <cyw43_write_reg_u8>
100023ae:	22c0      	movs	r2, #192	; 0xc0
100023b0:	68a3      	ldr	r3, [r4, #8]
100023b2:	0552      	lsls	r2, r2, #21
100023b4:	4691      	mov	r9, r2
100023b6:	4293      	cmp	r3, r2
100023b8:	d010      	beq.n	100023dc <reset_device_core.constprop.0+0xec>
100023ba:	4053      	eors	r3, r2
100023bc:	0e1a      	lsrs	r2, r3, #24
100023be:	d000      	beq.n	100023c2 <reset_device_core.constprop.0+0xd2>
100023c0:	e14c      	b.n	1000265c <reset_device_core.constprop.0+0x36c>
100023c2:	22ff      	movs	r2, #255	; 0xff
100023c4:	0412      	lsls	r2, r2, #16
100023c6:	4213      	tst	r3, r2
100023c8:	d000      	beq.n	100023cc <reset_device_core.constprop.0+0xdc>
100023ca:	e12e      	b.n	1000262a <reset_device_core.constprop.0+0x33a>
100023cc:	22ff      	movs	r2, #255	; 0xff
100023ce:	0212      	lsls	r2, r2, #8
100023d0:	4213      	tst	r3, r2
100023d2:	d000      	beq.n	100023d6 <reset_device_core.constprop.0+0xe6>
100023d4:	e121      	b.n	1000261a <reset_device_core.constprop.0+0x32a>
100023d6:	23c0      	movs	r3, #192	; 0xc0
100023d8:	055b      	lsls	r3, r3, #21
100023da:	60a3      	str	r3, [r4, #8]
100023dc:	0031      	movs	r1, r6
100023de:	0020      	movs	r0, r4
100023e0:	f7ff fbc0 	bl	10001b64 <cyw43_set_backplane_window>
100023e4:	002a      	movs	r2, r5
100023e6:	2101      	movs	r1, #1
100023e8:	0020      	movs	r0, r4
100023ea:	f7fe fee3 	bl	100011b4 <cyw43_read_reg_u8>
100023ee:	22c0      	movs	r2, #192	; 0xc0
100023f0:	68a3      	ldr	r3, [r4, #8]
100023f2:	0552      	lsls	r2, r2, #21
100023f4:	4691      	mov	r9, r2
100023f6:	4293      	cmp	r3, r2
100023f8:	d010      	beq.n	1000241c <reset_device_core.constprop.0+0x12c>
100023fa:	4053      	eors	r3, r2
100023fc:	0e1a      	lsrs	r2, r3, #24
100023fe:	d000      	beq.n	10002402 <reset_device_core.constprop.0+0x112>
10002400:	e101      	b.n	10002606 <reset_device_core.constprop.0+0x316>
10002402:	22ff      	movs	r2, #255	; 0xff
10002404:	0412      	lsls	r2, r2, #16
10002406:	4213      	tst	r3, r2
10002408:	d000      	beq.n	1000240c <reset_device_core.constprop.0+0x11c>
1000240a:	e0f0      	b.n	100025ee <reset_device_core.constprop.0+0x2fe>
1000240c:	22ff      	movs	r2, #255	; 0xff
1000240e:	0212      	lsls	r2, r2, #8
10002410:	4213      	tst	r3, r2
10002412:	d000      	beq.n	10002416 <reset_device_core.constprop.0+0x126>
10002414:	e0e3      	b.n	100025de <reset_device_core.constprop.0+0x2ee>
10002416:	23c0      	movs	r3, #192	; 0xc0
10002418:	055b      	lsls	r3, r3, #21
1000241a:	60a3      	str	r3, [r4, #8]
1000241c:	4641      	mov	r1, r8
1000241e:	0020      	movs	r0, r4
10002420:	f7ff fba0 	bl	10001b64 <cyw43_set_backplane_window>
10002424:	003a      	movs	r2, r7
10002426:	27c0      	movs	r7, #192	; 0xc0
10002428:	2300      	movs	r3, #0
1000242a:	2101      	movs	r1, #1
1000242c:	0020      	movs	r0, r4
1000242e:	f7ff f9e7 	bl	10001800 <cyw43_write_reg_u8>
10002432:	68a3      	ldr	r3, [r4, #8]
10002434:	057f      	lsls	r7, r7, #21
10002436:	42bb      	cmp	r3, r7
10002438:	d010      	beq.n	1000245c <reset_device_core.constprop.0+0x16c>
1000243a:	407b      	eors	r3, r7
1000243c:	0e1a      	lsrs	r2, r3, #24
1000243e:	d000      	beq.n	10002442 <reset_device_core.constprop.0+0x152>
10002440:	e0c4      	b.n	100025cc <reset_device_core.constprop.0+0x2dc>
10002442:	22ff      	movs	r2, #255	; 0xff
10002444:	0412      	lsls	r2, r2, #16
10002446:	4213      	tst	r3, r2
10002448:	d000      	beq.n	1000244c <reset_device_core.constprop.0+0x15c>
1000244a:	e0b3      	b.n	100025b4 <reset_device_core.constprop.0+0x2c4>
1000244c:	22ff      	movs	r2, #255	; 0xff
1000244e:	0212      	lsls	r2, r2, #8
10002450:	4213      	tst	r3, r2
10002452:	d000      	beq.n	10002456 <reset_device_core.constprop.0+0x166>
10002454:	e0a6      	b.n	100025a4 <reset_device_core.constprop.0+0x2b4>
10002456:	23c0      	movs	r3, #192	; 0xc0
10002458:	055b      	lsls	r3, r3, #21
1000245a:	60a3      	str	r3, [r4, #8]
1000245c:	27c0      	movs	r7, #192	; 0xc0
1000245e:	2001      	movs	r0, #1
10002460:	f003 f85e 	bl	10005520 <cyw43_delay_ms>
10002464:	0031      	movs	r1, r6
10002466:	0020      	movs	r0, r4
10002468:	f7ff fb7c 	bl	10001b64 <cyw43_set_backplane_window>
1000246c:	2301      	movs	r3, #1
1000246e:	002a      	movs	r2, r5
10002470:	2101      	movs	r1, #1
10002472:	0020      	movs	r0, r4
10002474:	f7ff f9c4 	bl	10001800 <cyw43_write_reg_u8>
10002478:	68a3      	ldr	r3, [r4, #8]
1000247a:	057f      	lsls	r7, r7, #21
1000247c:	42bb      	cmp	r3, r7
1000247e:	d00f      	beq.n	100024a0 <reset_device_core.constprop.0+0x1b0>
10002480:	407b      	eors	r3, r7
10002482:	0e1a      	lsrs	r2, r3, #24
10002484:	d000      	beq.n	10002488 <reset_device_core.constprop.0+0x198>
10002486:	e084      	b.n	10002592 <reset_device_core.constprop.0+0x2a2>
10002488:	22ff      	movs	r2, #255	; 0xff
1000248a:	0412      	lsls	r2, r2, #16
1000248c:	4213      	tst	r3, r2
1000248e:	d000      	beq.n	10002492 <reset_device_core.constprop.0+0x1a2>
10002490:	e073      	b.n	1000257a <reset_device_core.constprop.0+0x28a>
10002492:	22ff      	movs	r2, #255	; 0xff
10002494:	0212      	lsls	r2, r2, #8
10002496:	4213      	tst	r3, r2
10002498:	d167      	bne.n	1000256a <reset_device_core.constprop.0+0x27a>
1000249a:	23c0      	movs	r3, #192	; 0xc0
1000249c:	055b      	lsls	r3, r3, #21
1000249e:	60a3      	str	r3, [r4, #8]
100024a0:	0031      	movs	r1, r6
100024a2:	0020      	movs	r0, r4
100024a4:	f7ff fb5e 	bl	10001b64 <cyw43_set_backplane_window>
100024a8:	002a      	movs	r2, r5
100024aa:	25c0      	movs	r5, #192	; 0xc0
100024ac:	2101      	movs	r1, #1
100024ae:	0020      	movs	r0, r4
100024b0:	f7fe fe80 	bl	100011b4 <cyw43_read_reg_u8>
100024b4:	68a3      	ldr	r3, [r4, #8]
100024b6:	056d      	lsls	r5, r5, #21
100024b8:	42ab      	cmp	r3, r5
100024ba:	d00d      	beq.n	100024d8 <reset_device_core.constprop.0+0x1e8>
100024bc:	406b      	eors	r3, r5
100024be:	0e1a      	lsrs	r2, r3, #24
100024c0:	d14a      	bne.n	10002558 <reset_device_core.constprop.0+0x268>
100024c2:	22ff      	movs	r2, #255	; 0xff
100024c4:	0412      	lsls	r2, r2, #16
100024c6:	4213      	tst	r3, r2
100024c8:	d13a      	bne.n	10002540 <reset_device_core.constprop.0+0x250>
100024ca:	22ff      	movs	r2, #255	; 0xff
100024cc:	0212      	lsls	r2, r2, #8
100024ce:	4213      	tst	r3, r2
100024d0:	d12e      	bne.n	10002530 <reset_device_core.constprop.0+0x240>
100024d2:	23c0      	movs	r3, #192	; 0xc0
100024d4:	055b      	lsls	r3, r3, #21
100024d6:	60a3      	str	r3, [r4, #8]
100024d8:	2001      	movs	r0, #1
100024da:	f003 f821 	bl	10005520 <cyw43_delay_ms>
100024de:	bcc0      	pop	{r6, r7}
100024e0:	46b9      	mov	r9, r7
100024e2:	46b0      	mov	r8, r6
100024e4:	bdf8      	pop	{r3, r4, r5, r6, r7, pc}
100024e6:	2318      	movs	r3, #24
100024e8:	4a59      	ldr	r2, [pc, #356]	; (10002650 <reset_device_core.constprop.0+0x360>)
100024ea:	2101      	movs	r1, #1
100024ec:	0020      	movs	r0, r4
100024ee:	f7ff f987 	bl	10001800 <cyw43_write_reg_u8>
100024f2:	22ff      	movs	r2, #255	; 0xff
100024f4:	68a3      	ldr	r3, [r4, #8]
100024f6:	0412      	lsls	r2, r2, #16
100024f8:	4073      	eors	r3, r6
100024fa:	4213      	tst	r3, r2
100024fc:	d100      	bne.n	10002500 <reset_device_core.constprop.0+0x210>
100024fe:	e71b      	b.n	10002338 <reset_device_core.constprop.0+0x48>
10002500:	23c0      	movs	r3, #192	; 0xc0
10002502:	4a54      	ldr	r2, [pc, #336]	; (10002654 <reset_device_core.constprop.0+0x364>)
10002504:	015b      	lsls	r3, r3, #5
10002506:	2101      	movs	r1, #1
10002508:	0020      	movs	r0, r4
1000250a:	f7ff f979 	bl	10001800 <cyw43_write_reg_u8>
1000250e:	23c0      	movs	r3, #192	; 0xc0
10002510:	68a2      	ldr	r2, [r4, #8]
10002512:	055b      	lsls	r3, r3, #21
10002514:	4053      	eors	r3, r2
10002516:	22ff      	movs	r2, #255	; 0xff
10002518:	0212      	lsls	r2, r2, #8
1000251a:	4213      	tst	r3, r2
1000251c:	d100      	bne.n	10002520 <reset_device_core.constprop.0+0x230>
1000251e:	e710      	b.n	10002342 <reset_device_core.constprop.0+0x52>
10002520:	23c0      	movs	r3, #192	; 0xc0
10002522:	2101      	movs	r1, #1
10002524:	0020      	movs	r0, r4
10002526:	4a4c      	ldr	r2, [pc, #304]	; (10002658 <reset_device_core.constprop.0+0x368>)
10002528:	035b      	lsls	r3, r3, #13
1000252a:	f7ff f969 	bl	10001800 <cyw43_write_reg_u8>
1000252e:	e708      	b.n	10002342 <reset_device_core.constprop.0+0x52>
10002530:	23c0      	movs	r3, #192	; 0xc0
10002532:	2101      	movs	r1, #1
10002534:	0020      	movs	r0, r4
10002536:	4a48      	ldr	r2, [pc, #288]	; (10002658 <reset_device_core.constprop.0+0x368>)
10002538:	035b      	lsls	r3, r3, #13
1000253a:	f7ff f961 	bl	10001800 <cyw43_write_reg_u8>
1000253e:	e7c8      	b.n	100024d2 <reset_device_core.constprop.0+0x1e2>
10002540:	23c0      	movs	r3, #192	; 0xc0
10002542:	4a44      	ldr	r2, [pc, #272]	; (10002654 <reset_device_core.constprop.0+0x364>)
10002544:	015b      	lsls	r3, r3, #5
10002546:	2101      	movs	r1, #1
10002548:	0020      	movs	r0, r4
1000254a:	f7ff f959 	bl	10001800 <cyw43_write_reg_u8>
1000254e:	23c0      	movs	r3, #192	; 0xc0
10002550:	68a2      	ldr	r2, [r4, #8]
10002552:	055b      	lsls	r3, r3, #21
10002554:	4053      	eors	r3, r2
10002556:	e7b8      	b.n	100024ca <reset_device_core.constprop.0+0x1da>
10002558:	2318      	movs	r3, #24
1000255a:	2101      	movs	r1, #1
1000255c:	0020      	movs	r0, r4
1000255e:	4a3c      	ldr	r2, [pc, #240]	; (10002650 <reset_device_core.constprop.0+0x360>)
10002560:	f7ff f94e 	bl	10001800 <cyw43_write_reg_u8>
10002564:	68a3      	ldr	r3, [r4, #8]
10002566:	406b      	eors	r3, r5
10002568:	e7ab      	b.n	100024c2 <reset_device_core.constprop.0+0x1d2>
1000256a:	23c0      	movs	r3, #192	; 0xc0
1000256c:	2101      	movs	r1, #1
1000256e:	0020      	movs	r0, r4
10002570:	4a39      	ldr	r2, [pc, #228]	; (10002658 <reset_device_core.constprop.0+0x368>)
10002572:	035b      	lsls	r3, r3, #13
10002574:	f7ff f944 	bl	10001800 <cyw43_write_reg_u8>
10002578:	e78f      	b.n	1000249a <reset_device_core.constprop.0+0x1aa>
1000257a:	23c0      	movs	r3, #192	; 0xc0
1000257c:	4a35      	ldr	r2, [pc, #212]	; (10002654 <reset_device_core.constprop.0+0x364>)
1000257e:	015b      	lsls	r3, r3, #5
10002580:	2101      	movs	r1, #1
10002582:	0020      	movs	r0, r4
10002584:	f7ff f93c 	bl	10001800 <cyw43_write_reg_u8>
10002588:	23c0      	movs	r3, #192	; 0xc0
1000258a:	68a2      	ldr	r2, [r4, #8]
1000258c:	055b      	lsls	r3, r3, #21
1000258e:	4053      	eors	r3, r2
10002590:	e77f      	b.n	10002492 <reset_device_core.constprop.0+0x1a2>
10002592:	2318      	movs	r3, #24
10002594:	2101      	movs	r1, #1
10002596:	0020      	movs	r0, r4
10002598:	4a2d      	ldr	r2, [pc, #180]	; (10002650 <reset_device_core.constprop.0+0x360>)
1000259a:	f7ff f931 	bl	10001800 <cyw43_write_reg_u8>
1000259e:	68a3      	ldr	r3, [r4, #8]
100025a0:	407b      	eors	r3, r7
100025a2:	e771      	b.n	10002488 <reset_device_core.constprop.0+0x198>
100025a4:	23c0      	movs	r3, #192	; 0xc0
100025a6:	2101      	movs	r1, #1
100025a8:	0020      	movs	r0, r4
100025aa:	4a2b      	ldr	r2, [pc, #172]	; (10002658 <reset_device_core.constprop.0+0x368>)
100025ac:	035b      	lsls	r3, r3, #13
100025ae:	f7ff f927 	bl	10001800 <cyw43_write_reg_u8>
100025b2:	e750      	b.n	10002456 <reset_device_core.constprop.0+0x166>
100025b4:	23c0      	movs	r3, #192	; 0xc0
100025b6:	4a27      	ldr	r2, [pc, #156]	; (10002654 <reset_device_core.constprop.0+0x364>)
100025b8:	015b      	lsls	r3, r3, #5
100025ba:	2101      	movs	r1, #1
100025bc:	0020      	movs	r0, r4
100025be:	f7ff f91f 	bl	10001800 <cyw43_write_reg_u8>
100025c2:	23c0      	movs	r3, #192	; 0xc0
100025c4:	68a2      	ldr	r2, [r4, #8]
100025c6:	055b      	lsls	r3, r3, #21
100025c8:	4053      	eors	r3, r2
100025ca:	e73f      	b.n	1000244c <reset_device_core.constprop.0+0x15c>
100025cc:	2318      	movs	r3, #24
100025ce:	2101      	movs	r1, #1
100025d0:	0020      	movs	r0, r4
100025d2:	4a1f      	ldr	r2, [pc, #124]	; (10002650 <reset_device_core.constprop.0+0x360>)
100025d4:	f7ff f914 	bl	10001800 <cyw43_write_reg_u8>
100025d8:	68a3      	ldr	r3, [r4, #8]
100025da:	407b      	eors	r3, r7
100025dc:	e731      	b.n	10002442 <reset_device_core.constprop.0+0x152>
100025de:	23c0      	movs	r3, #192	; 0xc0
100025e0:	2101      	movs	r1, #1
100025e2:	0020      	movs	r0, r4
100025e4:	4a1c      	ldr	r2, [pc, #112]	; (10002658 <reset_device_core.constprop.0+0x368>)
100025e6:	035b      	lsls	r3, r3, #13
100025e8:	f7ff f90a 	bl	10001800 <cyw43_write_reg_u8>
100025ec:	e713      	b.n	10002416 <reset_device_core.constprop.0+0x126>
100025ee:	23c0      	movs	r3, #192	; 0xc0
100025f0:	4a18      	ldr	r2, [pc, #96]	; (10002654 <reset_device_core.constprop.0+0x364>)
100025f2:	015b      	lsls	r3, r3, #5
100025f4:	2101      	movs	r1, #1
100025f6:	0020      	movs	r0, r4
100025f8:	f7ff f902 	bl	10001800 <cyw43_write_reg_u8>
100025fc:	23c0      	movs	r3, #192	; 0xc0
100025fe:	68a2      	ldr	r2, [r4, #8]
10002600:	055b      	lsls	r3, r3, #21
10002602:	4053      	eors	r3, r2
10002604:	e702      	b.n	1000240c <reset_device_core.constprop.0+0x11c>
10002606:	2318      	movs	r3, #24
10002608:	4a11      	ldr	r2, [pc, #68]	; (10002650 <reset_device_core.constprop.0+0x360>)
1000260a:	2101      	movs	r1, #1
1000260c:	0020      	movs	r0, r4
1000260e:	f7ff f8f7 	bl	10001800 <cyw43_write_reg_u8>
10002612:	464b      	mov	r3, r9
10002614:	68a2      	ldr	r2, [r4, #8]
10002616:	4053      	eors	r3, r2
10002618:	e6f3      	b.n	10002402 <reset_device_core.constprop.0+0x112>
1000261a:	23c0      	movs	r3, #192	; 0xc0
1000261c:	2101      	movs	r1, #1
1000261e:	0020      	movs	r0, r4
10002620:	4a0d      	ldr	r2, [pc, #52]	; (10002658 <reset_device_core.constprop.0+0x368>)
10002622:	035b      	lsls	r3, r3, #13
10002624:	f7ff f8ec 	bl	10001800 <cyw43_write_reg_u8>
10002628:	e6d5      	b.n	100023d6 <reset_device_core.constprop.0+0xe6>
1000262a:	23c0      	movs	r3, #192	; 0xc0
1000262c:	4a09      	ldr	r2, [pc, #36]	; (10002654 <reset_device_core.constprop.0+0x364>)
1000262e:	015b      	lsls	r3, r3, #5
10002630:	2101      	movs	r1, #1
10002632:	0020      	movs	r0, r4
10002634:	f7ff f8e4 	bl	10001800 <cyw43_write_reg_u8>
10002638:	23c0      	movs	r3, #192	; 0xc0
1000263a:	68a2      	ldr	r2, [r4, #8]
1000263c:	055b      	lsls	r3, r3, #21
1000263e:	4053      	eors	r3, r2
10002640:	e6c4      	b.n	100023cc <reset_device_core.constprop.0+0xdc>
10002642:	46c0      	nop			; (mov r8, r8)
10002644:	18104800 	.word	0x18104800
10002648:	00004408 	.word	0x00004408
1000264c:	18104408 	.word	0x18104408
10002650:	0001000c 	.word	0x0001000c
10002654:	0001000b 	.word	0x0001000b
10002658:	0001000a 	.word	0x0001000a
1000265c:	2318      	movs	r3, #24
1000265e:	4a19      	ldr	r2, [pc, #100]	; (100026c4 <reset_device_core.constprop.0+0x3d4>)
10002660:	2101      	movs	r1, #1
10002662:	0020      	movs	r0, r4
10002664:	f7ff f8cc 	bl	10001800 <cyw43_write_reg_u8>
10002668:	464b      	mov	r3, r9
1000266a:	68a2      	ldr	r2, [r4, #8]
1000266c:	4053      	eors	r3, r2
1000266e:	e6a8      	b.n	100023c2 <reset_device_core.constprop.0+0xd2>
10002670:	23c0      	movs	r3, #192	; 0xc0
10002672:	2101      	movs	r1, #1
10002674:	0020      	movs	r0, r4
10002676:	4a14      	ldr	r2, [pc, #80]	; (100026c8 <reset_device_core.constprop.0+0x3d8>)
10002678:	035b      	lsls	r3, r3, #13
1000267a:	f7ff f8c1 	bl	10001800 <cyw43_write_reg_u8>
1000267e:	e681      	b.n	10002384 <reset_device_core.constprop.0+0x94>
10002680:	23c0      	movs	r3, #192	; 0xc0
10002682:	4a12      	ldr	r2, [pc, #72]	; (100026cc <reset_device_core.constprop.0+0x3dc>)
10002684:	015b      	lsls	r3, r3, #5
10002686:	2101      	movs	r1, #1
10002688:	0020      	movs	r0, r4
1000268a:	f7ff f8b9 	bl	10001800 <cyw43_write_reg_u8>
1000268e:	23c0      	movs	r3, #192	; 0xc0
10002690:	68a2      	ldr	r2, [r4, #8]
10002692:	055b      	lsls	r3, r3, #21
10002694:	4053      	eors	r3, r2
10002696:	e670      	b.n	1000237a <reset_device_core.constprop.0+0x8a>
10002698:	2318      	movs	r3, #24
1000269a:	4a0a      	ldr	r2, [pc, #40]	; (100026c4 <reset_device_core.constprop.0+0x3d4>)
1000269c:	2101      	movs	r1, #1
1000269e:	0020      	movs	r0, r4
100026a0:	f7ff f8ae 	bl	10001800 <cyw43_write_reg_u8>
100026a4:	464b      	mov	r3, r9
100026a6:	68a2      	ldr	r2, [r4, #8]
100026a8:	4053      	eors	r3, r2
100026aa:	e661      	b.n	10002370 <reset_device_core.constprop.0+0x80>
100026ac:	27e0      	movs	r7, #224	; 0xe0
100026ae:	4b08      	ldr	r3, [pc, #32]	; (100026d0 <reset_device_core.constprop.0+0x3e0>)
100026b0:	01bf      	lsls	r7, r7, #6
100026b2:	4698      	mov	r8, r3
100026b4:	e629      	b.n	1000230a <reset_device_core.constprop.0+0x1a>
100026b6:	4d07      	ldr	r5, [pc, #28]	; (100026d4 <reset_device_core.constprop.0+0x3e4>)
100026b8:	4e07      	ldr	r6, [pc, #28]	; (100026d8 <reset_device_core.constprop.0+0x3e8>)
100026ba:	e66e      	b.n	1000239a <reset_device_core.constprop.0+0xaa>
100026bc:	4807      	ldr	r0, [pc, #28]	; (100026dc <reset_device_core.constprop.0+0x3ec>)
100026be:	f005 fd79 	bl	100081b4 <__wrap_puts>
100026c2:	e665      	b.n	10002390 <reset_device_core.constprop.0+0xa0>
100026c4:	0001000c 	.word	0x0001000c
100026c8:	0001000a 	.word	0x0001000a
100026cc:	0001000b 	.word	0x0001000b
100026d0:	18103800 	.word	0x18103800
100026d4:	00003408 	.word	0x00003408
100026d8:	18103408 	.word	0x18103408
100026dc:	1000a9c8 	.word	0x1000a9c8

100026e0 <cyw43_ll_init>:
100026e0:	2280      	movs	r2, #128	; 0x80
100026e2:	0052      	lsls	r2, r2, #1
100026e4:	8182      	strh	r2, [r0, #12]
100026e6:	2284      	movs	r2, #132	; 0x84
100026e8:	2300      	movs	r3, #0
100026ea:	0112      	lsls	r2, r2, #4
100026ec:	6001      	str	r1, [r0, #0]
100026ee:	6083      	str	r3, [r0, #8]
100026f0:	7383      	strb	r3, [r0, #14]
100026f2:	6103      	str	r3, [r0, #16]
100026f4:	5083      	str	r3, [r0, r2]
100026f6:	4770      	bx	lr

100026f8 <cyw43_ll_deinit>:
100026f8:	b510      	push	{r4, lr}
100026fa:	f7fe fa65 	bl	10000bc8 <cyw43_spi_deinit>
100026fe:	bd10      	pop	{r4, pc}

10002700 <cyw43_ll_process_packets>:
10002700:	b530      	push	{r4, r5, lr}
10002702:	0004      	movs	r4, r0
10002704:	4d17      	ldr	r5, [pc, #92]	; (10002764 <cyw43_ll_process_packets+0x64>)
10002706:	b083      	sub	sp, #12
10002708:	4669      	mov	r1, sp
1000270a:	0020      	movs	r0, r4
1000270c:	aa01      	add	r2, sp, #4
1000270e:	f7ff fb49 	bl	10001da4 <cyw43_ll_sdpcm_poll_device>
10002712:	0001      	movs	r1, r0
10002714:	1c43      	adds	r3, r0, #1
10002716:	d010      	beq.n	1000273a <cyw43_ll_process_packets+0x3a>
10002718:	1d03      	adds	r3, r0, #4
1000271a:	d0f5      	beq.n	10002708 <cyw43_ll_process_packets+0x8>
1000271c:	2801      	cmp	r0, #1
1000271e:	d017      	beq.n	10002750 <cyw43_ll_process_packets+0x50>
10002720:	2802      	cmp	r0, #2
10002722:	d00c      	beq.n	1000273e <cyw43_ll_process_packets+0x3e>
10002724:	0028      	movs	r0, r5
10002726:	f005 fde7 	bl	100082f8 <__wrap_printf>
1000272a:	4669      	mov	r1, sp
1000272c:	0020      	movs	r0, r4
1000272e:	aa01      	add	r2, sp, #4
10002730:	f7ff fb38 	bl	10001da4 <cyw43_ll_sdpcm_poll_device>
10002734:	0001      	movs	r1, r0
10002736:	1c43      	adds	r3, r0, #1
10002738:	d1ee      	bne.n	10002718 <cyw43_ll_process_packets+0x18>
1000273a:	b003      	add	sp, #12
1000273c:	bd30      	pop	{r4, r5, pc}
1000273e:	9900      	ldr	r1, [sp, #0]
10002740:	9b01      	ldr	r3, [sp, #4]
10002742:	004a      	lsls	r2, r1, #1
10002744:	6820      	ldr	r0, [r4, #0]
10002746:	0852      	lsrs	r2, r2, #1
10002748:	0fc9      	lsrs	r1, r1, #31
1000274a:	f002 ff19 	bl	10005580 <cyw43_cb_process_ethernet>
1000274e:	e7db      	b.n	10002708 <cyw43_ll_process_packets+0x8>
10002750:	9901      	ldr	r1, [sp, #4]
10002752:	9800      	ldr	r0, [sp, #0]
10002754:	f7ff fa38 	bl	10001bc8 <cyw43_ll_parse_async_event>
10002758:	0001      	movs	r1, r0
1000275a:	0020      	movs	r0, r4
1000275c:	f000 fff6 	bl	1000374c <cyw43_cb_process_async_event>
10002760:	e7d2      	b.n	10002708 <cyw43_ll_process_packets+0x8>
10002762:	46c0      	nop			; (mov r8, r8)
10002764:	1000a9e4 	.word	0x1000a9e4

10002768 <cyw43_ll_ioctl>:
10002768:	b530      	push	{r4, r5, lr}
1000276a:	2402      	movs	r4, #2
1000276c:	0015      	movs	r5, r2
1000276e:	b083      	sub	sp, #12
10002770:	084a      	lsrs	r2, r1, #1
10002772:	0049      	lsls	r1, r1, #1
10002774:	4021      	ands	r1, r4
10002776:	9c06      	ldr	r4, [sp, #24]
10002778:	9300      	str	r3, [sp, #0]
1000277a:	9401      	str	r4, [sp, #4]
1000277c:	002b      	movs	r3, r5
1000277e:	f7ff fcab 	bl	100020d8 <cyw43_do_ioctl>
10002782:	b003      	add	sp, #12
10002784:	bd30      	pop	{r4, r5, pc}
10002786:	46c0      	nop			; (mov r8, r8)

10002788 <cyw43_ll_bus_sleep>:
10002788:	b510      	push	{r4, lr}
1000278a:	0004      	movs	r4, r0
1000278c:	2900      	cmp	r1, #0
1000278e:	d009      	beq.n	100027a4 <cyw43_ll_bus_sleep+0x1c>
10002790:	7c83      	ldrb	r3, [r0, #18]
10002792:	2b00      	cmp	r3, #0
10002794:	d100      	bne.n	10002798 <cyw43_ll_bus_sleep+0x10>
10002796:	bd10      	pop	{r4, pc}
10002798:	2300      	movs	r3, #0
1000279a:	2100      	movs	r1, #0
1000279c:	7483      	strb	r3, [r0, #18]
1000279e:	f7ff fab1 	bl	10001d04 <cyw43_kso_set>
100027a2:	e7f8      	b.n	10002796 <cyw43_ll_bus_sleep+0xe>
100027a4:	f000 ffcc 	bl	10003740 <cyw43_cb_ensure_awake>
100027a8:	7ca3      	ldrb	r3, [r4, #18]
100027aa:	2b00      	cmp	r3, #0
100027ac:	d1f3      	bne.n	10002796 <cyw43_ll_bus_sleep+0xe>
100027ae:	2101      	movs	r1, #1
100027b0:	0020      	movs	r0, r4
100027b2:	f7ff faa7 	bl	10001d04 <cyw43_kso_set>
100027b6:	2301      	movs	r3, #1
100027b8:	74a3      	strb	r3, [r4, #18]
100027ba:	e7ec      	b.n	10002796 <cyw43_ll_bus_sleep+0xe>

100027bc <cyw43_ll_bus_init>:
100027bc:	b5f0      	push	{r4, r5, r6, r7, lr}
100027be:	464e      	mov	r6, r9
100027c0:	46de      	mov	lr, fp
100027c2:	4657      	mov	r7, sl
100027c4:	4645      	mov	r5, r8
100027c6:	b5e0      	push	{r5, r6, r7, lr}
100027c8:	4bbc      	ldr	r3, [pc, #752]	; (10002abc <cyw43_ll_bus_init+0x300>)
100027ca:	b087      	sub	sp, #28
100027cc:	6a9b      	ldr	r3, [r3, #40]	; 0x28
100027ce:	0004      	movs	r4, r0
100027d0:	6043      	str	r3, [r0, #4]
100027d2:	4689      	mov	r9, r1
100027d4:	f7fe f918 	bl	10000a08 <cyw43_spi_init>
100027d8:	2800      	cmp	r0, #0
100027da:	d112      	bne.n	10002802 <cyw43_ll_bus_init+0x46>
100027dc:	f7fe fc2e 	bl	1000103c <cyw43_spi_gpio_setup>
100027e0:	250a      	movs	r5, #10
100027e2:	f7fe fc49 	bl	10001078 <cyw43_spi_reset>
100027e6:	4eb6      	ldr	r6, [pc, #728]	; (10002ac0 <cyw43_ll_bus_init+0x304>)
100027e8:	2214      	movs	r2, #20
100027ea:	2100      	movs	r1, #0
100027ec:	0020      	movs	r0, r4
100027ee:	f7fe fc57 	bl	100010a0 <read_reg_u32_swap>
100027f2:	42b0      	cmp	r0, r6
100027f4:	d013      	beq.n	1000281e <cyw43_ll_bus_init+0x62>
100027f6:	2001      	movs	r0, #1
100027f8:	3d01      	subs	r5, #1
100027fa:	f002 fe91 	bl	10005520 <cyw43_delay_ms>
100027fe:	2d00      	cmp	r5, #0
10002800:	d1f2      	bne.n	100027e8 <cyw43_ll_bus_init+0x2c>
10002802:	48b0      	ldr	r0, [pc, #704]	; (10002ac4 <cyw43_ll_bus_init+0x308>)
10002804:	f005 fcd6 	bl	100081b4 <__wrap_puts>
10002808:	2306      	movs	r3, #6
1000280a:	425b      	negs	r3, r3
1000280c:	4698      	mov	r8, r3
1000280e:	4640      	mov	r0, r8
10002810:	b007      	add	sp, #28
10002812:	bcf0      	pop	{r4, r5, r6, r7}
10002814:	46bb      	mov	fp, r7
10002816:	46b2      	mov	sl, r6
10002818:	46a9      	mov	r9, r5
1000281a:	46a0      	mov	r8, r4
1000281c:	bdf0      	pop	{r4, r5, r6, r7, pc}
1000281e:	2200      	movs	r2, #0
10002820:	2100      	movs	r1, #0
10002822:	0020      	movs	r0, r4
10002824:	4ba8      	ldr	r3, [pc, #672]	; (10002ac8 <cyw43_ll_bus_init+0x30c>)
10002826:	f7fe fcfb 	bl	10001220 <write_reg_u32_swap>
1000282a:	2800      	cmp	r0, #0
1000282c:	d1e9      	bne.n	10002802 <cyw43_ll_bus_init+0x46>
1000282e:	2200      	movs	r2, #0
10002830:	2100      	movs	r1, #0
10002832:	0020      	movs	r0, r4
10002834:	f7fe fc52 	bl	100010dc <cyw43_read_reg_u32>
10002838:	2304      	movs	r3, #4
1000283a:	221d      	movs	r2, #29
1000283c:	2100      	movs	r1, #0
1000283e:	0020      	movs	r0, r4
10002840:	f7fe ffde 	bl	10001800 <cyw43_write_reg_u8>
10002844:	2800      	cmp	r0, #0
10002846:	d1dc      	bne.n	10002802 <cyw43_ll_bus_init+0x46>
10002848:	2399      	movs	r3, #153	; 0x99
1000284a:	2204      	movs	r2, #4
1000284c:	2100      	movs	r1, #0
1000284e:	0020      	movs	r0, r4
10002850:	f7fe ffd6 	bl	10001800 <cyw43_write_reg_u8>
10002854:	2800      	cmp	r0, #0
10002856:	d1d4      	bne.n	10002802 <cyw43_ll_bus_init+0x46>
10002858:	23be      	movs	r3, #190	; 0xbe
1000285a:	2206      	movs	r2, #6
1000285c:	2100      	movs	r1, #0
1000285e:	0020      	movs	r0, r4
10002860:	f7fe fece 	bl	10001600 <cyw43_write_reg_u16>
10002864:	4680      	mov	r8, r0
10002866:	1e03      	subs	r3, r0, #0
10002868:	d1cb      	bne.n	10002802 <cyw43_ll_bus_init+0x46>
1000286a:	2101      	movs	r1, #1
1000286c:	0020      	movs	r0, r4
1000286e:	4a97      	ldr	r2, [pc, #604]	; (10002acc <cyw43_ll_bus_init+0x310>)
10002870:	3308      	adds	r3, #8
10002872:	f7fe ffc5 	bl	10001800 <cyw43_write_reg_u8>
10002876:	250a      	movs	r5, #10
10002878:	2640      	movs	r6, #64	; 0x40
1000287a:	2101      	movs	r1, #1
1000287c:	0020      	movs	r0, r4
1000287e:	4a93      	ldr	r2, [pc, #588]	; (10002acc <cyw43_ll_bus_init+0x310>)
10002880:	f7fe fc98 	bl	100011b4 <cyw43_read_reg_u8>
10002884:	4206      	tst	r6, r0
10002886:	d10c      	bne.n	100028a2 <cyw43_ll_bus_init+0xe6>
10002888:	2001      	movs	r0, #1
1000288a:	3d01      	subs	r5, #1
1000288c:	f002 fe48 	bl	10005520 <cyw43_delay_ms>
10002890:	2d00      	cmp	r5, #0
10002892:	d1f2      	bne.n	1000287a <cyw43_ll_bus_init+0xbe>
10002894:	488e      	ldr	r0, [pc, #568]	; (10002ad0 <cyw43_ll_bus_init+0x314>)
10002896:	f005 fc8d 	bl	100081b4 <__wrap_puts>
1000289a:	2306      	movs	r3, #6
1000289c:	425b      	negs	r3, r3
1000289e:	4698      	mov	r8, r3
100028a0:	e7b5      	b.n	1000280e <cyw43_ll_bus_init+0x52>
100028a2:	2300      	movs	r3, #0
100028a4:	4a89      	ldr	r2, [pc, #548]	; (10002acc <cyw43_ll_bus_init+0x310>)
100028a6:	2101      	movs	r1, #1
100028a8:	0020      	movs	r0, r4
100028aa:	f7fe ffa9 	bl	10001800 <cyw43_write_reg_u8>
100028ae:	0020      	movs	r0, r4
100028b0:	4988      	ldr	r1, [pc, #544]	; (10002ad4 <cyw43_ll_bus_init+0x318>)
100028b2:	f7ff f957 	bl	10001b64 <cyw43_set_backplane_window>
100028b6:	22e0      	movs	r2, #224	; 0xe0
100028b8:	25c0      	movs	r5, #192	; 0xc0
100028ba:	2101      	movs	r1, #1
100028bc:	0020      	movs	r0, r4
100028be:	0192      	lsls	r2, r2, #6
100028c0:	f7fe fc78 	bl	100011b4 <cyw43_read_reg_u8>
100028c4:	68a3      	ldr	r3, [r4, #8]
100028c6:	056d      	lsls	r5, r5, #21
100028c8:	42ab      	cmp	r3, r5
100028ca:	d013      	beq.n	100028f4 <cyw43_ll_bus_init+0x138>
100028cc:	406b      	eors	r3, r5
100028ce:	0e1a      	lsrs	r2, r3, #24
100028d0:	d001      	beq.n	100028d6 <cyw43_ll_bus_init+0x11a>
100028d2:	f000 fd10 	bl	100032f6 <cyw43_ll_bus_init+0xb3a>
100028d6:	22ff      	movs	r2, #255	; 0xff
100028d8:	0412      	lsls	r2, r2, #16
100028da:	4213      	tst	r3, r2
100028dc:	d001      	beq.n	100028e2 <cyw43_ll_bus_init+0x126>
100028de:	f000 fcfd 	bl	100032dc <cyw43_ll_bus_init+0xb20>
100028e2:	22ff      	movs	r2, #255	; 0xff
100028e4:	0212      	lsls	r2, r2, #8
100028e6:	4213      	tst	r3, r2
100028e8:	d001      	beq.n	100028ee <cyw43_ll_bus_init+0x132>
100028ea:	f000 fcee 	bl	100032ca <cyw43_ll_bus_init+0xb0e>
100028ee:	23c0      	movs	r3, #192	; 0xc0
100028f0:	055b      	lsls	r3, r3, #21
100028f2:	60a3      	str	r3, [r4, #8]
100028f4:	0020      	movs	r0, r4
100028f6:	4977      	ldr	r1, [pc, #476]	; (10002ad4 <cyw43_ll_bus_init+0x318>)
100028f8:	f7ff f934 	bl	10001b64 <cyw43_set_backplane_window>
100028fc:	22e0      	movs	r2, #224	; 0xe0
100028fe:	2101      	movs	r1, #1
10002900:	0020      	movs	r0, r4
10002902:	0192      	lsls	r2, r2, #6
10002904:	f7fe fc56 	bl	100011b4 <cyw43_read_reg_u8>
10002908:	26c0      	movs	r6, #192	; 0xc0
1000290a:	68a3      	ldr	r3, [r4, #8]
1000290c:	0005      	movs	r5, r0
1000290e:	0576      	lsls	r6, r6, #21
10002910:	42b3      	cmp	r3, r6
10002912:	d013      	beq.n	1000293c <cyw43_ll_bus_init+0x180>
10002914:	4073      	eors	r3, r6
10002916:	0e1a      	lsrs	r2, r3, #24
10002918:	d001      	beq.n	1000291e <cyw43_ll_bus_init+0x162>
1000291a:	f000 fccc 	bl	100032b6 <cyw43_ll_bus_init+0xafa>
1000291e:	22ff      	movs	r2, #255	; 0xff
10002920:	0412      	lsls	r2, r2, #16
10002922:	4213      	tst	r3, r2
10002924:	d001      	beq.n	1000292a <cyw43_ll_bus_init+0x16e>
10002926:	f000 fcb9 	bl	1000329c <cyw43_ll_bus_init+0xae0>
1000292a:	22ff      	movs	r2, #255	; 0xff
1000292c:	0212      	lsls	r2, r2, #8
1000292e:	4213      	tst	r3, r2
10002930:	d001      	beq.n	10002936 <cyw43_ll_bus_init+0x17a>
10002932:	f000 fcaa 	bl	1000328a <cyw43_ll_bus_init+0xace>
10002936:	23c0      	movs	r3, #192	; 0xc0
10002938:	055b      	lsls	r3, r3, #21
1000293a:	60a3      	str	r3, [r4, #8]
1000293c:	07eb      	lsls	r3, r5, #31
1000293e:	d401      	bmi.n	10002944 <cyw43_ll_bus_init+0x188>
10002940:	f000 fd70 	bl	10003424 <cyw43_ll_bus_init+0xc68>
10002944:	0020      	movs	r0, r4
10002946:	4964      	ldr	r1, [pc, #400]	; (10002ad8 <cyw43_ll_bus_init+0x31c>)
10002948:	f7ff f90c 	bl	10001b64 <cyw43_set_backplane_window>
1000294c:	2290      	movs	r2, #144	; 0x90
1000294e:	25c0      	movs	r5, #192	; 0xc0
10002950:	2101      	movs	r1, #1
10002952:	0020      	movs	r0, r4
10002954:	01d2      	lsls	r2, r2, #7
10002956:	f7fe fc2d 	bl	100011b4 <cyw43_read_reg_u8>
1000295a:	68a3      	ldr	r3, [r4, #8]
1000295c:	056d      	lsls	r5, r5, #21
1000295e:	42ab      	cmp	r3, r5
10002960:	d013      	beq.n	1000298a <cyw43_ll_bus_init+0x1ce>
10002962:	406b      	eors	r3, r5
10002964:	0e1a      	lsrs	r2, r3, #24
10002966:	d001      	beq.n	1000296c <cyw43_ll_bus_init+0x1b0>
10002968:	f000 fc85 	bl	10003276 <cyw43_ll_bus_init+0xaba>
1000296c:	22ff      	movs	r2, #255	; 0xff
1000296e:	0412      	lsls	r2, r2, #16
10002970:	4213      	tst	r3, r2
10002972:	d001      	beq.n	10002978 <cyw43_ll_bus_init+0x1bc>
10002974:	f000 fc72 	bl	1000325c <cyw43_ll_bus_init+0xaa0>
10002978:	22ff      	movs	r2, #255	; 0xff
1000297a:	0212      	lsls	r2, r2, #8
1000297c:	4213      	tst	r3, r2
1000297e:	d001      	beq.n	10002984 <cyw43_ll_bus_init+0x1c8>
10002980:	f000 fc63 	bl	1000324a <cyw43_ll_bus_init+0xa8e>
10002984:	23c0      	movs	r3, #192	; 0xc0
10002986:	055b      	lsls	r3, r3, #21
10002988:	60a3      	str	r3, [r4, #8]
1000298a:	0020      	movs	r0, r4
1000298c:	4952      	ldr	r1, [pc, #328]	; (10002ad8 <cyw43_ll_bus_init+0x31c>)
1000298e:	f7ff f8e9 	bl	10001b64 <cyw43_set_backplane_window>
10002992:	2290      	movs	r2, #144	; 0x90
10002994:	2101      	movs	r1, #1
10002996:	0020      	movs	r0, r4
10002998:	01d2      	lsls	r2, r2, #7
1000299a:	f7fe fc0b 	bl	100011b4 <cyw43_read_reg_u8>
1000299e:	26c0      	movs	r6, #192	; 0xc0
100029a0:	68a3      	ldr	r3, [r4, #8]
100029a2:	0005      	movs	r5, r0
100029a4:	0576      	lsls	r6, r6, #21
100029a6:	42b3      	cmp	r3, r6
100029a8:	d013      	beq.n	100029d2 <cyw43_ll_bus_init+0x216>
100029aa:	4073      	eors	r3, r6
100029ac:	0e1a      	lsrs	r2, r3, #24
100029ae:	d001      	beq.n	100029b4 <cyw43_ll_bus_init+0x1f8>
100029b0:	f000 fc41 	bl	10003236 <cyw43_ll_bus_init+0xa7a>
100029b4:	22ff      	movs	r2, #255	; 0xff
100029b6:	0412      	lsls	r2, r2, #16
100029b8:	4213      	tst	r3, r2
100029ba:	d001      	beq.n	100029c0 <cyw43_ll_bus_init+0x204>
100029bc:	f000 fc2e 	bl	1000321c <cyw43_ll_bus_init+0xa60>
100029c0:	22ff      	movs	r2, #255	; 0xff
100029c2:	0212      	lsls	r2, r2, #8
100029c4:	4213      	tst	r3, r2
100029c6:	d001      	beq.n	100029cc <cyw43_ll_bus_init+0x210>
100029c8:	f000 fc1f 	bl	1000320a <cyw43_ll_bus_init+0xa4e>
100029cc:	23c0      	movs	r3, #192	; 0xc0
100029ce:	055b      	lsls	r3, r3, #21
100029d0:	60a3      	str	r3, [r4, #8]
100029d2:	07eb      	lsls	r3, r5, #31
100029d4:	d401      	bmi.n	100029da <cyw43_ll_bus_init+0x21e>
100029d6:	f000 fd2f 	bl	10003438 <cyw43_ll_bus_init+0xc7c>
100029da:	25c0      	movs	r5, #192	; 0xc0
100029dc:	2102      	movs	r1, #2
100029de:	0020      	movs	r0, r4
100029e0:	f7ff fc86 	bl	100022f0 <reset_device_core.constprop.0>
100029e4:	68a3      	ldr	r3, [r4, #8]
100029e6:	056d      	lsls	r5, r5, #21
100029e8:	42ab      	cmp	r3, r5
100029ea:	d012      	beq.n	10002a12 <cyw43_ll_bus_init+0x256>
100029ec:	406b      	eors	r3, r5
100029ee:	0e1a      	lsrs	r2, r3, #24
100029f0:	d001      	beq.n	100029f6 <cyw43_ll_bus_init+0x23a>
100029f2:	f000 fc00 	bl	100031f6 <cyw43_ll_bus_init+0xa3a>
100029f6:	22ff      	movs	r2, #255	; 0xff
100029f8:	0412      	lsls	r2, r2, #16
100029fa:	4213      	tst	r3, r2
100029fc:	d001      	beq.n	10002a02 <cyw43_ll_bus_init+0x246>
100029fe:	f000 fbed 	bl	100031dc <cyw43_ll_bus_init+0xa20>
10002a02:	22ff      	movs	r2, #255	; 0xff
10002a04:	0212      	lsls	r2, r2, #8
10002a06:	4213      	tst	r3, r2
10002a08:	d000      	beq.n	10002a0c <cyw43_ll_bus_init+0x250>
10002a0a:	e3df      	b.n	100031cc <cyw43_ll_bus_init+0xa10>
10002a0c:	23c0      	movs	r3, #192	; 0xc0
10002a0e:	055b      	lsls	r3, r3, #21
10002a10:	60a3      	str	r3, [r4, #8]
10002a12:	25c0      	movs	r5, #192	; 0xc0
10002a14:	2303      	movs	r3, #3
10002a16:	2101      	movs	r1, #1
10002a18:	0020      	movs	r0, r4
10002a1a:	4a30      	ldr	r2, [pc, #192]	; (10002adc <cyw43_ll_bus_init+0x320>)
10002a1c:	f7fe fcf0 	bl	10001400 <cyw43_write_reg_u32>
10002a20:	68a3      	ldr	r3, [r4, #8]
10002a22:	056d      	lsls	r5, r5, #21
10002a24:	42ab      	cmp	r3, r5
10002a26:	d010      	beq.n	10002a4a <cyw43_ll_bus_init+0x28e>
10002a28:	406b      	eors	r3, r5
10002a2a:	0e1a      	lsrs	r2, r3, #24
10002a2c:	d000      	beq.n	10002a30 <cyw43_ll_bus_init+0x274>
10002a2e:	e3c4      	b.n	100031ba <cyw43_ll_bus_init+0x9fe>
10002a30:	22ff      	movs	r2, #255	; 0xff
10002a32:	0412      	lsls	r2, r2, #16
10002a34:	4213      	tst	r3, r2
10002a36:	d000      	beq.n	10002a3a <cyw43_ll_bus_init+0x27e>
10002a38:	e3b3      	b.n	100031a2 <cyw43_ll_bus_init+0x9e6>
10002a3a:	22ff      	movs	r2, #255	; 0xff
10002a3c:	0212      	lsls	r2, r2, #8
10002a3e:	4213      	tst	r3, r2
10002a40:	d000      	beq.n	10002a44 <cyw43_ll_bus_init+0x288>
10002a42:	e3a6      	b.n	10003192 <cyw43_ll_bus_init+0x9d6>
10002a44:	23c0      	movs	r3, #192	; 0xc0
10002a46:	055b      	lsls	r3, r3, #21
10002a48:	60a3      	str	r3, [r4, #8]
10002a4a:	25c0      	movs	r5, #192	; 0xc0
10002a4c:	2300      	movs	r3, #0
10002a4e:	2101      	movs	r1, #1
10002a50:	0020      	movs	r0, r4
10002a52:	4a23      	ldr	r2, [pc, #140]	; (10002ae0 <cyw43_ll_bus_init+0x324>)
10002a54:	f7fe fcd4 	bl	10001400 <cyw43_write_reg_u32>
10002a58:	68a3      	ldr	r3, [r4, #8]
10002a5a:	056d      	lsls	r5, r5, #21
10002a5c:	42ab      	cmp	r3, r5
10002a5e:	d010      	beq.n	10002a82 <cyw43_ll_bus_init+0x2c6>
10002a60:	406b      	eors	r3, r5
10002a62:	0e1a      	lsrs	r2, r3, #24
10002a64:	d000      	beq.n	10002a68 <cyw43_ll_bus_init+0x2ac>
10002a66:	e38b      	b.n	10003180 <cyw43_ll_bus_init+0x9c4>
10002a68:	22ff      	movs	r2, #255	; 0xff
10002a6a:	0412      	lsls	r2, r2, #16
10002a6c:	4213      	tst	r3, r2
10002a6e:	d000      	beq.n	10002a72 <cyw43_ll_bus_init+0x2b6>
10002a70:	e37a      	b.n	10003168 <cyw43_ll_bus_init+0x9ac>
10002a72:	22ff      	movs	r2, #255	; 0xff
10002a74:	0212      	lsls	r2, r2, #8
10002a76:	4213      	tst	r3, r2
10002a78:	d000      	beq.n	10002a7c <cyw43_ll_bus_init+0x2c0>
10002a7a:	e350      	b.n	1000311e <cyw43_ll_bus_init+0x962>
10002a7c:	23c0      	movs	r3, #192	; 0xc0
10002a7e:	055b      	lsls	r3, r3, #21
10002a80:	60a3      	str	r3, [r4, #8]
10002a82:	4b18      	ldr	r3, [pc, #96]	; (10002ae4 <cyw43_ll_bus_init+0x328>)
10002a84:	4a18      	ldr	r2, [pc, #96]	; (10002ae8 <cyw43_ll_bus_init+0x32c>)
10002a86:	469b      	mov	fp, r3
10002a88:	4b18      	ldr	r3, [pc, #96]	; (10002aec <cyw43_ll_bus_init+0x330>)
10002a8a:	445b      	add	r3, fp
10002a8c:	5a9e      	ldrh	r6, [r3, r2]
10002a8e:	3a1b      	subs	r2, #27
10002a90:	3aff      	subs	r2, #255	; 0xff
10002a92:	4296      	cmp	r6, r2
10002a94:	db01      	blt.n	10002a9a <cyw43_ll_bus_init+0x2de>
10002a96:	f000 fcca 	bl	1000342e <cyw43_ll_bus_init+0xc72>
10002a9a:	4a15      	ldr	r2, [pc, #84]	; (10002af0 <cyw43_ll_bus_init+0x334>)
10002a9c:	5c9b      	ldrb	r3, [r3, r2]
10002a9e:	2b00      	cmp	r3, #0
10002aa0:	d001      	beq.n	10002aa6 <cyw43_ll_bus_init+0x2ea>
10002aa2:	f000 fcc4 	bl	1000342e <cyw43_ll_bus_init+0xc72>
10002aa6:	2e50      	cmp	r6, #80	; 0x50
10002aa8:	dc01      	bgt.n	10002aae <cyw43_ll_bus_init+0x2f2>
10002aaa:	f000 fcc0 	bl	1000342e <cyw43_ll_bus_init+0xc72>
10002aae:	4b11      	ldr	r3, [pc, #68]	; (10002af4 <cyw43_ll_bus_init+0x338>)
10002ab0:	4f11      	ldr	r7, [pc, #68]	; (10002af8 <cyw43_ll_bus_init+0x33c>)
10002ab2:	2550      	movs	r5, #80	; 0x50
10002ab4:	469a      	mov	sl, r3
10002ab6:	445f      	add	r7, fp
10002ab8:	e025      	b.n	10002b06 <cyw43_ll_bus_init+0x34a>
10002aba:	46c0      	nop			; (mov r8, r8)
10002abc:	40054000 	.word	0x40054000
10002ac0:	feedbead 	.word	0xfeedbead
10002ac4:	1000aa08 	.word	0x1000aa08
10002ac8:	000204b3 	.word	0x000204b3
10002acc:	0001000e 	.word	0x0001000e
10002ad0:	1000aa70 	.word	0x1000aa70
10002ad4:	18103800 	.word	0x18103800
10002ad8:	18104800 	.word	0x18104800
10002adc:	0000c010 	.word	0x0000c010
10002ae0:	0000c044 	.word	0x0000c044
10002ae4:	1000ab84 	.word	0x1000ab84
10002ae8:	0000030e 	.word	0x0000030e
10002aec:	0003689e 	.word	0x0003689e
10002af0:	0000030d 	.word	0x0000030d
10002af4:	1000aa28 	.word	0x1000aa28
10002af8:	00036bab 	.word	0x00036bab
10002afc:	3501      	adds	r5, #1
10002afe:	42ae      	cmp	r6, r5
10002b00:	dc01      	bgt.n	10002b06 <cyw43_ll_bus_init+0x34a>
10002b02:	f000 fc94 	bl	1000342e <cyw43_ll_bus_init+0xc72>
10002b06:	2209      	movs	r2, #9
10002b08:	4651      	mov	r1, sl
10002b0a:	1b78      	subs	r0, r7, r5
10002b0c:	f007 fdd8 	bl	1000a6c0 <strncmp>
10002b10:	2800      	cmp	r0, #0
10002b12:	d1f3      	bne.n	10002afc <cyw43_ll_bus_init+0x340>
10002b14:	2340      	movs	r3, #64	; 0x40
10002b16:	425b      	negs	r3, r3
10002b18:	445b      	add	r3, fp
10002b1a:	2700      	movs	r7, #0
10002b1c:	469a      	mov	sl, r3
10002b1e:	003d      	movs	r5, r7
10002b20:	68a3      	ldr	r3, [r4, #8]
10002b22:	0bee      	lsrs	r6, r5, #15
10002b24:	3740      	adds	r7, #64	; 0x40
10002b26:	03f6      	lsls	r6, r6, #15
10002b28:	429e      	cmp	r6, r3
10002b2a:	d00e      	beq.n	10002b4a <cyw43_ll_bus_init+0x38e>
10002b2c:	4073      	eors	r3, r6
10002b2e:	0e1a      	lsrs	r2, r3, #24
10002b30:	d000      	beq.n	10002b34 <cyw43_ll_bus_init+0x378>
10002b32:	e226      	b.n	10002f82 <cyw43_ll_bus_init+0x7c6>
10002b34:	22ff      	movs	r2, #255	; 0xff
10002b36:	0412      	lsls	r2, r2, #16
10002b38:	4213      	tst	r3, r2
10002b3a:	d000      	beq.n	10002b3e <cyw43_ll_bus_init+0x382>
10002b3c:	e22e      	b.n	10002f9c <cyw43_ll_bus_init+0x7e0>
10002b3e:	22ff      	movs	r2, #255	; 0xff
10002b40:	0212      	lsls	r2, r2, #8
10002b42:	4213      	tst	r3, r2
10002b44:	d000      	beq.n	10002b48 <cyw43_ll_bus_init+0x38c>
10002b46:	e215      	b.n	10002f74 <cyw43_ll_bus_init+0x7b8>
10002b48:	60a6      	str	r6, [r4, #8]
10002b4a:	4653      	mov	r3, sl
10002b4c:	046a      	lsls	r2, r5, #17
10002b4e:	19db      	adds	r3, r3, r7
10002b50:	9300      	str	r3, [sp, #0]
10002b52:	2101      	movs	r1, #1
10002b54:	2340      	movs	r3, #64	; 0x40
10002b56:	0020      	movs	r0, r4
10002b58:	0c52      	lsrs	r2, r2, #17
10002b5a:	f7fe ff97 	bl	10001a8c <cyw43_write_bytes>
10002b5e:	2800      	cmp	r0, #0
10002b60:	d103      	bne.n	10002b6a <cyw43_ll_bus_init+0x3ae>
10002b62:	23db      	movs	r3, #219	; 0xdb
10002b64:	029b      	lsls	r3, r3, #10
10002b66:	429f      	cmp	r7, r3
10002b68:	d1d9      	bne.n	10002b1e <cyw43_ll_bus_init+0x362>
10002b6a:	23c0      	movs	r3, #192	; 0xc0
10002b6c:	009b      	lsls	r3, r3, #2
10002b6e:	2600      	movs	r6, #0
10002b70:	469a      	mov	sl, r3
10002b72:	4f79      	ldr	r7, [pc, #484]	; (10002d58 <cyw43_ll_bus_init+0x59c>)
10002b74:	4d79      	ldr	r5, [pc, #484]	; (10002d5c <cyw43_ll_bus_init+0x5a0>)
10002b76:	e00d      	b.n	10002b94 <cyw43_ll_bus_init+0x3d8>
10002b78:	f7fe fff4 	bl	10001b64 <cyw43_set_backplane_window>
10002b7c:	046a      	lsls	r2, r5, #17
10002b7e:	2300      	movs	r3, #0
10002b80:	2101      	movs	r1, #1
10002b82:	0020      	movs	r0, r4
10002b84:	0c52      	lsrs	r2, r2, #17
10002b86:	9700      	str	r7, [sp, #0]
10002b88:	f7fe ff80 	bl	10001a8c <cyw43_write_bytes>
10002b8c:	2800      	cmp	r0, #0
10002b8e:	d114      	bne.n	10002bba <cyw43_ll_bus_init+0x3fe>
10002b90:	3540      	adds	r5, #64	; 0x40
10002b92:	3740      	adds	r7, #64	; 0x40
10002b94:	3640      	adds	r6, #64	; 0x40
10002b96:	0029      	movs	r1, r5
10002b98:	0020      	movs	r0, r4
10002b9a:	4556      	cmp	r6, sl
10002b9c:	d8ec      	bhi.n	10002b78 <cyw43_ll_bus_init+0x3bc>
10002b9e:	f7fe ffe1 	bl	10001b64 <cyw43_set_backplane_window>
10002ba2:	046a      	lsls	r2, r5, #17
10002ba4:	2340      	movs	r3, #64	; 0x40
10002ba6:	2101      	movs	r1, #1
10002ba8:	0020      	movs	r0, r4
10002baa:	0c52      	lsrs	r2, r2, #17
10002bac:	9700      	str	r7, [sp, #0]
10002bae:	f7fe ff6d 	bl	10001a8c <cyw43_write_bytes>
10002bb2:	2800      	cmp	r0, #0
10002bb4:	d101      	bne.n	10002bba <cyw43_ll_bus_init+0x3fe>
10002bb6:	4556      	cmp	r6, sl
10002bb8:	d1ea      	bne.n	10002b90 <cyw43_ll_bus_init+0x3d4>
10002bba:	25f0      	movs	r5, #240	; 0xf0
10002bbc:	68a3      	ldr	r3, [r4, #8]
10002bbe:	02ed      	lsls	r5, r5, #11
10002bc0:	42ab      	cmp	r3, r5
10002bc2:	d010      	beq.n	10002be6 <cyw43_ll_bus_init+0x42a>
10002bc4:	406b      	eors	r3, r5
10002bc6:	0e1a      	lsrs	r2, r3, #24
10002bc8:	d000      	beq.n	10002bcc <cyw43_ll_bus_init+0x410>
10002bca:	e29f      	b.n	1000310c <cyw43_ll_bus_init+0x950>
10002bcc:	22ff      	movs	r2, #255	; 0xff
10002bce:	0412      	lsls	r2, r2, #16
10002bd0:	4213      	tst	r3, r2
10002bd2:	d000      	beq.n	10002bd6 <cyw43_ll_bus_init+0x41a>
10002bd4:	e28f      	b.n	100030f6 <cyw43_ll_bus_init+0x93a>
10002bd6:	22ff      	movs	r2, #255	; 0xff
10002bd8:	0212      	lsls	r2, r2, #8
10002bda:	4213      	tst	r3, r2
10002bdc:	d000      	beq.n	10002be0 <cyw43_ll_bus_init+0x424>
10002bde:	e282      	b.n	100030e6 <cyw43_ll_bus_init+0x92a>
10002be0:	23f0      	movs	r3, #240	; 0xf0
10002be2:	02db      	lsls	r3, r3, #11
10002be4:	60a3      	str	r3, [r4, #8]
10002be6:	25c0      	movs	r5, #192	; 0xc0
10002be8:	4b5d      	ldr	r3, [pc, #372]	; (10002d60 <cyw43_ll_bus_init+0x5a4>)
10002bea:	2101      	movs	r1, #1
10002bec:	0020      	movs	r0, r4
10002bee:	4a5d      	ldr	r2, [pc, #372]	; (10002d64 <cyw43_ll_bus_init+0x5a8>)
10002bf0:	f7fe fc06 	bl	10001400 <cyw43_write_reg_u32>
10002bf4:	68a3      	ldr	r3, [r4, #8]
10002bf6:	056d      	lsls	r5, r5, #21
10002bf8:	42ab      	cmp	r3, r5
10002bfa:	d010      	beq.n	10002c1e <cyw43_ll_bus_init+0x462>
10002bfc:	406b      	eors	r3, r5
10002bfe:	0e1a      	lsrs	r2, r3, #24
10002c00:	d000      	beq.n	10002c04 <cyw43_ll_bus_init+0x448>
10002c02:	e267      	b.n	100030d4 <cyw43_ll_bus_init+0x918>
10002c04:	22ff      	movs	r2, #255	; 0xff
10002c06:	0412      	lsls	r2, r2, #16
10002c08:	4213      	tst	r3, r2
10002c0a:	d000      	beq.n	10002c0e <cyw43_ll_bus_init+0x452>
10002c0c:	e256      	b.n	100030bc <cyw43_ll_bus_init+0x900>
10002c0e:	22ff      	movs	r2, #255	; 0xff
10002c10:	0212      	lsls	r2, r2, #8
10002c12:	4213      	tst	r3, r2
10002c14:	d000      	beq.n	10002c18 <cyw43_ll_bus_init+0x45c>
10002c16:	e249      	b.n	100030ac <cyw43_ll_bus_init+0x8f0>
10002c18:	23c0      	movs	r3, #192	; 0xc0
10002c1a:	055b      	lsls	r3, r3, #21
10002c1c:	60a3      	str	r3, [r4, #8]
10002c1e:	2101      	movs	r1, #1
10002c20:	0020      	movs	r0, r4
10002c22:	f7ff fb65 	bl	100022f0 <reset_device_core.constprop.0>
10002c26:	0020      	movs	r0, r4
10002c28:	494f      	ldr	r1, [pc, #316]	; (10002d68 <cyw43_ll_bus_init+0x5ac>)
10002c2a:	f7fe ff9b 	bl	10001b64 <cyw43_set_backplane_window>
10002c2e:	2101      	movs	r1, #1
10002c30:	0020      	movs	r0, r4
10002c32:	4a4e      	ldr	r2, [pc, #312]	; (10002d6c <cyw43_ll_bus_init+0x5b0>)
10002c34:	f7fe fabe 	bl	100011b4 <cyw43_read_reg_u8>
10002c38:	26c0      	movs	r6, #192	; 0xc0
10002c3a:	68a3      	ldr	r3, [r4, #8]
10002c3c:	0005      	movs	r5, r0
10002c3e:	0576      	lsls	r6, r6, #21
10002c40:	42b3      	cmp	r3, r6
10002c42:	d010      	beq.n	10002c66 <cyw43_ll_bus_init+0x4aa>
10002c44:	4073      	eors	r3, r6
10002c46:	0e1a      	lsrs	r2, r3, #24
10002c48:	d000      	beq.n	10002c4c <cyw43_ll_bus_init+0x490>
10002c4a:	e226      	b.n	1000309a <cyw43_ll_bus_init+0x8de>
10002c4c:	22ff      	movs	r2, #255	; 0xff
10002c4e:	0412      	lsls	r2, r2, #16
10002c50:	4213      	tst	r3, r2
10002c52:	d000      	beq.n	10002c56 <cyw43_ll_bus_init+0x49a>
10002c54:	e215      	b.n	10003082 <cyw43_ll_bus_init+0x8c6>
10002c56:	22ff      	movs	r2, #255	; 0xff
10002c58:	0212      	lsls	r2, r2, #8
10002c5a:	4213      	tst	r3, r2
10002c5c:	d000      	beq.n	10002c60 <cyw43_ll_bus_init+0x4a4>
10002c5e:	e208      	b.n	10003072 <cyw43_ll_bus_init+0x8b6>
10002c60:	23c0      	movs	r3, #192	; 0xc0
10002c62:	055b      	lsls	r3, r3, #21
10002c64:	60a3      	str	r3, [r4, #8]
10002c66:	2003      	movs	r0, #3
10002c68:	4028      	ands	r0, r5
10002c6a:	2801      	cmp	r0, #1
10002c6c:	d002      	beq.n	10002c74 <cyw43_ll_bus_init+0x4b8>
10002c6e:	4840      	ldr	r0, [pc, #256]	; (10002d70 <cyw43_ll_bus_init+0x5b4>)
10002c70:	f005 faa0 	bl	100081b4 <__wrap_puts>
10002c74:	0020      	movs	r0, r4
10002c76:	493f      	ldr	r1, [pc, #252]	; (10002d74 <cyw43_ll_bus_init+0x5b8>)
10002c78:	f7fe ff74 	bl	10001b64 <cyw43_set_backplane_window>
10002c7c:	22e0      	movs	r2, #224	; 0xe0
10002c7e:	2101      	movs	r1, #1
10002c80:	0020      	movs	r0, r4
10002c82:	0192      	lsls	r2, r2, #6
10002c84:	f7fe fa96 	bl	100011b4 <cyw43_read_reg_u8>
10002c88:	26c0      	movs	r6, #192	; 0xc0
10002c8a:	68a3      	ldr	r3, [r4, #8]
10002c8c:	0005      	movs	r5, r0
10002c8e:	0576      	lsls	r6, r6, #21
10002c90:	42b3      	cmp	r3, r6
10002c92:	d010      	beq.n	10002cb6 <cyw43_ll_bus_init+0x4fa>
10002c94:	4073      	eors	r3, r6
10002c96:	0e1a      	lsrs	r2, r3, #24
10002c98:	d000      	beq.n	10002c9c <cyw43_ll_bus_init+0x4e0>
10002c9a:	e1e1      	b.n	10003060 <cyw43_ll_bus_init+0x8a4>
10002c9c:	22ff      	movs	r2, #255	; 0xff
10002c9e:	0412      	lsls	r2, r2, #16
10002ca0:	4213      	tst	r3, r2
10002ca2:	d000      	beq.n	10002ca6 <cyw43_ll_bus_init+0x4ea>
10002ca4:	e1d0      	b.n	10003048 <cyw43_ll_bus_init+0x88c>
10002ca6:	22ff      	movs	r2, #255	; 0xff
10002ca8:	0212      	lsls	r2, r2, #8
10002caa:	4213      	tst	r3, r2
10002cac:	d000      	beq.n	10002cb0 <cyw43_ll_bus_init+0x4f4>
10002cae:	e1c3      	b.n	10003038 <cyw43_ll_bus_init+0x87c>
10002cb0:	23c0      	movs	r3, #192	; 0xc0
10002cb2:	055b      	lsls	r3, r3, #21
10002cb4:	60a3      	str	r3, [r4, #8]
10002cb6:	07eb      	lsls	r3, r5, #31
10002cb8:	d500      	bpl.n	10002cbc <cyw43_ll_bus_init+0x500>
10002cba:	e1b9      	b.n	10003030 <cyw43_ll_bus_init+0x874>
10002cbc:	25fa      	movs	r5, #250	; 0xfa
10002cbe:	2680      	movs	r6, #128	; 0x80
10002cc0:	00ad      	lsls	r5, r5, #2
10002cc2:	e006      	b.n	10002cd2 <cyw43_ll_bus_init+0x516>
10002cc4:	2001      	movs	r0, #1
10002cc6:	3d01      	subs	r5, #1
10002cc8:	f002 fc2a 	bl	10005520 <cyw43_delay_ms>
10002ccc:	2d00      	cmp	r5, #0
10002cce:	d100      	bne.n	10002cd2 <cyw43_ll_bus_init+0x516>
10002cd0:	e369      	b.n	100033a6 <cyw43_ll_bus_init+0xbea>
10002cd2:	2101      	movs	r1, #1
10002cd4:	0020      	movs	r0, r4
10002cd6:	4a28      	ldr	r2, [pc, #160]	; (10002d78 <cyw43_ll_bus_init+0x5bc>)
10002cd8:	f7fe fa6c 	bl	100011b4 <cyw43_read_reg_u8>
10002cdc:	4206      	tst	r6, r0
10002cde:	d0f1      	beq.n	10002cc4 <cyw43_ll_bus_init+0x508>
10002ce0:	25c0      	movs	r5, #192	; 0xc0
10002ce2:	68a3      	ldr	r3, [r4, #8]
10002ce4:	056d      	lsls	r5, r5, #21
10002ce6:	42ab      	cmp	r3, r5
10002ce8:	d010      	beq.n	10002d0c <cyw43_ll_bus_init+0x550>
10002cea:	406b      	eors	r3, r5
10002cec:	0e1a      	lsrs	r2, r3, #24
10002cee:	d000      	beq.n	10002cf2 <cyw43_ll_bus_init+0x536>
10002cf0:	e350      	b.n	10003394 <cyw43_ll_bus_init+0xbd8>
10002cf2:	22ff      	movs	r2, #255	; 0xff
10002cf4:	0412      	lsls	r2, r2, #16
10002cf6:	4213      	tst	r3, r2
10002cf8:	d000      	beq.n	10002cfc <cyw43_ll_bus_init+0x540>
10002cfa:	e33f      	b.n	1000337c <cyw43_ll_bus_init+0xbc0>
10002cfc:	22ff      	movs	r2, #255	; 0xff
10002cfe:	0212      	lsls	r2, r2, #8
10002d00:	4213      	tst	r3, r2
10002d02:	d000      	beq.n	10002d06 <cyw43_ll_bus_init+0x54a>
10002d04:	e332      	b.n	1000336c <cyw43_ll_bus_init+0xbb0>
10002d06:	23c0      	movs	r3, #192	; 0xc0
10002d08:	055b      	lsls	r3, r3, #21
10002d0a:	60a3      	str	r3, [r4, #8]
10002d0c:	25c0      	movs	r5, #192	; 0xc0
10002d0e:	23f0      	movs	r3, #240	; 0xf0
10002d10:	2101      	movs	r1, #1
10002d12:	0020      	movs	r0, r4
10002d14:	4a19      	ldr	r2, [pc, #100]	; (10002d7c <cyw43_ll_bus_init+0x5c0>)
10002d16:	f7fe fb73 	bl	10001400 <cyw43_write_reg_u32>
10002d1a:	68a3      	ldr	r3, [r4, #8]
10002d1c:	056d      	lsls	r5, r5, #21
10002d1e:	42ab      	cmp	r3, r5
10002d20:	d010      	beq.n	10002d44 <cyw43_ll_bus_init+0x588>
10002d22:	406b      	eors	r3, r5
10002d24:	0e1a      	lsrs	r2, r3, #24
10002d26:	d000      	beq.n	10002d2a <cyw43_ll_bus_init+0x56e>
10002d28:	e317      	b.n	1000335a <cyw43_ll_bus_init+0xb9e>
10002d2a:	22ff      	movs	r2, #255	; 0xff
10002d2c:	0412      	lsls	r2, r2, #16
10002d2e:	4213      	tst	r3, r2
10002d30:	d000      	beq.n	10002d34 <cyw43_ll_bus_init+0x578>
10002d32:	e306      	b.n	10003342 <cyw43_ll_bus_init+0xb86>
10002d34:	22ff      	movs	r2, #255	; 0xff
10002d36:	0212      	lsls	r2, r2, #8
10002d38:	4213      	tst	r3, r2
10002d3a:	d000      	beq.n	10002d3e <cyw43_ll_bus_init+0x582>
10002d3c:	e2f9      	b.n	10003332 <cyw43_ll_bus_init+0xb76>
10002d3e:	23c0      	movs	r3, #192	; 0xc0
10002d40:	055b      	lsls	r3, r3, #21
10002d42:	60a3      	str	r3, [r4, #8]
10002d44:	25fa      	movs	r5, #250	; 0xfa
10002d46:	2320      	movs	r3, #32
10002d48:	2101      	movs	r1, #1
10002d4a:	0020      	movs	r0, r4
10002d4c:	4a0c      	ldr	r2, [pc, #48]	; (10002d80 <cyw43_ll_bus_init+0x5c4>)
10002d4e:	f7fe fd57 	bl	10001800 <cyw43_write_reg_u8>
10002d52:	2620      	movs	r6, #32
10002d54:	00ad      	lsls	r5, r5, #2
10002d56:	e01c      	b.n	10002d92 <cyw43_ll_bus_init+0x5d6>
10002d58:	10041b5c 	.word	0x10041b5c
10002d5c:	0007fcfc 	.word	0x0007fcfc
10002d60:	ff3f00c0 	.word	0xff3f00c0
10002d64:	0000fffc 	.word	0x0000fffc
10002d68:	18103408 	.word	0x18103408
10002d6c:	00003408 	.word	0x00003408
10002d70:	1000aa5c 	.word	0x1000aa5c
10002d74:	18103800 	.word	0x18103800
10002d78:	0001000e 	.word	0x0001000e
10002d7c:	0000a024 	.word	0x0000a024
10002d80:	00010008 	.word	0x00010008
10002d84:	2001      	movs	r0, #1
10002d86:	3d01      	subs	r5, #1
10002d88:	f002 fbca 	bl	10005520 <cyw43_delay_ms>
10002d8c:	2d00      	cmp	r5, #0
10002d8e:	d100      	bne.n	10002d92 <cyw43_ll_bus_init+0x5d6>
10002d90:	e311      	b.n	100033b6 <cyw43_ll_bus_init+0xbfa>
10002d92:	2208      	movs	r2, #8
10002d94:	2100      	movs	r1, #0
10002d96:	0020      	movs	r0, r4
10002d98:	f7fe f9a0 	bl	100010dc <cyw43_read_reg_u32>
10002d9c:	4206      	tst	r6, r0
10002d9e:	d0f1      	beq.n	10002d84 <cyw43_ll_bus_init+0x5c8>
10002da0:	2101      	movs	r1, #1
10002da2:	4ae3      	ldr	r2, [pc, #908]	; (10003130 <cyw43_ll_bus_init+0x974>)
10002da4:	0020      	movs	r0, r4
10002da6:	f7fe fa05 	bl	100011b4 <cyw43_read_reg_u8>
10002daa:	b2c3      	uxtb	r3, r0
10002dac:	2002      	movs	r0, #2
10002dae:	2101      	movs	r1, #1
10002db0:	4303      	orrs	r3, r0
10002db2:	4adf      	ldr	r2, [pc, #892]	; (10003130 <cyw43_ll_bus_init+0x974>)
10002db4:	0020      	movs	r0, r4
10002db6:	f7fe fd23 	bl	10001800 <cyw43_write_reg_u8>
10002dba:	2308      	movs	r3, #8
10002dbc:	22f0      	movs	r2, #240	; 0xf0
10002dbe:	2100      	movs	r1, #0
10002dc0:	0020      	movs	r0, r4
10002dc2:	f7fe fd1d 	bl	10001800 <cyw43_write_reg_u8>
10002dc6:	2302      	movs	r3, #2
10002dc8:	2101      	movs	r1, #1
10002dca:	4ada      	ldr	r2, [pc, #872]	; (10003134 <cyw43_ll_bus_init+0x978>)
10002dcc:	0020      	movs	r0, r4
10002dce:	f7fe fd17 	bl	10001800 <cyw43_write_reg_u8>
10002dd2:	2101      	movs	r1, #1
10002dd4:	0020      	movs	r0, r4
10002dd6:	4ad8      	ldr	r2, [pc, #864]	; (10003138 <cyw43_ll_bus_init+0x97c>)
10002dd8:	f7fe f9ec 	bl	100011b4 <cyw43_read_reg_u8>
10002ddc:	07c3      	lsls	r3, r0, #31
10002dde:	d400      	bmi.n	10002de2 <cyw43_ll_bus_init+0x626>
10002de0:	e29e      	b.n	10003320 <cyw43_ll_bus_init+0xb64>
10002de2:	230f      	movs	r3, #15
10002de4:	2101      	movs	r1, #1
10002de6:	4ad5      	ldr	r2, [pc, #852]	; (1000313c <cyw43_ll_bus_init+0x980>)
10002de8:	0020      	movs	r0, r4
10002dea:	f7fe fd09 	bl	10001800 <cyw43_write_reg_u8>
10002dee:	2300      	movs	r3, #0
10002df0:	2101      	movs	r1, #1
10002df2:	4ad2      	ldr	r2, [pc, #840]	; (1000313c <cyw43_ll_bus_init+0x980>)
10002df4:	0020      	movs	r0, r4
10002df6:	f7fe fd03 	bl	10001800 <cyw43_write_reg_u8>
10002dfa:	2101      	movs	r1, #1
10002dfc:	4acf      	ldr	r2, [pc, #828]	; (1000313c <cyw43_ll_bus_init+0x980>)
10002dfe:	0020      	movs	r0, r4
10002e00:	f7fe f9d8 	bl	100011b4 <cyw43_read_reg_u8>
10002e04:	2204      	movs	r2, #4
10002e06:	2100      	movs	r1, #0
10002e08:	0020      	movs	r0, r4
10002e0a:	f7fe f99d 	bl	10001148 <cyw43_read_reg_u16>
10002e0e:	07c3      	lsls	r3, r0, #31
10002e10:	d500      	bpl.n	10002e14 <cyw43_ll_bus_init+0x658>
10002e12:	e27e      	b.n	10003312 <cyw43_ll_bus_init+0xb56>
10002e14:	25c0      	movs	r5, #192	; 0xc0
10002e16:	68a3      	ldr	r3, [r4, #8]
10002e18:	056d      	lsls	r5, r5, #21
10002e1a:	42ab      	cmp	r3, r5
10002e1c:	d010      	beq.n	10002e40 <cyw43_ll_bus_init+0x684>
10002e1e:	406b      	eors	r3, r5
10002e20:	0e1a      	lsrs	r2, r3, #24
10002e22:	d000      	beq.n	10002e26 <cyw43_ll_bus_init+0x66a>
10002e24:	e0fb      	b.n	1000301e <cyw43_ll_bus_init+0x862>
10002e26:	22ff      	movs	r2, #255	; 0xff
10002e28:	0412      	lsls	r2, r2, #16
10002e2a:	4213      	tst	r3, r2
10002e2c:	d000      	beq.n	10002e30 <cyw43_ll_bus_init+0x674>
10002e2e:	e0ea      	b.n	10003006 <cyw43_ll_bus_init+0x84a>
10002e30:	22ff      	movs	r2, #255	; 0xff
10002e32:	0212      	lsls	r2, r2, #8
10002e34:	4213      	tst	r3, r2
10002e36:	d000      	beq.n	10002e3a <cyw43_ll_bus_init+0x67e>
10002e38:	e0dd      	b.n	10002ff6 <cyw43_ll_bus_init+0x83a>
10002e3a:	23c0      	movs	r3, #192	; 0xc0
10002e3c:	055b      	lsls	r3, r3, #21
10002e3e:	60a3      	str	r3, [r4, #8]
10002e40:	25c0      	movs	r5, #192	; 0xc0
10002e42:	2101      	movs	r1, #1
10002e44:	0020      	movs	r0, r4
10002e46:	4abe      	ldr	r2, [pc, #760]	; (10003140 <cyw43_ll_bus_init+0x984>)
10002e48:	f7fe f948 	bl	100010dc <cyw43_read_reg_u32>
10002e4c:	68a3      	ldr	r3, [r4, #8]
10002e4e:	056d      	lsls	r5, r5, #21
10002e50:	42ab      	cmp	r3, r5
10002e52:	d010      	beq.n	10002e76 <cyw43_ll_bus_init+0x6ba>
10002e54:	406b      	eors	r3, r5
10002e56:	0e1a      	lsrs	r2, r3, #24
10002e58:	d000      	beq.n	10002e5c <cyw43_ll_bus_init+0x6a0>
10002e5a:	e0c3      	b.n	10002fe4 <cyw43_ll_bus_init+0x828>
10002e5c:	22ff      	movs	r2, #255	; 0xff
10002e5e:	0412      	lsls	r2, r2, #16
10002e60:	4213      	tst	r3, r2
10002e62:	d000      	beq.n	10002e66 <cyw43_ll_bus_init+0x6aa>
10002e64:	e0b2      	b.n	10002fcc <cyw43_ll_bus_init+0x810>
10002e66:	22ff      	movs	r2, #255	; 0xff
10002e68:	0212      	lsls	r2, r2, #8
10002e6a:	4213      	tst	r3, r2
10002e6c:	d000      	beq.n	10002e70 <cyw43_ll_bus_init+0x6b4>
10002e6e:	e0a5      	b.n	10002fbc <cyw43_ll_bus_init+0x800>
10002e70:	23c0      	movs	r3, #192	; 0xc0
10002e72:	055b      	lsls	r3, r3, #21
10002e74:	60a3      	str	r3, [r4, #8]
10002e76:	0020      	movs	r0, r4
10002e78:	f000 fc62 	bl	10003740 <cyw43_cb_ensure_awake>
10002e7c:	7ca3      	ldrb	r3, [r4, #18]
10002e7e:	2b00      	cmp	r3, #0
10002e80:	d100      	bne.n	10002e84 <cyw43_ll_bus_init+0x6c8>
10002e82:	e094      	b.n	10002fae <cyw43_ll_bus_init+0x7f2>
10002e84:	4faf      	ldr	r7, [pc, #700]	; (10003144 <cyw43_ll_bus_init+0x988>)
10002e86:	0025      	movs	r5, r4
10002e88:	0039      	movs	r1, r7
10002e8a:	3538      	adds	r5, #56	; 0x38
10002e8c:	2208      	movs	r2, #8
10002e8e:	3108      	adds	r1, #8
10002e90:	0028      	movs	r0, r5
10002e92:	f005 f82b 	bl	10007eec <__wrap___aeabi_memcpy>
10002e96:	4bac      	ldr	r3, [pc, #688]	; (10003148 <cyw43_ll_bus_init+0x98c>)
10002e98:	22f6      	movs	r2, #246	; 0xf6
10002e9a:	21db      	movs	r1, #219	; 0xdb
10002e9c:	6423      	str	r3, [r4, #64]	; 0x40
10002e9e:	0020      	movs	r0, r4
10002ea0:	2300      	movs	r3, #0
10002ea2:	0092      	lsls	r2, r2, #2
10002ea4:	0289      	lsls	r1, r1, #10
10002ea6:	6462      	str	r2, [r4, #68]	; 0x44
10002ea8:	64a3      	str	r3, [r4, #72]	; 0x48
10002eaa:	4459      	add	r1, fp
10002eac:	304c      	adds	r0, #76	; 0x4c
10002eae:	f005 f81d 	bl	10007eec <__wrap___aeabi_memcpy>
10002eb2:	23fc      	movs	r3, #252	; 0xfc
10002eb4:	2208      	movs	r2, #8
10002eb6:	009b      	lsls	r3, r3, #2
10002eb8:	2102      	movs	r1, #2
10002eba:	32ff      	adds	r2, #255	; 0xff
10002ebc:	0020      	movs	r0, r4
10002ebe:	9500      	str	r5, [sp, #0]
10002ec0:	f7ff f992 	bl	100021e8 <cyw43_do_ioctl.constprop.0>
10002ec4:	0039      	movs	r1, r7
10002ec6:	2213      	movs	r2, #19
10002ec8:	3114      	adds	r1, #20
10002eca:	0028      	movs	r0, r5
10002ecc:	f005 f80e 	bl	10007eec <__wrap___aeabi_memcpy>
10002ed0:	2283      	movs	r2, #131	; 0x83
10002ed2:	2313      	movs	r3, #19
10002ed4:	2100      	movs	r1, #0
10002ed6:	0020      	movs	r0, r4
10002ed8:	9500      	str	r5, [sp, #0]
10002eda:	0052      	lsls	r2, r2, #1
10002edc:	f7ff f984 	bl	100021e8 <cyw43_do_ioctl.constprop.0>
10002ee0:	6ba3      	ldr	r3, [r4, #56]	; 0x38
10002ee2:	2b00      	cmp	r3, #0
10002ee4:	d000      	beq.n	10002ee8 <cyw43_ll_bus_init+0x72c>
10002ee6:	e210      	b.n	1000330a <cyw43_ll_bus_init+0xb4e>
10002ee8:	220b      	movs	r2, #11
10002eea:	4998      	ldr	r1, [pc, #608]	; (1000314c <cyw43_ll_bus_init+0x990>)
10002eec:	0028      	movs	r0, r5
10002eee:	f004 fffd 	bl	10007eec <__wrap___aeabi_memcpy>
10002ef2:	2600      	movs	r6, #0
10002ef4:	2343      	movs	r3, #67	; 0x43
10002ef6:	2208      	movs	r2, #8
10002ef8:	54e6      	strb	r6, [r4, r3]
10002efa:	3301      	adds	r3, #1
10002efc:	54e6      	strb	r6, [r4, r3]
10002efe:	3301      	adds	r3, #1
10002f00:	54e6      	strb	r6, [r4, r3]
10002f02:	3301      	adds	r3, #1
10002f04:	2102      	movs	r1, #2
10002f06:	54e6      	strb	r6, [r4, r3]
10002f08:	32ff      	adds	r2, #255	; 0xff
10002f0a:	3b37      	subs	r3, #55	; 0x37
10002f0c:	0020      	movs	r0, r4
10002f0e:	9601      	str	r6, [sp, #4]
10002f10:	9500      	str	r5, [sp, #0]
10002f12:	f7ff f8e1 	bl	100020d8 <cyw43_do_ioctl>
10002f16:	2206      	movs	r2, #6
10002f18:	498d      	ldr	r1, [pc, #564]	; (10003150 <cyw43_ll_bus_init+0x994>)
10002f1a:	0028      	movs	r0, r5
10002f1c:	f004 ffe6 	bl	10007eec <__wrap___aeabi_memcpy>
10002f20:	233e      	movs	r3, #62	; 0x3e
10002f22:	2201      	movs	r2, #1
10002f24:	54e2      	strb	r2, [r4, r3]
10002f26:	2208      	movs	r2, #8
10002f28:	3301      	adds	r3, #1
10002f2a:	54e6      	strb	r6, [r4, r3]
10002f2c:	3301      	adds	r3, #1
10002f2e:	54e6      	strb	r6, [r4, r3]
10002f30:	3301      	adds	r3, #1
10002f32:	54e6      	strb	r6, [r4, r3]
10002f34:	2102      	movs	r1, #2
10002f36:	3b37      	subs	r3, #55	; 0x37
10002f38:	0020      	movs	r0, r4
10002f3a:	9601      	str	r6, [sp, #4]
10002f3c:	9500      	str	r5, [sp, #0]
10002f3e:	32ff      	adds	r2, #255	; 0xff
10002f40:	f7ff f8ca 	bl	100020d8 <cyw43_do_ioctl>
10002f44:	464b      	mov	r3, r9
10002f46:	2b00      	cmp	r3, #0
10002f48:	d100      	bne.n	10002f4c <cyw43_ll_bus_init+0x790>
10002f4a:	e23c      	b.n	100033c6 <cyw43_ll_bus_init+0xc0a>
10002f4c:	0020      	movs	r0, r4
10002f4e:	4649      	mov	r1, r9
10002f50:	2206      	movs	r2, #6
10002f52:	3046      	adds	r0, #70	; 0x46
10002f54:	f007 fc80 	bl	1000a858 <__memmove_veneer>
10002f58:	220e      	movs	r2, #14
10002f5a:	0028      	movs	r0, r5
10002f5c:	497d      	ldr	r1, [pc, #500]	; (10003154 <cyw43_ll_bus_init+0x998>)
10002f5e:	f004 ffc5 	bl	10007eec <__wrap___aeabi_memcpy>
10002f62:	2208      	movs	r2, #8
10002f64:	2314      	movs	r3, #20
10002f66:	2102      	movs	r1, #2
10002f68:	0020      	movs	r0, r4
10002f6a:	9500      	str	r5, [sp, #0]
10002f6c:	32ff      	adds	r2, #255	; 0xff
10002f6e:	f7ff f93b 	bl	100021e8 <cyw43_do_ioctl.constprop.0>
10002f72:	e44c      	b.n	1000280e <cyw43_ll_bus_init+0x52>
10002f74:	2101      	movs	r1, #1
10002f76:	0020      	movs	r0, r4
10002f78:	4a77      	ldr	r2, [pc, #476]	; (10003158 <cyw43_ll_bus_init+0x99c>)
10002f7a:	0a33      	lsrs	r3, r6, #8
10002f7c:	f7fe fc40 	bl	10001800 <cyw43_write_reg_u8>
10002f80:	e5e2      	b.n	10002b48 <cyw43_ll_bus_init+0x38c>
10002f82:	2300      	movs	r3, #0
10002f84:	4a75      	ldr	r2, [pc, #468]	; (1000315c <cyw43_ll_bus_init+0x9a0>)
10002f86:	2101      	movs	r1, #1
10002f88:	0020      	movs	r0, r4
10002f8a:	f7fe fc39 	bl	10001800 <cyw43_write_reg_u8>
10002f8e:	22ff      	movs	r2, #255	; 0xff
10002f90:	68a3      	ldr	r3, [r4, #8]
10002f92:	0412      	lsls	r2, r2, #16
10002f94:	4073      	eors	r3, r6
10002f96:	4213      	tst	r3, r2
10002f98:	d100      	bne.n	10002f9c <cyw43_ll_bus_init+0x7e0>
10002f9a:	e5d0      	b.n	10002b3e <cyw43_ll_bus_init+0x382>
10002f9c:	0c33      	lsrs	r3, r6, #16
10002f9e:	2101      	movs	r1, #1
10002fa0:	0020      	movs	r0, r4
10002fa2:	4a6f      	ldr	r2, [pc, #444]	; (10003160 <cyw43_ll_bus_init+0x9a4>)
10002fa4:	f7fe fc2c 	bl	10001800 <cyw43_write_reg_u8>
10002fa8:	68a3      	ldr	r3, [r4, #8]
10002faa:	4073      	eors	r3, r6
10002fac:	e5c7      	b.n	10002b3e <cyw43_ll_bus_init+0x382>
10002fae:	2101      	movs	r1, #1
10002fb0:	0020      	movs	r0, r4
10002fb2:	f7fe fea7 	bl	10001d04 <cyw43_kso_set>
10002fb6:	2301      	movs	r3, #1
10002fb8:	74a3      	strb	r3, [r4, #18]
10002fba:	e763      	b.n	10002e84 <cyw43_ll_bus_init+0x6c8>
10002fbc:	23c0      	movs	r3, #192	; 0xc0
10002fbe:	2101      	movs	r1, #1
10002fc0:	0020      	movs	r0, r4
10002fc2:	4a65      	ldr	r2, [pc, #404]	; (10003158 <cyw43_ll_bus_init+0x99c>)
10002fc4:	035b      	lsls	r3, r3, #13
10002fc6:	f7fe fc1b 	bl	10001800 <cyw43_write_reg_u8>
10002fca:	e751      	b.n	10002e70 <cyw43_ll_bus_init+0x6b4>
10002fcc:	23c0      	movs	r3, #192	; 0xc0
10002fce:	4a64      	ldr	r2, [pc, #400]	; (10003160 <cyw43_ll_bus_init+0x9a4>)
10002fd0:	015b      	lsls	r3, r3, #5
10002fd2:	2101      	movs	r1, #1
10002fd4:	0020      	movs	r0, r4
10002fd6:	f7fe fc13 	bl	10001800 <cyw43_write_reg_u8>
10002fda:	23c0      	movs	r3, #192	; 0xc0
10002fdc:	68a2      	ldr	r2, [r4, #8]
10002fde:	055b      	lsls	r3, r3, #21
10002fe0:	4053      	eors	r3, r2
10002fe2:	e740      	b.n	10002e66 <cyw43_ll_bus_init+0x6aa>
10002fe4:	2318      	movs	r3, #24
10002fe6:	2101      	movs	r1, #1
10002fe8:	0020      	movs	r0, r4
10002fea:	4a5c      	ldr	r2, [pc, #368]	; (1000315c <cyw43_ll_bus_init+0x9a0>)
10002fec:	f7fe fc08 	bl	10001800 <cyw43_write_reg_u8>
10002ff0:	68a3      	ldr	r3, [r4, #8]
10002ff2:	406b      	eors	r3, r5
10002ff4:	e732      	b.n	10002e5c <cyw43_ll_bus_init+0x6a0>
10002ff6:	23c0      	movs	r3, #192	; 0xc0
10002ff8:	2101      	movs	r1, #1
10002ffa:	0020      	movs	r0, r4
10002ffc:	4a56      	ldr	r2, [pc, #344]	; (10003158 <cyw43_ll_bus_init+0x99c>)
10002ffe:	035b      	lsls	r3, r3, #13
10003000:	f7fe fbfe 	bl	10001800 <cyw43_write_reg_u8>
10003004:	e719      	b.n	10002e3a <cyw43_ll_bus_init+0x67e>
10003006:	23c0      	movs	r3, #192	; 0xc0
10003008:	4a55      	ldr	r2, [pc, #340]	; (10003160 <cyw43_ll_bus_init+0x9a4>)
1000300a:	015b      	lsls	r3, r3, #5
1000300c:	2101      	movs	r1, #1
1000300e:	0020      	movs	r0, r4
10003010:	f7fe fbf6 	bl	10001800 <cyw43_write_reg_u8>
10003014:	23c0      	movs	r3, #192	; 0xc0
10003016:	68a2      	ldr	r2, [r4, #8]
10003018:	055b      	lsls	r3, r3, #21
1000301a:	4053      	eors	r3, r2
1000301c:	e708      	b.n	10002e30 <cyw43_ll_bus_init+0x674>
1000301e:	2318      	movs	r3, #24
10003020:	2101      	movs	r1, #1
10003022:	0020      	movs	r0, r4
10003024:	4a4d      	ldr	r2, [pc, #308]	; (1000315c <cyw43_ll_bus_init+0x9a0>)
10003026:	f7fe fbeb 	bl	10001800 <cyw43_write_reg_u8>
1000302a:	68a3      	ldr	r3, [r4, #8]
1000302c:	406b      	eors	r3, r5
1000302e:	e6fa      	b.n	10002e26 <cyw43_ll_bus_init+0x66a>
10003030:	484c      	ldr	r0, [pc, #304]	; (10003164 <cyw43_ll_bus_init+0x9a8>)
10003032:	f005 f8bf 	bl	100081b4 <__wrap_puts>
10003036:	e641      	b.n	10002cbc <cyw43_ll_bus_init+0x500>
10003038:	23c0      	movs	r3, #192	; 0xc0
1000303a:	2101      	movs	r1, #1
1000303c:	0020      	movs	r0, r4
1000303e:	4a46      	ldr	r2, [pc, #280]	; (10003158 <cyw43_ll_bus_init+0x99c>)
10003040:	035b      	lsls	r3, r3, #13
10003042:	f7fe fbdd 	bl	10001800 <cyw43_write_reg_u8>
10003046:	e633      	b.n	10002cb0 <cyw43_ll_bus_init+0x4f4>
10003048:	23c0      	movs	r3, #192	; 0xc0
1000304a:	4a45      	ldr	r2, [pc, #276]	; (10003160 <cyw43_ll_bus_init+0x9a4>)
1000304c:	015b      	lsls	r3, r3, #5
1000304e:	2101      	movs	r1, #1
10003050:	0020      	movs	r0, r4
10003052:	f7fe fbd5 	bl	10001800 <cyw43_write_reg_u8>
10003056:	23c0      	movs	r3, #192	; 0xc0
10003058:	68a2      	ldr	r2, [r4, #8]
1000305a:	055b      	lsls	r3, r3, #21
1000305c:	4053      	eors	r3, r2
1000305e:	e622      	b.n	10002ca6 <cyw43_ll_bus_init+0x4ea>
10003060:	2318      	movs	r3, #24
10003062:	2101      	movs	r1, #1
10003064:	0020      	movs	r0, r4
10003066:	4a3d      	ldr	r2, [pc, #244]	; (1000315c <cyw43_ll_bus_init+0x9a0>)
10003068:	f7fe fbca 	bl	10001800 <cyw43_write_reg_u8>
1000306c:	68a3      	ldr	r3, [r4, #8]
1000306e:	4073      	eors	r3, r6
10003070:	e614      	b.n	10002c9c <cyw43_ll_bus_init+0x4e0>
10003072:	23c0      	movs	r3, #192	; 0xc0
10003074:	2101      	movs	r1, #1
10003076:	0020      	movs	r0, r4
10003078:	4a37      	ldr	r2, [pc, #220]	; (10003158 <cyw43_ll_bus_init+0x99c>)
1000307a:	035b      	lsls	r3, r3, #13
1000307c:	f7fe fbc0 	bl	10001800 <cyw43_write_reg_u8>
10003080:	e5ee      	b.n	10002c60 <cyw43_ll_bus_init+0x4a4>
10003082:	23c0      	movs	r3, #192	; 0xc0
10003084:	4a36      	ldr	r2, [pc, #216]	; (10003160 <cyw43_ll_bus_init+0x9a4>)
10003086:	015b      	lsls	r3, r3, #5
10003088:	2101      	movs	r1, #1
1000308a:	0020      	movs	r0, r4
1000308c:	f7fe fbb8 	bl	10001800 <cyw43_write_reg_u8>
10003090:	23c0      	movs	r3, #192	; 0xc0
10003092:	68a2      	ldr	r2, [r4, #8]
10003094:	055b      	lsls	r3, r3, #21
10003096:	4053      	eors	r3, r2
10003098:	e5dd      	b.n	10002c56 <cyw43_ll_bus_init+0x49a>
1000309a:	2318      	movs	r3, #24
1000309c:	2101      	movs	r1, #1
1000309e:	0020      	movs	r0, r4
100030a0:	4a2e      	ldr	r2, [pc, #184]	; (1000315c <cyw43_ll_bus_init+0x9a0>)
100030a2:	f7fe fbad 	bl	10001800 <cyw43_write_reg_u8>
100030a6:	68a3      	ldr	r3, [r4, #8]
100030a8:	4073      	eors	r3, r6
100030aa:	e5cf      	b.n	10002c4c <cyw43_ll_bus_init+0x490>
100030ac:	23c0      	movs	r3, #192	; 0xc0
100030ae:	2101      	movs	r1, #1
100030b0:	0020      	movs	r0, r4
100030b2:	4a29      	ldr	r2, [pc, #164]	; (10003158 <cyw43_ll_bus_init+0x99c>)
100030b4:	035b      	lsls	r3, r3, #13
100030b6:	f7fe fba3 	bl	10001800 <cyw43_write_reg_u8>
100030ba:	e5ad      	b.n	10002c18 <cyw43_ll_bus_init+0x45c>
100030bc:	23c0      	movs	r3, #192	; 0xc0
100030be:	4a28      	ldr	r2, [pc, #160]	; (10003160 <cyw43_ll_bus_init+0x9a4>)
100030c0:	015b      	lsls	r3, r3, #5
100030c2:	2101      	movs	r1, #1
100030c4:	0020      	movs	r0, r4
100030c6:	f7fe fb9b 	bl	10001800 <cyw43_write_reg_u8>
100030ca:	23c0      	movs	r3, #192	; 0xc0
100030cc:	68a2      	ldr	r2, [r4, #8]
100030ce:	055b      	lsls	r3, r3, #21
100030d0:	4053      	eors	r3, r2
100030d2:	e59c      	b.n	10002c0e <cyw43_ll_bus_init+0x452>
100030d4:	2318      	movs	r3, #24
100030d6:	2101      	movs	r1, #1
100030d8:	0020      	movs	r0, r4
100030da:	4a20      	ldr	r2, [pc, #128]	; (1000315c <cyw43_ll_bus_init+0x9a0>)
100030dc:	f7fe fb90 	bl	10001800 <cyw43_write_reg_u8>
100030e0:	68a3      	ldr	r3, [r4, #8]
100030e2:	406b      	eors	r3, r5
100030e4:	e58e      	b.n	10002c04 <cyw43_ll_bus_init+0x448>
100030e6:	23f0      	movs	r3, #240	; 0xf0
100030e8:	2101      	movs	r1, #1
100030ea:	0020      	movs	r0, r4
100030ec:	4a1a      	ldr	r2, [pc, #104]	; (10003158 <cyw43_ll_bus_init+0x99c>)
100030ee:	00db      	lsls	r3, r3, #3
100030f0:	f7fe fb86 	bl	10001800 <cyw43_write_reg_u8>
100030f4:	e574      	b.n	10002be0 <cyw43_ll_bus_init+0x424>
100030f6:	2307      	movs	r3, #7
100030f8:	4a19      	ldr	r2, [pc, #100]	; (10003160 <cyw43_ll_bus_init+0x9a4>)
100030fa:	2101      	movs	r1, #1
100030fc:	0020      	movs	r0, r4
100030fe:	f7fe fb7f 	bl	10001800 <cyw43_write_reg_u8>
10003102:	23f0      	movs	r3, #240	; 0xf0
10003104:	68a2      	ldr	r2, [r4, #8]
10003106:	02db      	lsls	r3, r3, #11
10003108:	4053      	eors	r3, r2
1000310a:	e564      	b.n	10002bd6 <cyw43_ll_bus_init+0x41a>
1000310c:	2300      	movs	r3, #0
1000310e:	2101      	movs	r1, #1
10003110:	0020      	movs	r0, r4
10003112:	4a12      	ldr	r2, [pc, #72]	; (1000315c <cyw43_ll_bus_init+0x9a0>)
10003114:	f7fe fb74 	bl	10001800 <cyw43_write_reg_u8>
10003118:	68a3      	ldr	r3, [r4, #8]
1000311a:	406b      	eors	r3, r5
1000311c:	e556      	b.n	10002bcc <cyw43_ll_bus_init+0x410>
1000311e:	23c0      	movs	r3, #192	; 0xc0
10003120:	2101      	movs	r1, #1
10003122:	0020      	movs	r0, r4
10003124:	4a0c      	ldr	r2, [pc, #48]	; (10003158 <cyw43_ll_bus_init+0x99c>)
10003126:	035b      	lsls	r3, r3, #13
10003128:	f7fe fb6a 	bl	10001800 <cyw43_write_reg_u8>
1000312c:	e4a6      	b.n	10002a7c <cyw43_ll_bus_init+0x2c0>
1000312e:	46c0      	nop			; (mov r8, r8)
10003130:	0001001e 	.word	0x0001001e
10003134:	0001000e 	.word	0x0001000e
10003138:	0001001f 	.word	0x0001001f
1000313c:	0001000f 	.word	0x0001000f
10003140:	00008508 	.word	0x00008508
10003144:	1000ab10 	.word	0x1000ab10
10003148:	00021006 	.word	0x00021006
1000314c:	1000aae4 	.word	0x1000aae4
10003150:	1000aaf0 	.word	0x1000aaf0
10003154:	1000aaf8 	.word	0x1000aaf8
10003158:	0001000a 	.word	0x0001000a
1000315c:	0001000c 	.word	0x0001000c
10003160:	0001000b 	.word	0x0001000b
10003164:	1000aa5c 	.word	0x1000aa5c
10003168:	23c0      	movs	r3, #192	; 0xc0
1000316a:	4ab6      	ldr	r2, [pc, #728]	; (10003444 <cyw43_ll_bus_init+0xc88>)
1000316c:	015b      	lsls	r3, r3, #5
1000316e:	2101      	movs	r1, #1
10003170:	0020      	movs	r0, r4
10003172:	f7fe fb45 	bl	10001800 <cyw43_write_reg_u8>
10003176:	23c0      	movs	r3, #192	; 0xc0
10003178:	68a2      	ldr	r2, [r4, #8]
1000317a:	055b      	lsls	r3, r3, #21
1000317c:	4053      	eors	r3, r2
1000317e:	e478      	b.n	10002a72 <cyw43_ll_bus_init+0x2b6>
10003180:	2318      	movs	r3, #24
10003182:	2101      	movs	r1, #1
10003184:	0020      	movs	r0, r4
10003186:	4ab0      	ldr	r2, [pc, #704]	; (10003448 <cyw43_ll_bus_init+0xc8c>)
10003188:	f7fe fb3a 	bl	10001800 <cyw43_write_reg_u8>
1000318c:	68a3      	ldr	r3, [r4, #8]
1000318e:	406b      	eors	r3, r5
10003190:	e46a      	b.n	10002a68 <cyw43_ll_bus_init+0x2ac>
10003192:	23c0      	movs	r3, #192	; 0xc0
10003194:	2101      	movs	r1, #1
10003196:	0020      	movs	r0, r4
10003198:	4aac      	ldr	r2, [pc, #688]	; (1000344c <cyw43_ll_bus_init+0xc90>)
1000319a:	035b      	lsls	r3, r3, #13
1000319c:	f7fe fb30 	bl	10001800 <cyw43_write_reg_u8>
100031a0:	e450      	b.n	10002a44 <cyw43_ll_bus_init+0x288>
100031a2:	23c0      	movs	r3, #192	; 0xc0
100031a4:	4aa7      	ldr	r2, [pc, #668]	; (10003444 <cyw43_ll_bus_init+0xc88>)
100031a6:	015b      	lsls	r3, r3, #5
100031a8:	2101      	movs	r1, #1
100031aa:	0020      	movs	r0, r4
100031ac:	f7fe fb28 	bl	10001800 <cyw43_write_reg_u8>
100031b0:	23c0      	movs	r3, #192	; 0xc0
100031b2:	68a2      	ldr	r2, [r4, #8]
100031b4:	055b      	lsls	r3, r3, #21
100031b6:	4053      	eors	r3, r2
100031b8:	e43f      	b.n	10002a3a <cyw43_ll_bus_init+0x27e>
100031ba:	2318      	movs	r3, #24
100031bc:	2101      	movs	r1, #1
100031be:	0020      	movs	r0, r4
100031c0:	4aa1      	ldr	r2, [pc, #644]	; (10003448 <cyw43_ll_bus_init+0xc8c>)
100031c2:	f7fe fb1d 	bl	10001800 <cyw43_write_reg_u8>
100031c6:	68a3      	ldr	r3, [r4, #8]
100031c8:	406b      	eors	r3, r5
100031ca:	e431      	b.n	10002a30 <cyw43_ll_bus_init+0x274>
100031cc:	23c0      	movs	r3, #192	; 0xc0
100031ce:	2101      	movs	r1, #1
100031d0:	0020      	movs	r0, r4
100031d2:	4a9e      	ldr	r2, [pc, #632]	; (1000344c <cyw43_ll_bus_init+0xc90>)
100031d4:	035b      	lsls	r3, r3, #13
100031d6:	f7fe fb13 	bl	10001800 <cyw43_write_reg_u8>
100031da:	e417      	b.n	10002a0c <cyw43_ll_bus_init+0x250>
100031dc:	23c0      	movs	r3, #192	; 0xc0
100031de:	4a99      	ldr	r2, [pc, #612]	; (10003444 <cyw43_ll_bus_init+0xc88>)
100031e0:	015b      	lsls	r3, r3, #5
100031e2:	2101      	movs	r1, #1
100031e4:	0020      	movs	r0, r4
100031e6:	f7fe fb0b 	bl	10001800 <cyw43_write_reg_u8>
100031ea:	23c0      	movs	r3, #192	; 0xc0
100031ec:	68a2      	ldr	r2, [r4, #8]
100031ee:	055b      	lsls	r3, r3, #21
100031f0:	4053      	eors	r3, r2
100031f2:	f7ff fc06 	bl	10002a02 <cyw43_ll_bus_init+0x246>
100031f6:	2318      	movs	r3, #24
100031f8:	2101      	movs	r1, #1
100031fa:	0020      	movs	r0, r4
100031fc:	4a92      	ldr	r2, [pc, #584]	; (10003448 <cyw43_ll_bus_init+0xc8c>)
100031fe:	f7fe faff 	bl	10001800 <cyw43_write_reg_u8>
10003202:	68a3      	ldr	r3, [r4, #8]
10003204:	406b      	eors	r3, r5
10003206:	f7ff fbf6 	bl	100029f6 <cyw43_ll_bus_init+0x23a>
1000320a:	23c0      	movs	r3, #192	; 0xc0
1000320c:	2101      	movs	r1, #1
1000320e:	0020      	movs	r0, r4
10003210:	4a8e      	ldr	r2, [pc, #568]	; (1000344c <cyw43_ll_bus_init+0xc90>)
10003212:	035b      	lsls	r3, r3, #13
10003214:	f7fe faf4 	bl	10001800 <cyw43_write_reg_u8>
10003218:	f7ff fbd8 	bl	100029cc <cyw43_ll_bus_init+0x210>
1000321c:	23c0      	movs	r3, #192	; 0xc0
1000321e:	4a89      	ldr	r2, [pc, #548]	; (10003444 <cyw43_ll_bus_init+0xc88>)
10003220:	015b      	lsls	r3, r3, #5
10003222:	2101      	movs	r1, #1
10003224:	0020      	movs	r0, r4
10003226:	f7fe faeb 	bl	10001800 <cyw43_write_reg_u8>
1000322a:	23c0      	movs	r3, #192	; 0xc0
1000322c:	68a2      	ldr	r2, [r4, #8]
1000322e:	055b      	lsls	r3, r3, #21
10003230:	4053      	eors	r3, r2
10003232:	f7ff fbc5 	bl	100029c0 <cyw43_ll_bus_init+0x204>
10003236:	2318      	movs	r3, #24
10003238:	2101      	movs	r1, #1
1000323a:	0020      	movs	r0, r4
1000323c:	4a82      	ldr	r2, [pc, #520]	; (10003448 <cyw43_ll_bus_init+0xc8c>)
1000323e:	f7fe fadf 	bl	10001800 <cyw43_write_reg_u8>
10003242:	68a3      	ldr	r3, [r4, #8]
10003244:	4073      	eors	r3, r6
10003246:	f7ff fbb5 	bl	100029b4 <cyw43_ll_bus_init+0x1f8>
1000324a:	23c0      	movs	r3, #192	; 0xc0
1000324c:	2101      	movs	r1, #1
1000324e:	0020      	movs	r0, r4
10003250:	4a7e      	ldr	r2, [pc, #504]	; (1000344c <cyw43_ll_bus_init+0xc90>)
10003252:	035b      	lsls	r3, r3, #13
10003254:	f7fe fad4 	bl	10001800 <cyw43_write_reg_u8>
10003258:	f7ff fb94 	bl	10002984 <cyw43_ll_bus_init+0x1c8>
1000325c:	23c0      	movs	r3, #192	; 0xc0
1000325e:	4a79      	ldr	r2, [pc, #484]	; (10003444 <cyw43_ll_bus_init+0xc88>)
10003260:	015b      	lsls	r3, r3, #5
10003262:	2101      	movs	r1, #1
10003264:	0020      	movs	r0, r4
10003266:	f7fe facb 	bl	10001800 <cyw43_write_reg_u8>
1000326a:	23c0      	movs	r3, #192	; 0xc0
1000326c:	68a2      	ldr	r2, [r4, #8]
1000326e:	055b      	lsls	r3, r3, #21
10003270:	4053      	eors	r3, r2
10003272:	f7ff fb81 	bl	10002978 <cyw43_ll_bus_init+0x1bc>
10003276:	2318      	movs	r3, #24
10003278:	2101      	movs	r1, #1
1000327a:	0020      	movs	r0, r4
1000327c:	4a72      	ldr	r2, [pc, #456]	; (10003448 <cyw43_ll_bus_init+0xc8c>)
1000327e:	f7fe fabf 	bl	10001800 <cyw43_write_reg_u8>
10003282:	68a3      	ldr	r3, [r4, #8]
10003284:	406b      	eors	r3, r5
10003286:	f7ff fb71 	bl	1000296c <cyw43_ll_bus_init+0x1b0>
1000328a:	23c0      	movs	r3, #192	; 0xc0
1000328c:	2101      	movs	r1, #1
1000328e:	0020      	movs	r0, r4
10003290:	4a6e      	ldr	r2, [pc, #440]	; (1000344c <cyw43_ll_bus_init+0xc90>)
10003292:	035b      	lsls	r3, r3, #13
10003294:	f7fe fab4 	bl	10001800 <cyw43_write_reg_u8>
10003298:	f7ff fb4d 	bl	10002936 <cyw43_ll_bus_init+0x17a>
1000329c:	23c0      	movs	r3, #192	; 0xc0
1000329e:	4a69      	ldr	r2, [pc, #420]	; (10003444 <cyw43_ll_bus_init+0xc88>)
100032a0:	015b      	lsls	r3, r3, #5
100032a2:	2101      	movs	r1, #1
100032a4:	0020      	movs	r0, r4
100032a6:	f7fe faab 	bl	10001800 <cyw43_write_reg_u8>
100032aa:	23c0      	movs	r3, #192	; 0xc0
100032ac:	68a2      	ldr	r2, [r4, #8]
100032ae:	055b      	lsls	r3, r3, #21
100032b0:	4053      	eors	r3, r2
100032b2:	f7ff fb3a 	bl	1000292a <cyw43_ll_bus_init+0x16e>
100032b6:	2318      	movs	r3, #24
100032b8:	2101      	movs	r1, #1
100032ba:	0020      	movs	r0, r4
100032bc:	4a62      	ldr	r2, [pc, #392]	; (10003448 <cyw43_ll_bus_init+0xc8c>)
100032be:	f7fe fa9f 	bl	10001800 <cyw43_write_reg_u8>
100032c2:	68a3      	ldr	r3, [r4, #8]
100032c4:	4073      	eors	r3, r6
100032c6:	f7ff fb2a 	bl	1000291e <cyw43_ll_bus_init+0x162>
100032ca:	23c0      	movs	r3, #192	; 0xc0
100032cc:	2101      	movs	r1, #1
100032ce:	0020      	movs	r0, r4
100032d0:	4a5e      	ldr	r2, [pc, #376]	; (1000344c <cyw43_ll_bus_init+0xc90>)
100032d2:	035b      	lsls	r3, r3, #13
100032d4:	f7fe fa94 	bl	10001800 <cyw43_write_reg_u8>
100032d8:	f7ff fb09 	bl	100028ee <cyw43_ll_bus_init+0x132>
100032dc:	23c0      	movs	r3, #192	; 0xc0
100032de:	4a59      	ldr	r2, [pc, #356]	; (10003444 <cyw43_ll_bus_init+0xc88>)
100032e0:	015b      	lsls	r3, r3, #5
100032e2:	2101      	movs	r1, #1
100032e4:	0020      	movs	r0, r4
100032e6:	f7fe fa8b 	bl	10001800 <cyw43_write_reg_u8>
100032ea:	23c0      	movs	r3, #192	; 0xc0
100032ec:	68a2      	ldr	r2, [r4, #8]
100032ee:	055b      	lsls	r3, r3, #21
100032f0:	4053      	eors	r3, r2
100032f2:	f7ff faf6 	bl	100028e2 <cyw43_ll_bus_init+0x126>
100032f6:	2318      	movs	r3, #24
100032f8:	2101      	movs	r1, #1
100032fa:	0020      	movs	r0, r4
100032fc:	4a52      	ldr	r2, [pc, #328]	; (10003448 <cyw43_ll_bus_init+0xc8c>)
100032fe:	f7fe fa7f 	bl	10001800 <cyw43_write_reg_u8>
10003302:	68a3      	ldr	r3, [r4, #8]
10003304:	406b      	eors	r3, r5
10003306:	f7ff fae6 	bl	100028d6 <cyw43_ll_bus_init+0x11a>
1000330a:	4851      	ldr	r0, [pc, #324]	; (10003450 <cyw43_ll_bus_init+0xc94>)
1000330c:	f004 fff4 	bl	100082f8 <__wrap_printf>
10003310:	e5ea      	b.n	10002ee8 <cyw43_ll_bus_init+0x72c>
10003312:	b283      	uxth	r3, r0
10003314:	2204      	movs	r2, #4
10003316:	2100      	movs	r1, #0
10003318:	0020      	movs	r0, r4
1000331a:	f7fe f971 	bl	10001600 <cyw43_write_reg_u16>
1000331e:	e579      	b.n	10002e14 <cyw43_ll_bus_init+0x658>
10003320:	b2c3      	uxtb	r3, r0
10003322:	2001      	movs	r0, #1
10003324:	2101      	movs	r1, #1
10003326:	4303      	orrs	r3, r0
10003328:	4a4a      	ldr	r2, [pc, #296]	; (10003454 <cyw43_ll_bus_init+0xc98>)
1000332a:	0020      	movs	r0, r4
1000332c:	f7fe fa68 	bl	10001800 <cyw43_write_reg_u8>
10003330:	e557      	b.n	10002de2 <cyw43_ll_bus_init+0x626>
10003332:	23c0      	movs	r3, #192	; 0xc0
10003334:	2101      	movs	r1, #1
10003336:	0020      	movs	r0, r4
10003338:	4a44      	ldr	r2, [pc, #272]	; (1000344c <cyw43_ll_bus_init+0xc90>)
1000333a:	035b      	lsls	r3, r3, #13
1000333c:	f7fe fa60 	bl	10001800 <cyw43_write_reg_u8>
10003340:	e4fd      	b.n	10002d3e <cyw43_ll_bus_init+0x582>
10003342:	23c0      	movs	r3, #192	; 0xc0
10003344:	4a3f      	ldr	r2, [pc, #252]	; (10003444 <cyw43_ll_bus_init+0xc88>)
10003346:	015b      	lsls	r3, r3, #5
10003348:	2101      	movs	r1, #1
1000334a:	0020      	movs	r0, r4
1000334c:	f7fe fa58 	bl	10001800 <cyw43_write_reg_u8>
10003350:	23c0      	movs	r3, #192	; 0xc0
10003352:	68a2      	ldr	r2, [r4, #8]
10003354:	055b      	lsls	r3, r3, #21
10003356:	4053      	eors	r3, r2
10003358:	e4ec      	b.n	10002d34 <cyw43_ll_bus_init+0x578>
1000335a:	2318      	movs	r3, #24
1000335c:	2101      	movs	r1, #1
1000335e:	0020      	movs	r0, r4
10003360:	4a39      	ldr	r2, [pc, #228]	; (10003448 <cyw43_ll_bus_init+0xc8c>)
10003362:	f7fe fa4d 	bl	10001800 <cyw43_write_reg_u8>
10003366:	68a3      	ldr	r3, [r4, #8]
10003368:	406b      	eors	r3, r5
1000336a:	e4de      	b.n	10002d2a <cyw43_ll_bus_init+0x56e>
1000336c:	23c0      	movs	r3, #192	; 0xc0
1000336e:	2101      	movs	r1, #1
10003370:	0020      	movs	r0, r4
10003372:	4a36      	ldr	r2, [pc, #216]	; (1000344c <cyw43_ll_bus_init+0xc90>)
10003374:	035b      	lsls	r3, r3, #13
10003376:	f7fe fa43 	bl	10001800 <cyw43_write_reg_u8>
1000337a:	e4c4      	b.n	10002d06 <cyw43_ll_bus_init+0x54a>
1000337c:	23c0      	movs	r3, #192	; 0xc0
1000337e:	4a31      	ldr	r2, [pc, #196]	; (10003444 <cyw43_ll_bus_init+0xc88>)
10003380:	015b      	lsls	r3, r3, #5
10003382:	2101      	movs	r1, #1
10003384:	0020      	movs	r0, r4
10003386:	f7fe fa3b 	bl	10001800 <cyw43_write_reg_u8>
1000338a:	23c0      	movs	r3, #192	; 0xc0
1000338c:	68a2      	ldr	r2, [r4, #8]
1000338e:	055b      	lsls	r3, r3, #21
10003390:	4053      	eors	r3, r2
10003392:	e4b3      	b.n	10002cfc <cyw43_ll_bus_init+0x540>
10003394:	2318      	movs	r3, #24
10003396:	2101      	movs	r1, #1
10003398:	0020      	movs	r0, r4
1000339a:	4a2b      	ldr	r2, [pc, #172]	; (10003448 <cyw43_ll_bus_init+0xc8c>)
1000339c:	f7fe fa30 	bl	10001800 <cyw43_write_reg_u8>
100033a0:	68a3      	ldr	r3, [r4, #8]
100033a2:	406b      	eors	r3, r5
100033a4:	e4a5      	b.n	10002cf2 <cyw43_ll_bus_init+0x536>
100033a6:	482c      	ldr	r0, [pc, #176]	; (10003458 <cyw43_ll_bus_init+0xc9c>)
100033a8:	f004 ff04 	bl	100081b4 <__wrap_puts>
100033ac:	2306      	movs	r3, #6
100033ae:	425b      	negs	r3, r3
100033b0:	4698      	mov	r8, r3
100033b2:	f7ff fa2c 	bl	1000280e <cyw43_ll_bus_init+0x52>
100033b6:	4829      	ldr	r0, [pc, #164]	; (1000345c <cyw43_ll_bus_init+0xca0>)
100033b8:	f004 fefc 	bl	100081b4 <__wrap_puts>
100033bc:	2306      	movs	r3, #6
100033be:	425b      	negs	r3, r3
100033c0:	4698      	mov	r8, r3
100033c2:	f7ff fa24 	bl	1000280e <cyw43_ll_bus_init+0x52>
100033c6:	466a      	mov	r2, sp
100033c8:	0039      	movs	r1, r7
100033ca:	6abb      	ldr	r3, [r7, #40]	; 0x28
100033cc:	3130      	adds	r1, #48	; 0x30
100033ce:	9304      	str	r3, [sp, #16]
100033d0:	8dbb      	ldrh	r3, [r7, #44]	; 0x2c
100033d2:	0028      	movs	r0, r5
100033d4:	8293      	strh	r3, [r2, #20]
100033d6:	2214      	movs	r2, #20
100033d8:	f004 fd88 	bl	10007eec <__wrap___aeabi_memcpy>
100033dc:	2283      	movs	r2, #131	; 0x83
100033de:	2314      	movs	r3, #20
100033e0:	2100      	movs	r1, #0
100033e2:	0020      	movs	r0, r4
100033e4:	9500      	str	r5, [sp, #0]
100033e6:	0052      	lsls	r2, r2, #1
100033e8:	f7fe fefe 	bl	100021e8 <cyw43_do_ioctl.constprop.0>
100033ec:	2800      	cmp	r0, #0
100033ee:	d006      	beq.n	100033fe <cyw43_ll_bus_init+0xc42>
100033f0:	2000      	movs	r0, #0
100033f2:	a902      	add	r1, sp, #8
100033f4:	f002 f852 	bl	1000549c <cyw43_hal_generate_laa_mac>
100033f8:	ab02      	add	r3, sp, #8
100033fa:	4699      	mov	r9, r3
100033fc:	e5a6      	b.n	10002f4c <cyw43_ll_bus_init+0x790>
100033fe:	2206      	movs	r2, #6
10003400:	0029      	movs	r1, r5
10003402:	a802      	add	r0, sp, #8
10003404:	f004 fd72 	bl	10007eec <__wrap___aeabi_memcpy>
10003408:	9b02      	ldr	r3, [sp, #8]
1000340a:	9a04      	ldr	r2, [sp, #16]
1000340c:	4293      	cmp	r3, r2
1000340e:	d003      	beq.n	10003418 <cyw43_ll_bus_init+0xc5c>
10003410:	2300      	movs	r3, #0
10003412:	4698      	mov	r8, r3
10003414:	f7ff f9fb 	bl	1000280e <cyw43_ll_bus_init+0x52>
10003418:	466b      	mov	r3, sp
1000341a:	899a      	ldrh	r2, [r3, #12]
1000341c:	8a9b      	ldrh	r3, [r3, #20]
1000341e:	429a      	cmp	r2, r3
10003420:	d1f6      	bne.n	10003410 <cyw43_ll_bus_init+0xc54>
10003422:	e7e5      	b.n	100033f0 <cyw43_ll_bus_init+0xc34>
10003424:	480e      	ldr	r0, [pc, #56]	; (10003460 <cyw43_ll_bus_init+0xca4>)
10003426:	f004 fec5 	bl	100081b4 <__wrap_puts>
1000342a:	f7ff fa8b 	bl	10002944 <cyw43_ll_bus_init+0x188>
1000342e:	480d      	ldr	r0, [pc, #52]	; (10003464 <cyw43_ll_bus_init+0xca8>)
10003430:	f004 fec0 	bl	100081b4 <__wrap_puts>
10003434:	f7ff fb99 	bl	10002b6a <cyw43_ll_bus_init+0x3ae>
10003438:	4809      	ldr	r0, [pc, #36]	; (10003460 <cyw43_ll_bus_init+0xca4>)
1000343a:	f004 febb 	bl	100081b4 <__wrap_puts>
1000343e:	f7ff facc 	bl	100029da <cyw43_ll_bus_init+0x21e>
10003442:	46c0      	nop			; (mov r8, r8)
10003444:	0001000b 	.word	0x0001000b
10003448:	0001000c 	.word	0x0001000c
1000344c:	0001000a 	.word	0x0001000a
10003450:	1000aacc 	.word	0x1000aacc
10003454:	0001001f 	.word	0x0001001f
10003458:	1000aa9c 	.word	0x1000aa9c
1000345c:	1000aab4 	.word	0x1000aab4
10003460:	1000a9c8 	.word	0x1000a9c8
10003464:	1000aa34 	.word	0x1000aa34

10003468 <cyw43_ll_wifi_get_mac>:
10003468:	b570      	push	{r4, r5, r6, lr}
1000346a:	0006      	movs	r6, r0
1000346c:	000d      	movs	r5, r1
1000346e:	490e      	ldr	r1, [pc, #56]	; (100034a8 <cyw43_ll_wifi_get_mac+0x40>)
10003470:	3638      	adds	r6, #56	; 0x38
10003472:	0004      	movs	r4, r0
10003474:	b082      	sub	sp, #8
10003476:	2214      	movs	r2, #20
10003478:	3130      	adds	r1, #48	; 0x30
1000347a:	0030      	movs	r0, r6
1000347c:	f004 fd36 	bl	10007eec <__wrap___aeabi_memcpy>
10003480:	2283      	movs	r2, #131	; 0x83
10003482:	0020      	movs	r0, r4
10003484:	2314      	movs	r3, #20
10003486:	2100      	movs	r1, #0
10003488:	9600      	str	r6, [sp, #0]
1000348a:	0052      	lsls	r2, r2, #1
1000348c:	f7fe feac 	bl	100021e8 <cyw43_do_ioctl.constprop.0>
10003490:	1e04      	subs	r4, r0, #0
10003492:	d002      	beq.n	1000349a <cyw43_ll_wifi_get_mac+0x32>
10003494:	0020      	movs	r0, r4
10003496:	b002      	add	sp, #8
10003498:	bd70      	pop	{r4, r5, r6, pc}
1000349a:	2206      	movs	r2, #6
1000349c:	0031      	movs	r1, r6
1000349e:	0028      	movs	r0, r5
100034a0:	f004 fd24 	bl	10007eec <__wrap___aeabi_memcpy>
100034a4:	e7f6      	b.n	10003494 <cyw43_ll_wifi_get_mac+0x2c>
100034a6:	46c0      	nop			; (mov r8, r8)
100034a8:	1000ab10 	.word	0x1000ab10

100034ac <cyw43_ll_wifi_set_wpa_auth>:
100034ac:	2338      	movs	r3, #56	; 0x38
100034ae:	2204      	movs	r2, #4
100034b0:	b500      	push	{lr}
100034b2:	54c2      	strb	r2, [r0, r3]
100034b4:	2300      	movs	r3, #0
100034b6:	3235      	adds	r2, #53	; 0x35
100034b8:	5483      	strb	r3, [r0, r2]
100034ba:	3201      	adds	r2, #1
100034bc:	5483      	strb	r3, [r0, r2]
100034be:	3201      	adds	r2, #1
100034c0:	5483      	strb	r3, [r0, r2]
100034c2:	0003      	movs	r3, r0
100034c4:	b083      	sub	sp, #12
100034c6:	3338      	adds	r3, #56	; 0x38
100034c8:	9300      	str	r3, [sp, #0]
100034ca:	2102      	movs	r1, #2
100034cc:	2304      	movs	r3, #4
100034ce:	326a      	adds	r2, #106	; 0x6a
100034d0:	f7fe fe8a 	bl	100021e8 <cyw43_do_ioctl.constprop.0>
100034d4:	b003      	add	sp, #12
100034d6:	bd00      	pop	{pc}

100034d8 <cyw43_ll_wifi_rejoin>:
100034d8:	b500      	push	{lr}
100034da:	4b05      	ldr	r3, [pc, #20]	; (100034f0 <cyw43_ll_wifi_rejoin+0x18>)
100034dc:	b083      	sub	sp, #12
100034de:	18c3      	adds	r3, r0, r3
100034e0:	9300      	str	r3, [sp, #0]
100034e2:	221a      	movs	r2, #26
100034e4:	2324      	movs	r3, #36	; 0x24
100034e6:	2102      	movs	r1, #2
100034e8:	f7fe fe7e 	bl	100021e8 <cyw43_do_ioctl.constprop.0>
100034ec:	b003      	add	sp, #12
100034ee:	bd00      	pop	{pc}
100034f0:	0000081c 	.word	0x0000081c

100034f4 <cyw43_ll_gpio_set>:
100034f4:	b5f0      	push	{r4, r5, r6, r7, lr}
100034f6:	0004      	movs	r4, r0
100034f8:	b083      	sub	sp, #12
100034fa:	2902      	cmp	r1, #2
100034fc:	d82b      	bhi.n	10003556 <cyw43_ll_gpio_set+0x62>
100034fe:	2301      	movs	r3, #1
10003500:	408b      	lsls	r3, r1
10003502:	2a00      	cmp	r2, #0
10003504:	d124      	bne.n	10003550 <cyw43_ll_gpio_set+0x5c>
10003506:	2700      	movs	r7, #0
10003508:	b2dd      	uxtb	r5, r3
1000350a:	0026      	movs	r6, r4
1000350c:	3638      	adds	r6, #56	; 0x38
1000350e:	2208      	movs	r2, #8
10003510:	4912      	ldr	r1, [pc, #72]	; (1000355c <cyw43_ll_gpio_set+0x68>)
10003512:	0030      	movs	r0, r6
10003514:	f004 fcea 	bl	10007eec <__wrap___aeabi_memcpy>
10003518:	2340      	movs	r3, #64	; 0x40
1000351a:	2241      	movs	r2, #65	; 0x41
1000351c:	54e5      	strb	r5, [r4, r3]
1000351e:	2300      	movs	r3, #0
10003520:	54a3      	strb	r3, [r4, r2]
10003522:	3201      	adds	r2, #1
10003524:	54a3      	strb	r3, [r4, r2]
10003526:	3201      	adds	r2, #1
10003528:	54a3      	strb	r3, [r4, r2]
1000352a:	3201      	adds	r2, #1
1000352c:	54a7      	strb	r7, [r4, r2]
1000352e:	3201      	adds	r2, #1
10003530:	54a3      	strb	r3, [r4, r2]
10003532:	3201      	adds	r2, #1
10003534:	54a3      	strb	r3, [r4, r2]
10003536:	3201      	adds	r2, #1
10003538:	54a3      	strb	r3, [r4, r2]
1000353a:	2208      	movs	r2, #8
1000353c:	2102      	movs	r1, #2
1000353e:	0020      	movs	r0, r4
10003540:	9600      	str	r6, [sp, #0]
10003542:	3310      	adds	r3, #16
10003544:	32ff      	adds	r2, #255	; 0xff
10003546:	f7fe fe4f 	bl	100021e8 <cyw43_do_ioctl.constprop.0>
1000354a:	2000      	movs	r0, #0
1000354c:	b003      	add	sp, #12
1000354e:	bdf0      	pop	{r4, r5, r6, r7, pc}
10003550:	b2df      	uxtb	r7, r3
10003552:	003d      	movs	r5, r7
10003554:	e7d9      	b.n	1000350a <cyw43_ll_gpio_set+0x16>
10003556:	2001      	movs	r0, #1
10003558:	4240      	negs	r0, r0
1000355a:	e7f7      	b.n	1000354c <cyw43_ll_gpio_set+0x58>
1000355c:	1000ab08 	.word	0x1000ab08

10003560 <cyw43_ll_has_work>:
10003560:	b510      	push	{r4, lr}
10003562:	6800      	ldr	r0, [r0, #0]
10003564:	f000 f8e6 	bl	10003734 <cyw43_cb_read_host_interrupt_pin>
10003568:	3801      	subs	r0, #1
1000356a:	4243      	negs	r3, r0
1000356c:	4158      	adcs	r0, r3
1000356e:	b2c0      	uxtb	r0, r0
10003570:	bd10      	pop	{r4, pc}
10003572:	46c0      	nop			; (mov r8, r8)

10003574 <cyw43_poll_func>:
10003574:	b510      	push	{r4, lr}
10003576:	4b28      	ldr	r3, [pc, #160]	; (10003618 <cyw43_poll_func+0xa4>)
10003578:	b082      	sub	sp, #8
1000357a:	681b      	ldr	r3, [r3, #0]
1000357c:	2b00      	cmp	r3, #0
1000357e:	d017      	beq.n	100035b0 <cyw43_poll_func+0x3c>
10003580:	4c26      	ldr	r4, [pc, #152]	; (1000361c <cyw43_poll_func+0xa8>)
10003582:	0020      	movs	r0, r4
10003584:	f7ff ffec 	bl	10003560 <cyw43_ll_has_work>
10003588:	2800      	cmp	r0, #0
1000358a:	d13d      	bne.n	10003608 <cyw43_poll_func+0x94>
1000358c:	4b24      	ldr	r3, [pc, #144]	; (10003620 <cyw43_poll_func+0xac>)
1000358e:	5ce2      	ldrb	r2, [r4, r3]
10003590:	2a00      	cmp	r2, #0
10003592:	d12c      	bne.n	100035ee <cyw43_poll_func+0x7a>
10003594:	4b23      	ldr	r3, [pc, #140]	; (10003624 <cyw43_poll_func+0xb0>)
10003596:	5ce2      	ldrb	r2, [r4, r3]
10003598:	2a00      	cmp	r2, #0
1000359a:	d11e      	bne.n	100035da <cyw43_poll_func+0x66>
1000359c:	4b22      	ldr	r3, [pc, #136]	; (10003628 <cyw43_poll_func+0xb4>)
1000359e:	5ce2      	ldrb	r2, [r4, r3]
100035a0:	2a00      	cmp	r2, #0
100035a2:	d10c      	bne.n	100035be <cyw43_poll_func+0x4a>
100035a4:	4b21      	ldr	r3, [pc, #132]	; (1000362c <cyw43_poll_func+0xb8>)
100035a6:	681b      	ldr	r3, [r3, #0]
100035a8:	2b00      	cmp	r3, #0
100035aa:	d003      	beq.n	100035b4 <cyw43_poll_func+0x40>
100035ac:	f001 ff24 	bl	100053f8 <cyw43_post_poll_hook>
100035b0:	b002      	add	sp, #8
100035b2:	bd10      	pop	{r4, pc}
100035b4:	2101      	movs	r1, #1
100035b6:	0020      	movs	r0, r4
100035b8:	f7ff f8e6 	bl	10002788 <cyw43_ll_bus_sleep>
100035bc:	e7f6      	b.n	100035ac <cyw43_poll_func+0x38>
100035be:	2200      	movs	r2, #0
100035c0:	0020      	movs	r0, r4
100035c2:	54e2      	strb	r2, [r4, r3]
100035c4:	f7ff ff88 	bl	100034d8 <cyw43_ll_wifi_rejoin>
100035c8:	2386      	movs	r3, #134	; 0x86
100035ca:	2201      	movs	r2, #1
100035cc:	011b      	lsls	r3, r3, #4
100035ce:	50e2      	str	r2, [r4, r3]
100035d0:	4b16      	ldr	r3, [pc, #88]	; (1000362c <cyw43_poll_func+0xb8>)
100035d2:	681b      	ldr	r3, [r3, #0]
100035d4:	2b00      	cmp	r3, #0
100035d6:	d1e9      	bne.n	100035ac <cyw43_poll_func+0x38>
100035d8:	e7ec      	b.n	100035b4 <cyw43_poll_func+0x40>
100035da:	2200      	movs	r2, #0
100035dc:	0020      	movs	r0, r4
100035de:	54e2      	strb	r2, [r4, r3]
100035e0:	f7ff ff64 	bl	100034ac <cyw43_ll_wifi_set_wpa_auth>
100035e4:	4b10      	ldr	r3, [pc, #64]	; (10003628 <cyw43_poll_func+0xb4>)
100035e6:	5ce2      	ldrb	r2, [r4, r3]
100035e8:	2a00      	cmp	r2, #0
100035ea:	d0db      	beq.n	100035a4 <cyw43_poll_func+0x30>
100035ec:	e7e7      	b.n	100035be <cyw43_poll_func+0x4a>
100035ee:	2200      	movs	r2, #0
100035f0:	2169      	movs	r1, #105	; 0x69
100035f2:	54e2      	strb	r2, [r4, r3]
100035f4:	0020      	movs	r0, r4
100035f6:	2300      	movs	r3, #0
100035f8:	9200      	str	r2, [sp, #0]
100035fa:	f7ff f8b5 	bl	10002768 <cyw43_ll_ioctl>
100035fe:	4b09      	ldr	r3, [pc, #36]	; (10003624 <cyw43_poll_func+0xb0>)
10003600:	5ce2      	ldrb	r2, [r4, r3]
10003602:	2a00      	cmp	r2, #0
10003604:	d0ca      	beq.n	1000359c <cyw43_poll_func+0x28>
10003606:	e7e8      	b.n	100035da <cyw43_poll_func+0x66>
10003608:	0020      	movs	r0, r4
1000360a:	f7ff f879 	bl	10002700 <cyw43_ll_process_packets>
1000360e:	4b04      	ldr	r3, [pc, #16]	; (10003620 <cyw43_poll_func+0xac>)
10003610:	5ce2      	ldrb	r2, [r4, r3]
10003612:	2a00      	cmp	r2, #0
10003614:	d0be      	beq.n	10003594 <cyw43_poll_func+0x20>
10003616:	e7ea      	b.n	100035ee <cyw43_poll_func+0x7a>
10003618:	20001db0 	.word	0x20001db0
1000361c:	20001db8 	.word	0x20001db8
10003620:	0000086d 	.word	0x0000086d
10003624:	0000086f 	.word	0x0000086f
10003628:	0000086e 	.word	0x0000086e
1000362c:	20001db4 	.word	0x20001db4

10003630 <cyw43_init>:
10003630:	b570      	push	{r4, r5, r6, lr}
10003632:	2380      	movs	r3, #128	; 0x80
10003634:	25d0      	movs	r5, #208	; 0xd0
10003636:	2680      	movs	r6, #128	; 0x80
10003638:	0004      	movs	r4, r0
1000363a:	062d      	lsls	r5, r5, #24
1000363c:	045b      	lsls	r3, r3, #17
1000363e:	62ab      	str	r3, [r5, #40]	; 0x28
10003640:	0436      	lsls	r6, r6, #16
10003642:	2200      	movs	r2, #0
10003644:	2100      	movs	r1, #0
10003646:	2018      	movs	r0, #24
10003648:	f000 fb90 	bl	10003d6c <gpio_set_pulls>
1000364c:	626e      	str	r6, [r5, #36]	; 0x24
1000364e:	2200      	movs	r2, #0
10003650:	2100      	movs	r1, #0
10003652:	2017      	movs	r0, #23
10003654:	f000 fb8a 	bl	10003d6c <gpio_set_pulls>
10003658:	61ae      	str	r6, [r5, #24]
1000365a:	0021      	movs	r1, r4
1000365c:	0020      	movs	r0, r4
1000365e:	f7ff f83f 	bl	100026e0 <cyw43_ll_init>
10003662:	2300      	movs	r3, #0
10003664:	2103      	movs	r1, #3
10003666:	4a08      	ldr	r2, [pc, #32]	; (10003688 <cyw43_init+0x58>)
10003668:	54a3      	strb	r3, [r4, r2]
1000366a:	4a08      	ldr	r2, [pc, #32]	; (1000368c <cyw43_init+0x5c>)
1000366c:	50a3      	str	r3, [r4, r2]
1000366e:	3204      	adds	r2, #4
10003670:	50a3      	str	r3, [r4, r2]
10003672:	4a07      	ldr	r2, [pc, #28]	; (10003690 <cyw43_init+0x60>)
10003674:	52a1      	strh	r1, [r4, r2]
10003676:	4a07      	ldr	r2, [pc, #28]	; (10003694 <cyw43_init+0x64>)
10003678:	54a3      	strb	r3, [r4, r2]
1000367a:	4a07      	ldr	r2, [pc, #28]	; (10003698 <cyw43_init+0x68>)
1000367c:	6013      	str	r3, [r2, #0]
1000367e:	2201      	movs	r2, #1
10003680:	4b06      	ldr	r3, [pc, #24]	; (1000369c <cyw43_init+0x6c>)
10003682:	50e2      	str	r2, [r4, r3]
10003684:	bd70      	pop	{r4, r5, r6, pc}
10003686:	46c0      	nop			; (mov r8, r8)
10003688:	00000854 	.word	0x00000854
1000368c:	0000085c 	.word	0x0000085c
10003690:	00000874 	.word	0x00000874
10003694:	00000876 	.word	0x00000876
10003698:	20001db0 	.word	0x20001db0
1000369c:	0000086c 	.word	0x0000086c

100036a0 <cyw43_deinit>:
100036a0:	b5f8      	push	{r3, r4, r5, r6, r7, lr}
100036a2:	0004      	movs	r4, r0
100036a4:	f001 ff0e 	bl	100054c4 <cyw43_thread_enter>
100036a8:	4e1c      	ldr	r6, [pc, #112]	; (1000371c <cyw43_deinit+0x7c>)
100036aa:	6833      	ldr	r3, [r6, #0]
100036ac:	2b00      	cmp	r3, #0
100036ae:	d031      	beq.n	10003714 <cyw43_deinit+0x74>
100036b0:	2100      	movs	r1, #0
100036b2:	0020      	movs	r0, r4
100036b4:	f001 ff56 	bl	10005564 <cyw43_cb_tcpip_deinit>
100036b8:	2101      	movs	r1, #1
100036ba:	0020      	movs	r0, r4
100036bc:	f001 ff52 	bl	10005564 <cyw43_cb_tcpip_deinit>
100036c0:	0020      	movs	r0, r4
100036c2:	f7ff f819 	bl	100026f8 <cyw43_ll_deinit>
100036c6:	25d0      	movs	r5, #208	; 0xd0
100036c8:	2380      	movs	r3, #128	; 0x80
100036ca:	2780      	movs	r7, #128	; 0x80
100036cc:	045b      	lsls	r3, r3, #17
100036ce:	062d      	lsls	r5, r5, #24
100036d0:	62ab      	str	r3, [r5, #40]	; 0x28
100036d2:	2200      	movs	r2, #0
100036d4:	2100      	movs	r1, #0
100036d6:	2018      	movs	r0, #24
100036d8:	043f      	lsls	r7, r7, #16
100036da:	f000 fb47 	bl	10003d6c <gpio_set_pulls>
100036de:	2200      	movs	r2, #0
100036e0:	2100      	movs	r1, #0
100036e2:	2017      	movs	r0, #23
100036e4:	626f      	str	r7, [r5, #36]	; 0x24
100036e6:	f000 fb41 	bl	10003d6c <gpio_set_pulls>
100036ea:	0021      	movs	r1, r4
100036ec:	0020      	movs	r0, r4
100036ee:	61af      	str	r7, [r5, #24]
100036f0:	f7fe fff6 	bl	100026e0 <cyw43_ll_init>
100036f4:	2300      	movs	r3, #0
100036f6:	2103      	movs	r1, #3
100036f8:	4a09      	ldr	r2, [pc, #36]	; (10003720 <cyw43_deinit+0x80>)
100036fa:	6033      	str	r3, [r6, #0]
100036fc:	54a3      	strb	r3, [r4, r2]
100036fe:	4a09      	ldr	r2, [pc, #36]	; (10003724 <cyw43_deinit+0x84>)
10003700:	50a3      	str	r3, [r4, r2]
10003702:	3204      	adds	r2, #4
10003704:	50a3      	str	r3, [r4, r2]
10003706:	4a08      	ldr	r2, [pc, #32]	; (10003728 <cyw43_deinit+0x88>)
10003708:	52a1      	strh	r1, [r4, r2]
1000370a:	4a08      	ldr	r2, [pc, #32]	; (1000372c <cyw43_deinit+0x8c>)
1000370c:	54a3      	strb	r3, [r4, r2]
1000370e:	2201      	movs	r2, #1
10003710:	4b07      	ldr	r3, [pc, #28]	; (10003730 <cyw43_deinit+0x90>)
10003712:	50e2      	str	r2, [r4, r3]
10003714:	f001 fee0 	bl	100054d8 <cyw43_thread_exit>
10003718:	bdf8      	pop	{r3, r4, r5, r6, r7, pc}
1000371a:	46c0      	nop			; (mov r8, r8)
1000371c:	20001db0 	.word	0x20001db0
10003720:	00000854 	.word	0x00000854
10003724:	0000085c 	.word	0x0000085c
10003728:	00000874 	.word	0x00000874
1000372c:	00000876 	.word	0x00000876
10003730:	0000086c 	.word	0x0000086c

10003734 <cyw43_cb_read_host_interrupt_pin>:
10003734:	23d0      	movs	r3, #208	; 0xd0
10003736:	061b      	lsls	r3, r3, #24
10003738:	6858      	ldr	r0, [r3, #4]
1000373a:	01c0      	lsls	r0, r0, #7
1000373c:	0fc0      	lsrs	r0, r0, #31
1000373e:	4770      	bx	lr

10003740 <cyw43_cb_ensure_awake>:
10003740:	2232      	movs	r2, #50	; 0x32
10003742:	4b01      	ldr	r3, [pc, #4]	; (10003748 <cyw43_cb_ensure_awake+0x8>)
10003744:	601a      	str	r2, [r3, #0]
10003746:	4770      	bx	lr
10003748:	20001db4 	.word	0x20001db4

1000374c <cyw43_cb_process_async_event>:
1000374c:	4b80      	ldr	r3, [pc, #512]	; (10003950 <cyw43_cb_process_async_event+0x204>)
1000374e:	b570      	push	{r4, r5, r6, lr}
10003750:	58c3      	ldr	r3, [r0, r3]
10003752:	0005      	movs	r5, r0
10003754:	000c      	movs	r4, r1
10003756:	07db      	lsls	r3, r3, #31
10003758:	d42e      	bmi.n	100037b8 <cyw43_cb_process_async_event+0x6c>
1000375a:	6863      	ldr	r3, [r4, #4]
1000375c:	2b45      	cmp	r3, #69	; 0x45
1000375e:	d01b      	beq.n	10003798 <cyw43_cb_process_async_event+0x4c>
10003760:	2b0b      	cmp	r3, #11
10003762:	d054      	beq.n	1000380e <cyw43_cb_process_async_event+0xc2>
10003764:	2b17      	cmp	r3, #23
10003766:	d00c      	beq.n	10003782 <cyw43_cb_process_async_event+0x36>
10003768:	2b00      	cmp	r3, #0
1000376a:	d000      	beq.n	1000376e <cyw43_cb_process_async_event+0x22>
1000376c:	e06f      	b.n	1000384e <cyw43_cb_process_async_event+0x102>
1000376e:	68a3      	ldr	r3, [r4, #8]
10003770:	2b00      	cmp	r3, #0
10003772:	d165      	bne.n	10003840 <cyw43_cb_process_async_event+0xf4>
10003774:	2386      	movs	r3, #134	; 0x86
10003776:	011b      	lsls	r3, r3, #4
10003778:	58eb      	ldr	r3, [r5, r3]
1000377a:	4a76      	ldr	r2, [pc, #472]	; (10003954 <cyw43_cb_process_async_event+0x208>)
1000377c:	4293      	cmp	r3, r2
1000377e:	d03d      	beq.n	100037fc <cyw43_cb_process_async_event+0xb0>
10003780:	bd70      	pop	{r4, r5, r6, pc}
10003782:	68a3      	ldr	r3, [r4, #8]
10003784:	2b00      	cmp	r3, #0
10003786:	d1f5      	bne.n	10003774 <cyw43_cb_process_async_event+0x28>
10003788:	68e3      	ldr	r3, [r4, #12]
1000378a:	2b08      	cmp	r3, #8
1000378c:	d1f2      	bne.n	10003774 <cyw43_cb_process_async_event+0x28>
1000378e:	2202      	movs	r2, #2
10003790:	4b71      	ldr	r3, [pc, #452]	; (10003958 <cyw43_cb_process_async_event+0x20c>)
10003792:	32ff      	adds	r2, #255	; 0xff
10003794:	52ea      	strh	r2, [r5, r3]
10003796:	e069      	b.n	1000386c <cyw43_cb_process_async_event+0x120>
10003798:	4b70      	ldr	r3, [pc, #448]	; (1000395c <cyw43_cb_process_async_event+0x210>)
1000379a:	58ea      	ldr	r2, [r5, r3]
1000379c:	2a01      	cmp	r2, #1
1000379e:	d1e9      	bne.n	10003774 <cyw43_cb_process_async_event+0x28>
100037a0:	68a2      	ldr	r2, [r4, #8]
100037a2:	2a08      	cmp	r2, #8
100037a4:	d100      	bne.n	100037a8 <cyw43_cb_process_async_event+0x5c>
100037a6:	e0b0      	b.n	1000390a <cyw43_cb_process_async_event+0x1be>
100037a8:	2a00      	cmp	r2, #0
100037aa:	d1e3      	bne.n	10003774 <cyw43_cb_process_async_event+0x28>
100037ac:	2202      	movs	r2, #2
100037ae:	50ea      	str	r2, [r5, r3]
100037b0:	2386      	movs	r3, #134	; 0x86
100037b2:	011b      	lsls	r3, r3, #4
100037b4:	58eb      	ldr	r3, [r5, r3]
100037b6:	e7e0      	b.n	1000377a <cyw43_cb_process_async_event+0x2e>
100037b8:	f001 fa90 	bl	10004cdc <time_us_64>
100037bc:	2900      	cmp	r1, #0
100037be:	d02f      	beq.n	10003820 <cyw43_cb_process_async_event+0xd4>
100037c0:	22fa      	movs	r2, #250	; 0xfa
100037c2:	2300      	movs	r3, #0
100037c4:	0092      	lsls	r2, r2, #2
100037c6:	f003 fffb 	bl	100077c0 <__wrap___aeabi_uldivmod>
100037ca:	8862      	ldrh	r2, [r4, #2]
100037cc:	0001      	movs	r1, r0
100037ce:	4864      	ldr	r0, [pc, #400]	; (10003960 <cyw43_cb_process_async_event+0x214>)
100037d0:	f004 fd92 	bl	100082f8 <__wrap_printf>
100037d4:	6861      	ldr	r1, [r4, #4]
100037d6:	2958      	cmp	r1, #88	; 0x58
100037d8:	d82e      	bhi.n	10003838 <cyw43_cb_process_async_event+0xec>
100037da:	4b62      	ldr	r3, [pc, #392]	; (10003964 <cyw43_cb_process_async_event+0x218>)
100037dc:	008a      	lsls	r2, r1, #2
100037de:	58d3      	ldr	r3, [r2, r3]
100037e0:	2b00      	cmp	r3, #0
100037e2:	d029      	beq.n	10003838 <cyw43_cb_process_async_event+0xec>
100037e4:	0019      	movs	r1, r3
100037e6:	4860      	ldr	r0, [pc, #384]	; (10003968 <cyw43_cb_process_async_event+0x21c>)
100037e8:	f004 fd86 	bl	100082f8 <__wrap_printf>
100037ec:	232e      	movs	r3, #46	; 0x2e
100037ee:	68e2      	ldr	r2, [r4, #12]
100037f0:	5ce3      	ldrb	r3, [r4, r3]
100037f2:	68a1      	ldr	r1, [r4, #8]
100037f4:	485d      	ldr	r0, [pc, #372]	; (1000396c <cyw43_cb_process_async_event+0x220>)
100037f6:	f004 fd7f 	bl	100082f8 <__wrap_printf>
100037fa:	e7ae      	b.n	1000375a <cyw43_cb_process_async_event+0xe>
100037fc:	2386      	movs	r3, #134	; 0x86
100037fe:	2201      	movs	r2, #1
10003800:	011b      	lsls	r3, r3, #4
10003802:	2100      	movs	r1, #0
10003804:	0028      	movs	r0, r5
10003806:	50ea      	str	r2, [r5, r3]
10003808:	f001 feae 	bl	10005568 <cyw43_cb_tcpip_set_link_up>
1000380c:	e7b8      	b.n	10003780 <cyw43_cb_process_async_event+0x34>
1000380e:	2100      	movs	r1, #0
10003810:	0028      	movs	r0, r5
10003812:	f001 feaf 	bl	10005574 <cyw43_cb_tcpip_set_link_down>
10003816:	2386      	movs	r3, #134	; 0x86
10003818:	2200      	movs	r2, #0
1000381a:	011b      	lsls	r3, r3, #4
1000381c:	50ea      	str	r2, [r5, r3]
1000381e:	e7af      	b.n	10003780 <cyw43_cb_process_async_event+0x34>
10003820:	21fa      	movs	r1, #250	; 0xfa
10003822:	0089      	lsls	r1, r1, #2
10003824:	f003 ff8e 	bl	10007744 <__wrap___aeabi_uidiv>
10003828:	8862      	ldrh	r2, [r4, #2]
1000382a:	0001      	movs	r1, r0
1000382c:	484c      	ldr	r0, [pc, #304]	; (10003960 <cyw43_cb_process_async_event+0x214>)
1000382e:	f004 fd63 	bl	100082f8 <__wrap_printf>
10003832:	6861      	ldr	r1, [r4, #4]
10003834:	2958      	cmp	r1, #88	; 0x58
10003836:	d9d0      	bls.n	100037da <cyw43_cb_process_async_event+0x8e>
10003838:	484d      	ldr	r0, [pc, #308]	; (10003970 <cyw43_cb_process_async_event+0x224>)
1000383a:	f004 fd5d 	bl	100082f8 <__wrap_printf>
1000383e:	e7d5      	b.n	100037ec <cyw43_cb_process_async_event+0xa0>
10003840:	2b03      	cmp	r3, #3
10003842:	d05b      	beq.n	100038fc <cyw43_cb_process_async_event+0x1b0>
10003844:	2386      	movs	r3, #134	; 0x86
10003846:	2202      	movs	r2, #2
10003848:	011b      	lsls	r3, r3, #4
1000384a:	50ea      	str	r2, [r5, r3]
1000384c:	e798      	b.n	10003780 <cyw43_cb_process_async_event+0x34>
1000384e:	2b03      	cmp	r3, #3
10003850:	d010      	beq.n	10003874 <cyw43_cb_process_async_event+0x128>
10003852:	2b06      	cmp	r3, #6
10003854:	d124      	bne.n	100038a0 <cyw43_cb_process_async_event+0x154>
10003856:	68a3      	ldr	r3, [r4, #8]
10003858:	2b00      	cmp	r3, #0
1000385a:	d000      	beq.n	1000385e <cyw43_cb_process_async_event+0x112>
1000385c:	e78a      	b.n	10003774 <cyw43_cb_process_async_event+0x28>
1000385e:	68e3      	ldr	r3, [r4, #12]
10003860:	2b02      	cmp	r3, #2
10003862:	d000      	beq.n	10003866 <cyw43_cb_process_async_event+0x11a>
10003864:	e786      	b.n	10003774 <cyw43_cb_process_async_event+0x28>
10003866:	4b43      	ldr	r3, [pc, #268]	; (10003974 <cyw43_cb_process_async_event+0x228>)
10003868:	2201      	movs	r2, #1
1000386a:	54ea      	strb	r2, [r5, r3]
1000386c:	4842      	ldr	r0, [pc, #264]	; (10003978 <cyw43_cb_process_async_event+0x22c>)
1000386e:	f001 fdcb 	bl	10005408 <cyw43_schedule_internal_poll_dispatch>
10003872:	e77f      	b.n	10003774 <cyw43_cb_process_async_event+0x28>
10003874:	68a3      	ldr	r3, [r4, #8]
10003876:	2b00      	cmp	r3, #0
10003878:	d127      	bne.n	100038ca <cyw43_cb_process_async_event+0x17e>
1000387a:	2386      	movs	r3, #134	; 0x86
1000387c:	011b      	lsls	r3, r3, #4
1000387e:	58ea      	ldr	r2, [r5, r3]
10003880:	230f      	movs	r3, #15
10003882:	0019      	movs	r1, r3
10003884:	4011      	ands	r1, r2
10003886:	2904      	cmp	r1, #4
10003888:	d103      	bne.n	10003892 <cyw43_cb_process_async_event+0x146>
1000388a:	439a      	bics	r2, r3
1000388c:	0013      	movs	r3, r2
1000388e:	2201      	movs	r2, #1
10003890:	431a      	orrs	r2, r3
10003892:	2380      	movs	r3, #128	; 0x80
10003894:	009b      	lsls	r3, r3, #2
10003896:	4313      	orrs	r3, r2
10003898:	2286      	movs	r2, #134	; 0x86
1000389a:	0112      	lsls	r2, r2, #4
1000389c:	50ab      	str	r3, [r5, r2]
1000389e:	e76c      	b.n	1000377a <cyw43_cb_process_async_event+0x2e>
100038a0:	2b10      	cmp	r3, #16
100038a2:	d11a      	bne.n	100038da <cyw43_cb_process_async_event+0x18e>
100038a4:	68a3      	ldr	r3, [r4, #8]
100038a6:	2b00      	cmp	r3, #0
100038a8:	d000      	beq.n	100038ac <cyw43_cb_process_async_event+0x160>
100038aa:	e763      	b.n	10003774 <cyw43_cb_process_async_event+0x28>
100038ac:	8863      	ldrh	r3, [r4, #2]
100038ae:	07db      	lsls	r3, r3, #31
100038b0:	d53e      	bpl.n	10003930 <cyw43_cb_process_async_event+0x1e4>
100038b2:	232e      	movs	r3, #46	; 0x2e
100038b4:	5ce1      	ldrb	r1, [r4, r3]
100038b6:	2900      	cmp	r1, #0
100038b8:	d143      	bne.n	10003942 <cyw43_cb_process_async_event+0x1f6>
100038ba:	2286      	movs	r2, #134	; 0x86
100038bc:	2380      	movs	r3, #128	; 0x80
100038be:	0112      	lsls	r2, r2, #4
100038c0:	58a9      	ldr	r1, [r5, r2]
100038c2:	00db      	lsls	r3, r3, #3
100038c4:	430b      	orrs	r3, r1
100038c6:	50ab      	str	r3, [r5, r2]
100038c8:	e757      	b.n	1000377a <cyw43_cb_process_async_event+0x2e>
100038ca:	2b06      	cmp	r3, #6
100038cc:	d100      	bne.n	100038d0 <cyw43_cb_process_async_event+0x184>
100038ce:	e751      	b.n	10003774 <cyw43_cb_process_async_event+0x28>
100038d0:	2386      	movs	r3, #134	; 0x86
100038d2:	2204      	movs	r2, #4
100038d4:	011b      	lsls	r3, r3, #4
100038d6:	50ea      	str	r2, [r5, r3]
100038d8:	e752      	b.n	10003780 <cyw43_cb_process_async_event+0x34>
100038da:	2b2e      	cmp	r3, #46	; 0x2e
100038dc:	d000      	beq.n	100038e0 <cyw43_cb_process_async_event+0x194>
100038de:	e749      	b.n	10003774 <cyw43_cb_process_async_event+0x28>
100038e0:	68a3      	ldr	r3, [r4, #8]
100038e2:	2b06      	cmp	r3, #6
100038e4:	d01c      	beq.n	10003920 <cyw43_cb_process_async_event+0x1d4>
100038e6:	2b04      	cmp	r3, #4
100038e8:	d003      	beq.n	100038f2 <cyw43_cb_process_async_event+0x1a6>
100038ea:	2202      	movs	r2, #2
100038ec:	4393      	bics	r3, r2
100038ee:	2b08      	cmp	r3, #8
100038f0:	d1ee      	bne.n	100038d0 <cyw43_cb_process_async_event+0x184>
100038f2:	68e3      	ldr	r3, [r4, #12]
100038f4:	2b0f      	cmp	r3, #15
100038f6:	d1eb      	bne.n	100038d0 <cyw43_cb_process_async_event+0x184>
100038f8:	4b17      	ldr	r3, [pc, #92]	; (10003958 <cyw43_cb_process_async_event+0x20c>)
100038fa:	e7b5      	b.n	10003868 <cyw43_cb_process_async_event+0x11c>
100038fc:	68e2      	ldr	r2, [r4, #12]
100038fe:	2a00      	cmp	r2, #0
10003900:	d1a0      	bne.n	10003844 <cyw43_cb_process_async_event+0xf8>
10003902:	2286      	movs	r2, #134	; 0x86
10003904:	0112      	lsls	r2, r2, #4
10003906:	50ab      	str	r3, [r5, r2]
10003908:	e73a      	b.n	10003780 <cyw43_cb_process_async_event+0x34>
1000390a:	0021      	movs	r1, r4
1000390c:	4b1b      	ldr	r3, [pc, #108]	; (1000397c <cyw43_cb_process_async_event+0x230>)
1000390e:	3130      	adds	r1, #48	; 0x30
10003910:	58e8      	ldr	r0, [r5, r3]
10003912:	4b1b      	ldr	r3, [pc, #108]	; (10003980 <cyw43_cb_process_async_event+0x234>)
10003914:	58eb      	ldr	r3, [r5, r3]
10003916:	4798      	blx	r3
10003918:	2386      	movs	r3, #134	; 0x86
1000391a:	011b      	lsls	r3, r3, #4
1000391c:	58eb      	ldr	r3, [r5, r3]
1000391e:	e72c      	b.n	1000377a <cyw43_cb_process_async_event+0x2e>
10003920:	2286      	movs	r2, #134	; 0x86
10003922:	2380      	movs	r3, #128	; 0x80
10003924:	0112      	lsls	r2, r2, #4
10003926:	58a9      	ldr	r1, [r5, r2]
10003928:	011b      	lsls	r3, r3, #4
1000392a:	430b      	orrs	r3, r1
1000392c:	50ab      	str	r3, [r5, r2]
1000392e:	e724      	b.n	1000377a <cyw43_cb_process_async_event+0x2e>
10003930:	232e      	movs	r3, #46	; 0x2e
10003932:	0028      	movs	r0, r5
10003934:	5ce1      	ldrb	r1, [r4, r3]
10003936:	f001 fe1d 	bl	10005574 <cyw43_cb_tcpip_set_link_down>
1000393a:	2386      	movs	r3, #134	; 0x86
1000393c:	011b      	lsls	r3, r3, #4
1000393e:	58eb      	ldr	r3, [r5, r3]
10003940:	e71b      	b.n	1000377a <cyw43_cb_process_async_event+0x2e>
10003942:	0028      	movs	r0, r5
10003944:	f001 fe10 	bl	10005568 <cyw43_cb_tcpip_set_link_up>
10003948:	2386      	movs	r3, #134	; 0x86
1000394a:	011b      	lsls	r3, r3, #4
1000394c:	58eb      	ldr	r3, [r5, r3]
1000394e:	e714      	b.n	1000377a <cyw43_cb_process_async_event+0x2e>
10003950:	00000858 	.word	0x00000858
10003954:	00000e01 	.word	0x00000e01
10003958:	0000086e 	.word	0x0000086e
1000395c:	0000085c 	.word	0x0000085c
10003960:	10041e44 	.word	0x10041e44
10003964:	10041f0c 	.word	0x10041f0c
10003968:	10041e58 	.word	0x10041e58
1000396c:	10041e60 	.word	0x10041e60
10003970:	10041e5c 	.word	0x10041e5c
10003974:	0000086d 	.word	0x0000086d
10003978:	10003575 	.word	0x10003575
1000397c:	00000864 	.word	0x00000864
10003980:	00000868 	.word	0x00000868

10003984 <cyw43_gpio_set>:
10003984:	b5f8      	push	{r3, r4, r5, r6, r7, lr}
10003986:	4647      	mov	r7, r8
10003988:	46ce      	mov	lr, r9
1000398a:	0004      	movs	r4, r0
1000398c:	b580      	push	{r7, lr}
1000398e:	4688      	mov	r8, r1
10003990:	0016      	movs	r6, r2
10003992:	f001 fd97 	bl	100054c4 <cyw43_thread_enter>
10003996:	4f1f      	ldr	r7, [pc, #124]	; (10003a14 <cyw43_gpio_set+0x90>)
10003998:	2100      	movs	r1, #0
1000399a:	683d      	ldr	r5, [r7, #0]
1000399c:	0020      	movs	r0, r4
1000399e:	2d00      	cmp	r5, #0
100039a0:	d00e      	beq.n	100039c0 <cyw43_gpio_set+0x3c>
100039a2:	f7fe fef1 	bl	10002788 <cyw43_ll_bus_sleep>
100039a6:	0032      	movs	r2, r6
100039a8:	4641      	mov	r1, r8
100039aa:	0020      	movs	r0, r4
100039ac:	f7ff fda2 	bl	100034f4 <cyw43_ll_gpio_set>
100039b0:	0005      	movs	r5, r0
100039b2:	f001 fd91 	bl	100054d8 <cyw43_thread_exit>
100039b6:	0028      	movs	r0, r5
100039b8:	bcc0      	pop	{r6, r7}
100039ba:	46b9      	mov	r9, r7
100039bc:	46b0      	mov	r8, r6
100039be:	bdf8      	pop	{r3, r4, r5, r6, r7, pc}
100039c0:	f001 fdd0 	bl	10005564 <cyw43_cb_tcpip_deinit>
100039c4:	2101      	movs	r1, #1
100039c6:	0020      	movs	r0, r4
100039c8:	f001 fdcc 	bl	10005564 <cyw43_cb_tcpip_deinit>
100039cc:	4b12      	ldr	r3, [pc, #72]	; (10003a18 <cyw43_gpio_set+0x94>)
100039ce:	2014      	movs	r0, #20
100039d0:	54e5      	strb	r5, [r4, r3]
100039d2:	2380      	movs	r3, #128	; 0x80
100039d4:	25d0      	movs	r5, #208	; 0xd0
100039d6:	041b      	lsls	r3, r3, #16
100039d8:	4699      	mov	r9, r3
100039da:	062d      	lsls	r5, r5, #24
100039dc:	61ab      	str	r3, [r5, #24]
100039de:	f001 fd9f 	bl	10005520 <cyw43_delay_ms>
100039e2:	464b      	mov	r3, r9
100039e4:	2032      	movs	r0, #50	; 0x32
100039e6:	616b      	str	r3, [r5, #20]
100039e8:	f001 fd9a 	bl	10005520 <cyw43_delay_ms>
100039ec:	2100      	movs	r1, #0
100039ee:	0020      	movs	r0, r4
100039f0:	f7fe fee4 	bl	100027bc <cyw43_ll_bus_init>
100039f4:	1e05      	subs	r5, r0, #0
100039f6:	d1dc      	bne.n	100039b2 <cyw43_gpio_set+0x2e>
100039f8:	4b08      	ldr	r3, [pc, #32]	; (10003a1c <cyw43_gpio_set+0x98>)
100039fa:	0020      	movs	r0, r4
100039fc:	18e1      	adds	r1, r4, r3
100039fe:	f7ff fd33 	bl	10003468 <cyw43_ll_wifi_get_mac>
10003a02:	2232      	movs	r2, #50	; 0x32
10003a04:	4b06      	ldr	r3, [pc, #24]	; (10003a20 <cyw43_gpio_set+0x9c>)
10003a06:	4807      	ldr	r0, [pc, #28]	; (10003a24 <cyw43_gpio_set+0xa0>)
10003a08:	601a      	str	r2, [r3, #0]
10003a0a:	6038      	str	r0, [r7, #0]
10003a0c:	f001 fcfc 	bl	10005408 <cyw43_schedule_internal_poll_dispatch>
10003a10:	e7c9      	b.n	100039a6 <cyw43_gpio_set+0x22>
10003a12:	46c0      	nop			; (mov r8, r8)
10003a14:	20001db0 	.word	0x20001db0
10003a18:	00000854 	.word	0x00000854
10003a1c:	000008d7 	.word	0x000008d7
10003a20:	20001db4 	.word	0x20001db4
10003a24:	10003575 	.word	0x10003575

10003a28 <pio_sm_unclaim>:
10003a28:	4b05      	ldr	r3, [pc, #20]	; (10003a40 <pio_sm_unclaim+0x18>)
10003a2a:	b510      	push	{r4, lr}
10003a2c:	469c      	mov	ip, r3
10003a2e:	4460      	add	r0, ip
10003a30:	4243      	negs	r3, r0
10003a32:	4158      	adcs	r0, r3
10003a34:	0080      	lsls	r0, r0, #2
10003a36:	1841      	adds	r1, r0, r1
10003a38:	4802      	ldr	r0, [pc, #8]	; (10003a44 <pio_sm_unclaim+0x1c>)
10003a3a:	f7fc ff5d 	bl	100008f8 <hw_claim_clear>
10003a3e:	bd10      	pop	{r4, pc}
10003a40:	afd00000 	.word	0xafd00000
10003a44:	20002c81 	.word	0x20002c81

10003a48 <pio_claim_unused_sm>:
10003a48:	4b0b      	ldr	r3, [pc, #44]	; (10003a78 <pio_claim_unused_sm+0x30>)
10003a4a:	b510      	push	{r4, lr}
10003a4c:	469c      	mov	ip, r3
10003a4e:	4460      	add	r0, ip
10003a50:	4243      	negs	r3, r0
10003a52:	4158      	adcs	r0, r3
10003a54:	4a09      	ldr	r2, [pc, #36]	; (10003a7c <pio_claim_unused_sm+0x34>)
10003a56:	0084      	lsls	r4, r0, #2
10003a58:	b082      	sub	sp, #8
10003a5a:	9200      	str	r2, [sp, #0]
10003a5c:	4808      	ldr	r0, [pc, #32]	; (10003a80 <pio_claim_unused_sm+0x38>)
10003a5e:	0022      	movs	r2, r4
10003a60:	1ce3      	adds	r3, r4, #3
10003a62:	f7fc fefb 	bl	1000085c <hw_claim_unused_from_range>
10003a66:	4284      	cmp	r4, r0
10003a68:	dc02      	bgt.n	10003a70 <pio_claim_unused_sm+0x28>
10003a6a:	1b00      	subs	r0, r0, r4
10003a6c:	b002      	add	sp, #8
10003a6e:	bd10      	pop	{r4, pc}
10003a70:	2001      	movs	r0, #1
10003a72:	4240      	negs	r0, r0
10003a74:	e7fa      	b.n	10003a6c <pio_claim_unused_sm+0x24>
10003a76:	46c0      	nop			; (mov r8, r8)
10003a78:	afd00000 	.word	0xafd00000
10003a7c:	10042070 	.word	0x10042070
10003a80:	20002c81 	.word	0x20002c81

10003a84 <pio_can_add_program>:
10003a84:	b570      	push	{r4, r5, r6, lr}
10003a86:	000e      	movs	r6, r1
10003a88:	0004      	movs	r4, r0
10003a8a:	f7fc feaf 	bl	100007ec <hw_claim_lock>
10003a8e:	4b15      	ldr	r3, [pc, #84]	; (10003ae4 <pio_can_add_program+0x60>)
10003a90:	2201      	movs	r2, #1
10003a92:	469c      	mov	ip, r3
10003a94:	4464      	add	r4, ip
10003a96:	4263      	negs	r3, r4
10003a98:	415c      	adcs	r4, r3
10003a9a:	4b13      	ldr	r3, [pc, #76]	; (10003ae8 <pio_can_add_program+0x64>)
10003a9c:	00a4      	lsls	r4, r4, #2
10003a9e:	58e5      	ldr	r5, [r4, r3]
10003aa0:	2105      	movs	r1, #5
10003aa2:	7934      	ldrb	r4, [r6, #4]
10003aa4:	2320      	movs	r3, #32
10003aa6:	40a2      	lsls	r2, r4
10003aa8:	5671      	ldrsb	r1, [r6, r1]
10003aaa:	3a01      	subs	r2, #1
10003aac:	1b1b      	subs	r3, r3, r4
10003aae:	2900      	cmp	r1, #0
10003ab0:	db0b      	blt.n	10003aca <pio_can_add_program+0x46>
10003ab2:	4299      	cmp	r1, r3
10003ab4:	dc14      	bgt.n	10003ae0 <pio_can_add_program+0x5c>
10003ab6:	408a      	lsls	r2, r1
10003ab8:	0014      	movs	r4, r2
10003aba:	402c      	ands	r4, r5
10003abc:	4263      	negs	r3, r4
10003abe:	415c      	adcs	r4, r3
10003ac0:	b2e4      	uxtb	r4, r4
10003ac2:	f7fc fe9f 	bl	10000804 <hw_claim_unlock>
10003ac6:	0020      	movs	r0, r4
10003ac8:	bd70      	pop	{r4, r5, r6, pc}
10003aca:	2b00      	cmp	r3, #0
10003acc:	da02      	bge.n	10003ad4 <pio_can_add_program+0x50>
10003ace:	e007      	b.n	10003ae0 <pio_can_add_program+0x5c>
10003ad0:	3b01      	subs	r3, #1
10003ad2:	d305      	bcc.n	10003ae0 <pio_can_add_program+0x5c>
10003ad4:	0011      	movs	r1, r2
10003ad6:	4099      	lsls	r1, r3
10003ad8:	420d      	tst	r5, r1
10003ada:	d1f9      	bne.n	10003ad0 <pio_can_add_program+0x4c>
10003adc:	2401      	movs	r4, #1
10003ade:	e7f0      	b.n	10003ac2 <pio_can_add_program+0x3e>
10003ae0:	2400      	movs	r4, #0
10003ae2:	e7ee      	b.n	10003ac2 <pio_can_add_program+0x3e>
10003ae4:	afd00000 	.word	0xafd00000
10003ae8:	20001848 	.word	0x20001848

10003aec <pio_add_program>:
10003aec:	b5f0      	push	{r4, r5, r6, r7, lr}
10003aee:	46d6      	mov	lr, sl
10003af0:	464f      	mov	r7, r9
10003af2:	4646      	mov	r6, r8
10003af4:	4688      	mov	r8, r1
10003af6:	b5c0      	push	{r6, r7, lr}
10003af8:	2405      	movs	r4, #5
10003afa:	0006      	movs	r6, r0
10003afc:	f7fc fe76 	bl	100007ec <hw_claim_lock>
10003b00:	4643      	mov	r3, r8
10003b02:	791f      	ldrb	r7, [r3, #4]
10003b04:	571c      	ldrsb	r4, [r3, r4]
10003b06:	4b28      	ldr	r3, [pc, #160]	; (10003ba8 <pio_add_program+0xbc>)
10003b08:	4681      	mov	r9, r0
10003b0a:	18f0      	adds	r0, r6, r3
10003b0c:	4243      	negs	r3, r0
10003b0e:	4158      	adcs	r0, r3
10003b10:	4b26      	ldr	r3, [pc, #152]	; (10003bac <pio_add_program+0xc0>)
10003b12:	469a      	mov	sl, r3
10003b14:	0083      	lsls	r3, r0, #2
10003b16:	469c      	mov	ip, r3
10003b18:	4653      	mov	r3, sl
10003b1a:	4662      	mov	r2, ip
10003b1c:	5898      	ldr	r0, [r3, r2]
10003b1e:	2201      	movs	r2, #1
10003b20:	2320      	movs	r3, #32
10003b22:	40ba      	lsls	r2, r7
10003b24:	1bdb      	subs	r3, r3, r7
10003b26:	3a01      	subs	r2, #1
10003b28:	2c00      	cmp	r4, #0
10003b2a:	db32      	blt.n	10003b92 <pio_add_program+0xa6>
10003b2c:	429c      	cmp	r4, r3
10003b2e:	dc2d      	bgt.n	10003b8c <pio_add_program+0xa0>
10003b30:	40a2      	lsls	r2, r4
10003b32:	0015      	movs	r5, r2
10003b34:	4210      	tst	r0, r2
10003b36:	d129      	bne.n	10003b8c <pio_add_program+0xa0>
10003b38:	2f00      	cmp	r7, #0
10003b3a:	d01a      	beq.n	10003b72 <pio_add_program+0x86>
10003b3c:	4643      	mov	r3, r8
10003b3e:	785a      	ldrb	r2, [r3, #1]
10003b40:	7819      	ldrb	r1, [r3, #0]
10003b42:	0212      	lsls	r2, r2, #8
10003b44:	4311      	orrs	r1, r2
10003b46:	4642      	mov	r2, r8
10003b48:	789b      	ldrb	r3, [r3, #2]
10003b4a:	78d2      	ldrb	r2, [r2, #3]
10003b4c:	041b      	lsls	r3, r3, #16
10003b4e:	430b      	orrs	r3, r1
10003b50:	0612      	lsls	r2, r2, #24
10003b52:	431a      	orrs	r2, r3
10003b54:	4690      	mov	r8, r2
10003b56:	2200      	movs	r2, #0
10003b58:	4641      	mov	r1, r8
10003b5a:	0053      	lsls	r3, r2, #1
10003b5c:	5ac9      	ldrh	r1, [r1, r3]
10003b5e:	0b4b      	lsrs	r3, r1, #13
10003b60:	d100      	bne.n	10003b64 <pio_add_program+0x78>
10003b62:	1909      	adds	r1, r1, r4
10003b64:	1913      	adds	r3, r2, r4
10003b66:	3312      	adds	r3, #18
10003b68:	009b      	lsls	r3, r3, #2
10003b6a:	3201      	adds	r2, #1
10003b6c:	5199      	str	r1, [r3, r6]
10003b6e:	4297      	cmp	r7, r2
10003b70:	d8f2      	bhi.n	10003b58 <pio_add_program+0x6c>
10003b72:	4653      	mov	r3, sl
10003b74:	4662      	mov	r2, ip
10003b76:	4305      	orrs	r5, r0
10003b78:	509d      	str	r5, [r3, r2]
10003b7a:	4648      	mov	r0, r9
10003b7c:	f7fc fe42 	bl	10000804 <hw_claim_unlock>
10003b80:	0020      	movs	r0, r4
10003b82:	bce0      	pop	{r5, r6, r7}
10003b84:	46ba      	mov	sl, r7
10003b86:	46b1      	mov	r9, r6
10003b88:	46a8      	mov	r8, r5
10003b8a:	bdf0      	pop	{r4, r5, r6, r7, pc}
10003b8c:	4808      	ldr	r0, [pc, #32]	; (10003bb0 <pio_add_program+0xc4>)
10003b8e:	f002 faa3 	bl	100060d8 <panic>
10003b92:	2b00      	cmp	r3, #0
10003b94:	da02      	bge.n	10003b9c <pio_add_program+0xb0>
10003b96:	e7f9      	b.n	10003b8c <pio_add_program+0xa0>
10003b98:	3b01      	subs	r3, #1
10003b9a:	d3f7      	bcc.n	10003b8c <pio_add_program+0xa0>
10003b9c:	0015      	movs	r5, r2
10003b9e:	409d      	lsls	r5, r3
10003ba0:	001c      	movs	r4, r3
10003ba2:	4205      	tst	r5, r0
10003ba4:	d1f8      	bne.n	10003b98 <pio_add_program+0xac>
10003ba6:	e7c7      	b.n	10003b38 <pio_add_program+0x4c>
10003ba8:	afd00000 	.word	0xafd00000
10003bac:	20001848 	.word	0x20001848
10003bb0:	10042094 	.word	0x10042094

10003bb4 <pio_remove_program>:
10003bb4:	b570      	push	{r4, r5, r6, lr}
10003bb6:	2501      	movs	r5, #1
10003bb8:	790b      	ldrb	r3, [r1, #4]
10003bba:	0004      	movs	r4, r0
10003bbc:	409d      	lsls	r5, r3
10003bbe:	3d01      	subs	r5, #1
10003bc0:	4095      	lsls	r5, r2
10003bc2:	f7fc fe13 	bl	100007ec <hw_claim_lock>
10003bc6:	4b06      	ldr	r3, [pc, #24]	; (10003be0 <pio_remove_program+0x2c>)
10003bc8:	4906      	ldr	r1, [pc, #24]	; (10003be4 <pio_remove_program+0x30>)
10003bca:	469c      	mov	ip, r3
10003bcc:	4464      	add	r4, ip
10003bce:	4263      	negs	r3, r4
10003bd0:	415c      	adcs	r4, r3
10003bd2:	00a4      	lsls	r4, r4, #2
10003bd4:	5862      	ldr	r2, [r4, r1]
10003bd6:	43aa      	bics	r2, r5
10003bd8:	5062      	str	r2, [r4, r1]
10003bda:	f7fc fe13 	bl	10000804 <hw_claim_unlock>
10003bde:	bd70      	pop	{r4, r5, r6, pc}
10003be0:	afd00000 	.word	0xafd00000
10003be4:	20001848 	.word	0x20001848

10003be8 <pio_sm_set_pindirs_with_mask>:
10003be8:	b5f0      	push	{r4, r5, r6, r7, lr}
10003bea:	46de      	mov	lr, fp
10003bec:	4657      	mov	r7, sl
10003bee:	464e      	mov	r6, r9
10003bf0:	4645      	mov	r5, r8
10003bf2:	468b      	mov	fp, r1
10003bf4:	b5e0      	push	{r5, r6, r7, lr}
10003bf6:	001c      	movs	r4, r3
10003bf8:	b085      	sub	sp, #20
10003bfa:	004b      	lsls	r3, r1, #1
10003bfc:	9303      	str	r3, [sp, #12]
10003bfe:	445b      	add	r3, fp
10003c00:	00db      	lsls	r3, r3, #3
10003c02:	18c5      	adds	r5, r0, r3
10003c04:	002f      	movs	r7, r5
10003c06:	37dc      	adds	r7, #220	; 0xdc
10003c08:	0016      	movs	r6, r2
10003c0a:	683a      	ldr	r2, [r7, #0]
10003c0c:	4684      	mov	ip, r0
10003c0e:	9200      	str	r2, [sp, #0]
10003c10:	002a      	movs	r2, r5
10003c12:	32cc      	adds	r2, #204	; 0xcc
10003c14:	6812      	ldr	r2, [r2, #0]
10003c16:	33cc      	adds	r3, #204	; 0xcc
10003c18:	9201      	str	r2, [sp, #4]
10003c1a:	22c0      	movs	r2, #192	; 0xc0
10003c1c:	4463      	add	r3, ip
10003c1e:	0192      	lsls	r2, r2, #6
10003c20:	4313      	orrs	r3, r2
10003c22:	2280      	movs	r2, #128	; 0x80
10003c24:	0292      	lsls	r2, r2, #10
10003c26:	9002      	str	r0, [sp, #8]
10003c28:	601a      	str	r2, [r3, #0]
10003c2a:	2c00      	cmp	r4, #0
10003c2c:	d018      	beq.n	10003c60 <pio_sm_set_pindirs_with_mask+0x78>
10003c2e:	2380      	movs	r3, #128	; 0x80
10003c30:	04db      	lsls	r3, r3, #19
10003c32:	469a      	mov	sl, r3
10003c34:	2301      	movs	r3, #1
10003c36:	4699      	mov	r9, r3
10003c38:	4b13      	ldr	r3, [pc, #76]	; (10003c88 <pio_sm_set_pindirs_with_mask+0xa0>)
10003c3a:	35d8      	adds	r5, #216	; 0xd8
10003c3c:	4698      	mov	r8, r3
10003c3e:	0020      	movs	r0, r4
10003c40:	f003 fd52 	bl	100076e8 <__wrap___ctzsi2>
10003c44:	4652      	mov	r2, sl
10003c46:	0143      	lsls	r3, r0, #5
10003c48:	4313      	orrs	r3, r2
10003c4a:	603b      	str	r3, [r7, #0]
10003c4c:	0033      	movs	r3, r6
10003c4e:	464a      	mov	r2, r9
10003c50:	40c3      	lsrs	r3, r0
10003c52:	4013      	ands	r3, r2
10003c54:	4642      	mov	r2, r8
10003c56:	4313      	orrs	r3, r2
10003c58:	602b      	str	r3, [r5, #0]
10003c5a:	1e63      	subs	r3, r4, #1
10003c5c:	401c      	ands	r4, r3
10003c5e:	d1ee      	bne.n	10003c3e <pio_sm_set_pindirs_with_mask+0x56>
10003c60:	9b02      	ldr	r3, [sp, #8]
10003c62:	9803      	ldr	r0, [sp, #12]
10003c64:	469c      	mov	ip, r3
10003c66:	4458      	add	r0, fp
10003c68:	00c0      	lsls	r0, r0, #3
10003c6a:	4460      	add	r0, ip
10003c6c:	0003      	movs	r3, r0
10003c6e:	9a00      	ldr	r2, [sp, #0]
10003c70:	33dc      	adds	r3, #220	; 0xdc
10003c72:	601a      	str	r2, [r3, #0]
10003c74:	9b01      	ldr	r3, [sp, #4]
10003c76:	30cc      	adds	r0, #204	; 0xcc
10003c78:	6003      	str	r3, [r0, #0]
10003c7a:	b005      	add	sp, #20
10003c7c:	bcf0      	pop	{r4, r5, r6, r7}
10003c7e:	46bb      	mov	fp, r7
10003c80:	46b2      	mov	sl, r6
10003c82:	46a9      	mov	r9, r5
10003c84:	46a0      	mov	r8, r4
10003c86:	bdf0      	pop	{r4, r5, r6, r7, pc}
10003c88:	0000e080 	.word	0x0000e080

10003c8c <pio_sm_set_consecutive_pindirs>:
10003c8c:	b5f0      	push	{r4, r5, r6, r7, lr}
10003c8e:	4657      	mov	r7, sl
10003c90:	464e      	mov	r6, r9
10003c92:	4645      	mov	r5, r8
10003c94:	46de      	mov	lr, fp
10003c96:	4689      	mov	r9, r1
10003c98:	b5e0      	push	{r5, r6, r7, lr}
10003c9a:	b083      	sub	sp, #12
10003c9c:	a90c      	add	r1, sp, #48	; 0x30
10003c9e:	780d      	ldrb	r5, [r1, #0]
10003ca0:	4649      	mov	r1, r9
10003ca2:	0049      	lsls	r1, r1, #1
10003ca4:	4688      	mov	r8, r1
10003ca6:	4449      	add	r1, r9
10003ca8:	00c9      	lsls	r1, r1, #3
10003caa:	1846      	adds	r6, r0, r1
10003cac:	0037      	movs	r7, r6
10003cae:	0034      	movs	r4, r6
10003cb0:	37dc      	adds	r7, #220	; 0xdc
10003cb2:	9001      	str	r0, [sp, #4]
10003cb4:	6838      	ldr	r0, [r7, #0]
10003cb6:	34cc      	adds	r4, #204	; 0xcc
10003cb8:	4683      	mov	fp, r0
10003cba:	6820      	ldr	r0, [r4, #0]
10003cbc:	24c0      	movs	r4, #192	; 0xc0
10003cbe:	4682      	mov	sl, r0
10003cc0:	9801      	ldr	r0, [sp, #4]
10003cc2:	31cc      	adds	r1, #204	; 0xcc
10003cc4:	4684      	mov	ip, r0
10003cc6:	01a4      	lsls	r4, r4, #6
10003cc8:	4461      	add	r1, ip
10003cca:	4321      	orrs	r1, r4
10003ccc:	2480      	movs	r4, #128	; 0x80
10003cce:	02a4      	lsls	r4, r4, #10
10003cd0:	600c      	str	r4, [r1, #0]
10003cd2:	1e69      	subs	r1, r5, #1
10003cd4:	418d      	sbcs	r5, r1
10003cd6:	211f      	movs	r1, #31
10003cd8:	426d      	negs	r5, r5
10003cda:	400d      	ands	r5, r1
10003cdc:	4916      	ldr	r1, [pc, #88]	; (10003d38 <pio_sm_set_consecutive_pindirs+0xac>)
10003cde:	468c      	mov	ip, r1
10003ce0:	4465      	add	r5, ip
10003ce2:	2b05      	cmp	r3, #5
10003ce4:	d90e      	bls.n	10003d04 <pio_sm_set_consecutive_pindirs+0x78>
10003ce6:	21a0      	movs	r1, #160	; 0xa0
10003ce8:	0549      	lsls	r1, r1, #21
10003cea:	468c      	mov	ip, r1
10003cec:	211f      	movs	r1, #31
10003cee:	36d8      	adds	r6, #216	; 0xd8
10003cf0:	4660      	mov	r0, ip
10003cf2:	0154      	lsls	r4, r2, #5
10003cf4:	4304      	orrs	r4, r0
10003cf6:	3205      	adds	r2, #5
10003cf8:	3b05      	subs	r3, #5
10003cfa:	603c      	str	r4, [r7, #0]
10003cfc:	400a      	ands	r2, r1
10003cfe:	6035      	str	r5, [r6, #0]
10003d00:	2b05      	cmp	r3, #5
10003d02:	d8f5      	bhi.n	10003cf0 <pio_sm_set_consecutive_pindirs+0x64>
10003d04:	4641      	mov	r1, r8
10003d06:	0152      	lsls	r2, r2, #5
10003d08:	069b      	lsls	r3, r3, #26
10003d0a:	4313      	orrs	r3, r2
10003d0c:	4449      	add	r1, r9
10003d0e:	9a01      	ldr	r2, [sp, #4]
10003d10:	00c9      	lsls	r1, r1, #3
10003d12:	1850      	adds	r0, r2, r1
10003d14:	0002      	movs	r2, r0
10003d16:	32dc      	adds	r2, #220	; 0xdc
10003d18:	6013      	str	r3, [r2, #0]
10003d1a:	0003      	movs	r3, r0
10003d1c:	33d8      	adds	r3, #216	; 0xd8
10003d1e:	601d      	str	r5, [r3, #0]
10003d20:	465b      	mov	r3, fp
10003d22:	6013      	str	r3, [r2, #0]
10003d24:	4653      	mov	r3, sl
10003d26:	30cc      	adds	r0, #204	; 0xcc
10003d28:	6003      	str	r3, [r0, #0]
10003d2a:	b003      	add	sp, #12
10003d2c:	bcf0      	pop	{r4, r5, r6, r7}
10003d2e:	46bb      	mov	fp, r7
10003d30:	46b2      	mov	sl, r6
10003d32:	46a9      	mov	r9, r5
10003d34:	46a0      	mov	r8, r4
10003d36:	bdf0      	pop	{r4, r5, r6, r7, pc}
10003d38:	0000e080 	.word	0x0000e080

10003d3c <gpio_set_function>:
10003d3c:	4a09      	ldr	r2, [pc, #36]	; (10003d64 <gpio_set_function+0x28>)
10003d3e:	0083      	lsls	r3, r0, #2
10003d40:	4694      	mov	ip, r2
10003d42:	2240      	movs	r2, #64	; 0x40
10003d44:	4463      	add	r3, ip
10003d46:	b510      	push	{r4, lr}
10003d48:	681c      	ldr	r4, [r3, #0]
10003d4a:	00c0      	lsls	r0, r0, #3
10003d4c:	4062      	eors	r2, r4
10003d4e:	24c0      	movs	r4, #192	; 0xc0
10003d50:	4014      	ands	r4, r2
10003d52:	2280      	movs	r2, #128	; 0x80
10003d54:	0152      	lsls	r2, r2, #5
10003d56:	4313      	orrs	r3, r2
10003d58:	601c      	str	r4, [r3, #0]
10003d5a:	4b03      	ldr	r3, [pc, #12]	; (10003d68 <gpio_set_function+0x2c>)
10003d5c:	469c      	mov	ip, r3
10003d5e:	4460      	add	r0, ip
10003d60:	6041      	str	r1, [r0, #4]
10003d62:	bd10      	pop	{r4, pc}
10003d64:	4001c004 	.word	0x4001c004
10003d68:	40014000 	.word	0x40014000

10003d6c <gpio_set_pulls>:
10003d6c:	4b0a      	ldr	r3, [pc, #40]	; (10003d98 <gpio_set_pulls+0x2c>)
10003d6e:	0080      	lsls	r0, r0, #2
10003d70:	469c      	mov	ip, r3
10003d72:	2304      	movs	r3, #4
10003d74:	4460      	add	r0, ip
10003d76:	2900      	cmp	r1, #0
10003d78:	d001      	beq.n	10003d7e <gpio_set_pulls+0x12>
10003d7a:	230c      	movs	r3, #12
10003d7c:	2108      	movs	r1, #8
10003d7e:	2a00      	cmp	r2, #0
10003d80:	d100      	bne.n	10003d84 <gpio_set_pulls+0x18>
10003d82:	000b      	movs	r3, r1
10003d84:	6802      	ldr	r2, [r0, #0]
10003d86:	4053      	eors	r3, r2
10003d88:	220c      	movs	r2, #12
10003d8a:	401a      	ands	r2, r3
10003d8c:	2380      	movs	r3, #128	; 0x80
10003d8e:	015b      	lsls	r3, r3, #5
10003d90:	4318      	orrs	r0, r3
10003d92:	6002      	str	r2, [r0, #0]
10003d94:	4770      	bx	lr
10003d96:	46c0      	nop			; (mov r8, r8)
10003d98:	4001c004 	.word	0x4001c004

10003d9c <gpio_set_input_hysteresis_enabled>:
10003d9c:	4b08      	ldr	r3, [pc, #32]	; (10003dc0 <gpio_set_input_hysteresis_enabled+0x24>)
10003d9e:	0080      	lsls	r0, r0, #2
10003da0:	469c      	mov	ip, r3
10003da2:	4460      	add	r0, ip
10003da4:	2900      	cmp	r1, #0
10003da6:	d005      	beq.n	10003db4 <gpio_set_input_hysteresis_enabled+0x18>
10003da8:	2380      	movs	r3, #128	; 0x80
10003daa:	019b      	lsls	r3, r3, #6
10003dac:	4318      	orrs	r0, r3
10003dae:	2302      	movs	r3, #2
10003db0:	6003      	str	r3, [r0, #0]
10003db2:	4770      	bx	lr
10003db4:	23c0      	movs	r3, #192	; 0xc0
10003db6:	019b      	lsls	r3, r3, #6
10003db8:	4318      	orrs	r0, r3
10003dba:	2302      	movs	r3, #2
10003dbc:	6003      	str	r3, [r0, #0]
10003dbe:	e7f8      	b.n	10003db2 <gpio_set_input_hysteresis_enabled+0x16>
10003dc0:	4001c004 	.word	0x4001c004

10003dc4 <gpio_set_irq_enabled>:
10003dc4:	23d0      	movs	r3, #208	; 0xd0
10003dc6:	061b      	lsls	r3, r3, #24
10003dc8:	681b      	ldr	r3, [r3, #0]
10003dca:	b530      	push	{r4, r5, lr}
10003dcc:	0005      	movs	r5, r0
10003dce:	1e58      	subs	r0, r3, #1
10003dd0:	4183      	sbcs	r3, r0
10003dd2:	480f      	ldr	r0, [pc, #60]	; (10003e10 <gpio_set_irq_enabled+0x4c>)
10003dd4:	425c      	negs	r4, r3
10003dd6:	4684      	mov	ip, r0
10003dd8:	2007      	movs	r0, #7
10003dda:	2330      	movs	r3, #48	; 0x30
10003ddc:	4028      	ands	r0, r5
10003dde:	4023      	ands	r3, r4
10003de0:	0080      	lsls	r0, r0, #2
10003de2:	08ec      	lsrs	r4, r5, #3
10003de4:	4081      	lsls	r1, r0
10003de6:	0020      	movs	r0, r4
10003de8:	4d0a      	ldr	r5, [pc, #40]	; (10003e14 <gpio_set_irq_enabled+0x50>)
10003dea:	303c      	adds	r0, #60	; 0x3c
10003dec:	4463      	add	r3, ip
10003dee:	0080      	lsls	r0, r0, #2
10003df0:	00a4      	lsls	r4, r4, #2
10003df2:	5141      	str	r1, [r0, r5]
10003df4:	191b      	adds	r3, r3, r4
10003df6:	2a00      	cmp	r2, #0
10003df8:	d004      	beq.n	10003e04 <gpio_set_irq_enabled+0x40>
10003dfa:	2280      	movs	r2, #128	; 0x80
10003dfc:	0192      	lsls	r2, r2, #6
10003dfe:	4313      	orrs	r3, r2
10003e00:	6019      	str	r1, [r3, #0]
10003e02:	bd30      	pop	{r4, r5, pc}
10003e04:	22c0      	movs	r2, #192	; 0xc0
10003e06:	0192      	lsls	r2, r2, #6
10003e08:	4313      	orrs	r3, r2
10003e0a:	6019      	str	r1, [r3, #0]
10003e0c:	e7f9      	b.n	10003e02 <gpio_set_irq_enabled+0x3e>
10003e0e:	46c0      	nop			; (mov r8, r8)
10003e10:	40014100 	.word	0x40014100
10003e14:	40014000 	.word	0x40014000

10003e18 <gpio_add_raw_irq_handler_with_order_priority_masked>:
10003e18:	23d0      	movs	r3, #208	; 0xd0
10003e1a:	b5f0      	push	{r4, r5, r6, r7, lr}
10003e1c:	46c6      	mov	lr, r8
10003e1e:	0004      	movs	r4, r0
10003e20:	061b      	lsls	r3, r3, #24
10003e22:	4698      	mov	r8, r3
10003e24:	681b      	ldr	r3, [r3, #0]
10003e26:	4f0c      	ldr	r7, [pc, #48]	; (10003e58 <gpio_add_raw_irq_handler_with_order_priority_masked+0x40>)
10003e28:	009b      	lsls	r3, r3, #2
10003e2a:	58f8      	ldr	r0, [r7, r3]
10003e2c:	000d      	movs	r5, r1
10003e2e:	0016      	movs	r6, r2
10003e30:	b500      	push	{lr}
10003e32:	4204      	tst	r4, r0
10003e34:	d109      	bne.n	10003e4a <gpio_add_raw_irq_handler_with_order_priority_masked+0x32>
10003e36:	4304      	orrs	r4, r0
10003e38:	0032      	movs	r2, r6
10003e3a:	0029      	movs	r1, r5
10003e3c:	50fc      	str	r4, [r7, r3]
10003e3e:	200d      	movs	r0, #13
10003e40:	f000 f8b0 	bl	10003fa4 <irq_add_shared_handler>
10003e44:	bc80      	pop	{r7}
10003e46:	46b8      	mov	r8, r7
10003e48:	bdf0      	pop	{r4, r5, r6, r7, pc}
10003e4a:	f002 f95d 	bl	10006108 <hard_assertion_failure>
10003e4e:	4643      	mov	r3, r8
10003e50:	681b      	ldr	r3, [r3, #0]
10003e52:	009b      	lsls	r3, r3, #2
10003e54:	58f8      	ldr	r0, [r7, r3]
10003e56:	e7ee      	b.n	10003e36 <gpio_add_raw_irq_handler_with_order_priority_masked+0x1e>
10003e58:	20002b30 	.word	0x20002b30

10003e5c <gpio_remove_raw_irq_handler_masked>:
10003e5c:	b510      	push	{r4, lr}
10003e5e:	0004      	movs	r4, r0
10003e60:	200d      	movs	r0, #13
10003e62:	f000 f993 	bl	1000418c <irq_remove_handler>
10003e66:	23d0      	movs	r3, #208	; 0xd0
10003e68:	061b      	lsls	r3, r3, #24
10003e6a:	681b      	ldr	r3, [r3, #0]
10003e6c:	4902      	ldr	r1, [pc, #8]	; (10003e78 <gpio_remove_raw_irq_handler_masked+0x1c>)
10003e6e:	009b      	lsls	r3, r3, #2
10003e70:	585a      	ldr	r2, [r3, r1]
10003e72:	43a2      	bics	r2, r4
10003e74:	505a      	str	r2, [r3, r1]
10003e76:	bd10      	pop	{r4, pc}
10003e78:	20002b30 	.word	0x20002b30

10003e7c <gpio_set_input_enabled>:
10003e7c:	4b08      	ldr	r3, [pc, #32]	; (10003ea0 <gpio_set_input_enabled+0x24>)
10003e7e:	0080      	lsls	r0, r0, #2
10003e80:	469c      	mov	ip, r3
10003e82:	4460      	add	r0, ip
10003e84:	2900      	cmp	r1, #0
10003e86:	d005      	beq.n	10003e94 <gpio_set_input_enabled+0x18>
10003e88:	2380      	movs	r3, #128	; 0x80
10003e8a:	019b      	lsls	r3, r3, #6
10003e8c:	4318      	orrs	r0, r3
10003e8e:	2340      	movs	r3, #64	; 0x40
10003e90:	6003      	str	r3, [r0, #0]
10003e92:	4770      	bx	lr
10003e94:	23c0      	movs	r3, #192	; 0xc0
10003e96:	019b      	lsls	r3, r3, #6
10003e98:	4318      	orrs	r0, r3
10003e9a:	2340      	movs	r3, #64	; 0x40
10003e9c:	6003      	str	r3, [r0, #0]
10003e9e:	e7f8      	b.n	10003e92 <gpio_set_input_enabled+0x16>
10003ea0:	4001c004 	.word	0x4001c004

10003ea4 <gpio_init>:
10003ea4:	2301      	movs	r3, #1
10003ea6:	22d0      	movs	r2, #208	; 0xd0
10003ea8:	4083      	lsls	r3, r0
10003eaa:	0612      	lsls	r2, r2, #24
10003eac:	6293      	str	r3, [r2, #40]	; 0x28
10003eae:	6193      	str	r3, [r2, #24]
10003eb0:	4a09      	ldr	r2, [pc, #36]	; (10003ed8 <gpio_init+0x34>)
10003eb2:	0083      	lsls	r3, r0, #2
10003eb4:	4694      	mov	ip, r2
10003eb6:	2240      	movs	r2, #64	; 0x40
10003eb8:	4463      	add	r3, ip
10003eba:	6819      	ldr	r1, [r3, #0]
10003ebc:	00c0      	lsls	r0, r0, #3
10003ebe:	404a      	eors	r2, r1
10003ec0:	21c0      	movs	r1, #192	; 0xc0
10003ec2:	4011      	ands	r1, r2
10003ec4:	2280      	movs	r2, #128	; 0x80
10003ec6:	0152      	lsls	r2, r2, #5
10003ec8:	4313      	orrs	r3, r2
10003eca:	6019      	str	r1, [r3, #0]
10003ecc:	4b03      	ldr	r3, [pc, #12]	; (10003edc <gpio_init+0x38>)
10003ece:	469c      	mov	ip, r3
10003ed0:	2305      	movs	r3, #5
10003ed2:	4460      	add	r0, ip
10003ed4:	6043      	str	r3, [r0, #4]
10003ed6:	4770      	bx	lr
10003ed8:	4001c004 	.word	0x4001c004
10003edc:	40014000 	.word	0x40014000

10003ee0 <irq_set_enabled>:
10003ee0:	2301      	movs	r3, #1
10003ee2:	4083      	lsls	r3, r0
10003ee4:	2900      	cmp	r1, #0
10003ee6:	d004      	beq.n	10003ef2 <irq_set_enabled+0x12>
10003ee8:	4a03      	ldr	r2, [pc, #12]	; (10003ef8 <irq_set_enabled+0x18>)
10003eea:	6013      	str	r3, [r2, #0]
10003eec:	4a03      	ldr	r2, [pc, #12]	; (10003efc <irq_set_enabled+0x1c>)
10003eee:	6013      	str	r3, [r2, #0]
10003ef0:	4770      	bx	lr
10003ef2:	4a03      	ldr	r2, [pc, #12]	; (10003f00 <irq_set_enabled+0x20>)
10003ef4:	6013      	str	r3, [r2, #0]
10003ef6:	e7fb      	b.n	10003ef0 <irq_set_enabled+0x10>
10003ef8:	e000e280 	.word	0xe000e280
10003efc:	e000e100 	.word	0xe000e100
10003f00:	e000e180 	.word	0xe000e180

10003f04 <irq_set_pending>:
10003f04:	2301      	movs	r3, #1
10003f06:	4083      	lsls	r3, r0
10003f08:	4a01      	ldr	r2, [pc, #4]	; (10003f10 <irq_set_pending+0xc>)
10003f0a:	6013      	str	r3, [r2, #0]
10003f0c:	4770      	bx	lr
10003f0e:	46c0      	nop			; (mov r8, r8)
10003f10:	e000e200 	.word	0xe000e200

10003f14 <irq_has_shared_handler>:
10003f14:	4b08      	ldr	r3, [pc, #32]	; (10003f38 <irq_has_shared_handler+0x24>)
10003f16:	3010      	adds	r0, #16
10003f18:	689b      	ldr	r3, [r3, #8]
10003f1a:	0080      	lsls	r0, r0, #2
10003f1c:	58c3      	ldr	r3, [r0, r3]
10003f1e:	2b00      	cmp	r3, #0
10003f20:	d007      	beq.n	10003f32 <irq_has_shared_handler+0x1e>
10003f22:	4a06      	ldr	r2, [pc, #24]	; (10003f3c <irq_has_shared_handler+0x28>)
10003f24:	2000      	movs	r0, #0
10003f26:	1a9b      	subs	r3, r3, r2
10003f28:	222f      	movs	r2, #47	; 0x2f
10003f2a:	429a      	cmp	r2, r3
10003f2c:	4140      	adcs	r0, r0
10003f2e:	b2c0      	uxtb	r0, r0
10003f30:	4770      	bx	lr
10003f32:	2000      	movs	r0, #0
10003f34:	e7fc      	b.n	10003f30 <irq_has_shared_handler+0x1c>
10003f36:	46c0      	nop			; (mov r8, r8)
10003f38:	e000ed00 	.word	0xe000ed00
10003f3c:	20001064 	.word	0x20001064

10003f40 <irq_get_vtable_handler>:
10003f40:	4b02      	ldr	r3, [pc, #8]	; (10003f4c <irq_get_vtable_handler+0xc>)
10003f42:	3010      	adds	r0, #16
10003f44:	689b      	ldr	r3, [r3, #8]
10003f46:	0080      	lsls	r0, r0, #2
10003f48:	58c0      	ldr	r0, [r0, r3]
10003f4a:	4770      	bx	lr
10003f4c:	e000ed00 	.word	0xe000ed00

10003f50 <irq_set_exclusive_handler>:
10003f50:	b570      	push	{r4, r5, r6, lr}
10003f52:	000d      	movs	r5, r1
10003f54:	f3ef 8610 	mrs	r6, PRIMASK
10003f58:	b672      	cpsid	i
10003f5a:	4a0f      	ldr	r2, [pc, #60]	; (10003f98 <irq_set_exclusive_handler+0x48>)
10003f5c:	6813      	ldr	r3, [r2, #0]
10003f5e:	2b00      	cmp	r3, #0
10003f60:	d0fc      	beq.n	10003f5c <irq_set_exclusive_handler+0xc>
10003f62:	f3bf 8f5f 	dmb	sy
10003f66:	4b0d      	ldr	r3, [pc, #52]	; (10003f9c <irq_set_exclusive_handler+0x4c>)
10003f68:	3010      	adds	r0, #16
10003f6a:	689b      	ldr	r3, [r3, #8]
10003f6c:	0084      	lsls	r4, r0, #2
10003f6e:	591b      	ldr	r3, [r3, r4]
10003f70:	4a0b      	ldr	r2, [pc, #44]	; (10003fa0 <irq_set_exclusive_handler+0x50>)
10003f72:	4293      	cmp	r3, r2
10003f74:	d003      	beq.n	10003f7e <irq_set_exclusive_handler+0x2e>
10003f76:	429d      	cmp	r5, r3
10003f78:	d001      	beq.n	10003f7e <irq_set_exclusive_handler+0x2e>
10003f7a:	f002 f8c5 	bl	10006108 <hard_assertion_failure>
10003f7e:	4b07      	ldr	r3, [pc, #28]	; (10003f9c <irq_set_exclusive_handler+0x4c>)
10003f80:	689b      	ldr	r3, [r3, #8]
10003f82:	511d      	str	r5, [r3, r4]
10003f84:	f3bf 8f5f 	dmb	sy
10003f88:	f3bf 8f5f 	dmb	sy
10003f8c:	2200      	movs	r2, #0
10003f8e:	4b02      	ldr	r3, [pc, #8]	; (10003f98 <irq_set_exclusive_handler+0x48>)
10003f90:	601a      	str	r2, [r3, #0]
10003f92:	f386 8810 	msr	PRIMASK, r6
10003f96:	bd70      	pop	{r4, r5, r6, pc}
10003f98:	d0000124 	.word	0xd0000124
10003f9c:	e000ed00 	.word	0xe000ed00
10003fa0:	100001cd 	.word	0x100001cd

10003fa4 <irq_add_shared_handler>:
10003fa4:	b5f0      	push	{r4, r5, r6, r7, lr}
10003fa6:	4657      	mov	r7, sl
10003fa8:	464e      	mov	r6, r9
10003faa:	46de      	mov	lr, fp
10003fac:	4645      	mov	r5, r8
10003fae:	b5e0      	push	{r5, r6, r7, lr}
10003fb0:	b085      	sub	sp, #20
10003fb2:	0006      	movs	r6, r0
10003fb4:	9102      	str	r1, [sp, #8]
10003fb6:	0017      	movs	r7, r2
10003fb8:	f3ef 8b10 	mrs	fp, PRIMASK
10003fbc:	b672      	cpsid	i
10003fbe:	4a67      	ldr	r2, [pc, #412]	; (1000415c <irq_add_shared_handler+0x1b8>)
10003fc0:	6813      	ldr	r3, [r2, #0]
10003fc2:	2b00      	cmp	r3, #0
10003fc4:	d0fc      	beq.n	10003fc0 <irq_add_shared_handler+0x1c>
10003fc6:	f3bf 8f5f 	dmb	sy
10003fca:	2500      	movs	r5, #0
10003fcc:	4b64      	ldr	r3, [pc, #400]	; (10004160 <irq_add_shared_handler+0x1bc>)
10003fce:	575d      	ldrsb	r5, [r3, r5]
10003fd0:	469a      	mov	sl, r3
10003fd2:	2d00      	cmp	r5, #0
10003fd4:	da00      	bge.n	10003fd8 <irq_add_shared_handler+0x34>
10003fd6:	e0a4      	b.n	10004122 <irq_add_shared_handler+0x17e>
10003fd8:	006b      	lsls	r3, r5, #1
10003fda:	4c62      	ldr	r4, [pc, #392]	; (10004164 <irq_add_shared_handler+0x1c0>)
10003fdc:	9303      	str	r3, [sp, #12]
10003fde:	195b      	adds	r3, r3, r5
10003fe0:	009b      	lsls	r3, r3, #2
10003fe2:	4698      	mov	r8, r3
10003fe4:	46a1      	mov	r9, r4
10003fe6:	44c1      	add	r9, r8
10003fe8:	464b      	mov	r3, r9
10003fea:	4652      	mov	r2, sl
10003fec:	799b      	ldrb	r3, [r3, #6]
10003fee:	3610      	adds	r6, #16
10003ff0:	7013      	strb	r3, [r2, #0]
10003ff2:	4b5d      	ldr	r3, [pc, #372]	; (10004168 <irq_add_shared_handler+0x1c4>)
10003ff4:	00b2      	lsls	r2, r6, #2
10003ff6:	689b      	ldr	r3, [r3, #8]
10003ff8:	9201      	str	r2, [sp, #4]
10003ffa:	5899      	ldr	r1, [r3, r2]
10003ffc:	1b0b      	subs	r3, r1, r4
10003ffe:	2b2f      	cmp	r3, #47	; 0x2f
10004000:	d934      	bls.n	1000406c <irq_add_shared_handler+0xc8>
10004002:	4b5a      	ldr	r3, [pc, #360]	; (1000416c <irq_add_shared_handler+0x1c8>)
10004004:	4299      	cmp	r1, r3
10004006:	d000      	beq.n	1000400a <irq_add_shared_handler+0x66>
10004008:	e0a4      	b.n	10004154 <irq_add_shared_handler+0x1b0>
1000400a:	9b03      	ldr	r3, [sp, #12]
1000400c:	4a58      	ldr	r2, [pc, #352]	; (10004170 <irq_add_shared_handler+0x1cc>)
1000400e:	469c      	mov	ip, r3
10004010:	4b58      	ldr	r3, [pc, #352]	; (10004174 <irq_add_shared_handler+0x1d0>)
10004012:	4465      	add	r5, ip
10004014:	00ad      	lsls	r5, r5, #2
10004016:	5363      	strh	r3, [r4, r5]
10004018:	4643      	mov	r3, r8
1000401a:	3302      	adds	r3, #2
1000401c:	1965      	adds	r5, r4, r5
1000401e:	18e4      	adds	r4, r4, r3
10004020:	4b55      	ldr	r3, [pc, #340]	; (10004178 <irq_add_shared_handler+0x1d4>)
10004022:	2101      	movs	r1, #1
10004024:	3b04      	subs	r3, #4
10004026:	1b1b      	subs	r3, r3, r4
10004028:	051b      	lsls	r3, r3, #20
1000402a:	0d5b      	lsrs	r3, r3, #21
1000402c:	4313      	orrs	r3, r2
1000402e:	806b      	strh	r3, [r5, #2]
10004030:	4b52      	ldr	r3, [pc, #328]	; (1000417c <irq_add_shared_handler+0x1d8>)
10004032:	71ef      	strb	r7, [r5, #7]
10004034:	80ab      	strh	r3, [r5, #4]
10004036:	23ff      	movs	r3, #255	; 0xff
10004038:	71ab      	strb	r3, [r5, #6]
1000403a:	9b02      	ldr	r3, [sp, #8]
1000403c:	60ab      	str	r3, [r5, #8]
1000403e:	464b      	mov	r3, r9
10004040:	430b      	orrs	r3, r1
10004042:	0019      	movs	r1, r3
10004044:	4b48      	ldr	r3, [pc, #288]	; (10004168 <irq_add_shared_handler+0x1c4>)
10004046:	9a01      	ldr	r2, [sp, #4]
10004048:	689b      	ldr	r3, [r3, #8]
1000404a:	5099      	str	r1, [r3, r2]
1000404c:	f3bf 8f5f 	dmb	sy
10004050:	f3bf 8f5f 	dmb	sy
10004054:	2200      	movs	r2, #0
10004056:	4b41      	ldr	r3, [pc, #260]	; (1000415c <irq_add_shared_handler+0x1b8>)
10004058:	601a      	str	r2, [r3, #0]
1000405a:	f38b 8810 	msr	PRIMASK, fp
1000405e:	b005      	add	sp, #20
10004060:	bcf0      	pop	{r4, r5, r6, r7}
10004062:	46bb      	mov	fp, r7
10004064:	46b2      	mov	sl, r6
10004066:	46a9      	mov	r9, r5
10004068:	46a0      	mov	r8, r4
1000406a:	bdf0      	pop	{r4, r5, r6, r7, pc}
1000406c:	2001      	movs	r0, #1
1000406e:	000a      	movs	r2, r1
10004070:	4382      	bics	r2, r0
10004072:	79d3      	ldrb	r3, [r2, #7]
10004074:	42bb      	cmp	r3, r7
10004076:	d82f      	bhi.n	100040d8 <irq_add_shared_handler+0x134>
10004078:	4645      	mov	r5, r8
1000407a:	464e      	mov	r6, r9
1000407c:	0013      	movs	r3, r2
1000407e:	4940      	ldr	r1, [pc, #256]	; (10004180 <irq_add_shared_handler+0x1dc>)
10004080:	1b1b      	subs	r3, r3, r4
10004082:	415b      	adcs	r3, r3
10004084:	4359      	muls	r1, r3
10004086:	0d09      	lsrs	r1, r1, #20
10004088:	4b3a      	ldr	r3, [pc, #232]	; (10004174 <irq_add_shared_handler+0x1d0>)
1000408a:	5363      	strh	r3, [r4, r5]
1000408c:	4b3a      	ldr	r3, [pc, #232]	; (10004178 <irq_add_shared_handler+0x1d4>)
1000408e:	3502      	adds	r5, #2
10004090:	1965      	adds	r5, r4, r5
10004092:	3b04      	subs	r3, #4
10004094:	1b5b      	subs	r3, r3, r5
10004096:	051b      	lsls	r3, r3, #20
10004098:	4d35      	ldr	r5, [pc, #212]	; (10004170 <irq_add_shared_handler+0x1cc>)
1000409a:	0d5b      	lsrs	r3, r3, #21
1000409c:	432b      	orrs	r3, r5
1000409e:	8073      	strh	r3, [r6, #2]
100040a0:	2604      	movs	r6, #4
100040a2:	46b4      	mov	ip, r6
100040a4:	44e0      	add	r8, ip
100040a6:	4444      	add	r4, r8
100040a8:	1f13      	subs	r3, r2, #4
100040aa:	1b1b      	subs	r3, r3, r4
100040ac:	464c      	mov	r4, r9
100040ae:	71a1      	strb	r1, [r4, #6]
100040b0:	9902      	ldr	r1, [sp, #8]
100040b2:	051b      	lsls	r3, r3, #20
100040b4:	60a1      	str	r1, [r4, #8]
100040b6:	4649      	mov	r1, r9
100040b8:	0d5b      	lsrs	r3, r3, #21
100040ba:	432b      	orrs	r3, r5
100040bc:	80a3      	strh	r3, [r4, #4]
100040be:	4b31      	ldr	r3, [pc, #196]	; (10004184 <irq_add_shared_handler+0x1e0>)
100040c0:	71e7      	strb	r7, [r4, #7]
100040c2:	4301      	orrs	r1, r0
100040c4:	6013      	str	r3, [r2, #0]
100040c6:	e7bd      	b.n	10004044 <irq_add_shared_handler+0xa0>
100040c8:	0058      	lsls	r0, r3, #1
100040ca:	18c0      	adds	r0, r0, r3
100040cc:	0080      	lsls	r0, r0, #2
100040ce:	1820      	adds	r0, r4, r0
100040d0:	79c6      	ldrb	r6, [r0, #7]
100040d2:	42be      	cmp	r6, r7
100040d4:	d92b      	bls.n	1000412e <irq_add_shared_handler+0x18a>
100040d6:	0002      	movs	r2, r0
100040d8:	2306      	movs	r3, #6
100040da:	56d3      	ldrsb	r3, [r2, r3]
100040dc:	2b00      	cmp	r3, #0
100040de:	daf3      	bge.n	100040c8 <irq_add_shared_handler+0x124>
100040e0:	1d10      	adds	r0, r2, #4
100040e2:	4682      	mov	sl, r0
100040e4:	4828      	ldr	r0, [pc, #160]	; (10004188 <irq_add_shared_handler+0x1e4>)
100040e6:	4680      	mov	r8, r0
100040e8:	2604      	movs	r6, #4
100040ea:	4276      	negs	r6, r6
100040ec:	46b4      	mov	ip, r6
100040ee:	44e1      	add	r9, ip
100040f0:	4650      	mov	r0, sl
100040f2:	464e      	mov	r6, r9
100040f4:	1a36      	subs	r6, r6, r0
100040f6:	0530      	lsls	r0, r6, #20
100040f8:	0d40      	lsrs	r0, r0, #21
100040fa:	4682      	mov	sl, r0
100040fc:	4656      	mov	r6, sl
100040fe:	481c      	ldr	r0, [pc, #112]	; (10004170 <irq_add_shared_handler+0x1cc>)
10004100:	7195      	strb	r5, [r2, #6]
10004102:	4306      	orrs	r6, r0
10004104:	8096      	strh	r6, [r2, #4]
10004106:	9a03      	ldr	r2, [sp, #12]
10004108:	4694      	mov	ip, r2
1000410a:	4465      	add	r5, ip
1000410c:	4a1d      	ldr	r2, [pc, #116]	; (10004184 <irq_add_shared_handler+0x1e0>)
1000410e:	00ad      	lsls	r5, r5, #2
10004110:	1964      	adds	r4, r4, r5
10004112:	6022      	str	r2, [r4, #0]
10004114:	4642      	mov	r2, r8
10004116:	71a3      	strb	r3, [r4, #6]
10004118:	9b02      	ldr	r3, [sp, #8]
1000411a:	80a2      	strh	r2, [r4, #4]
1000411c:	71e7      	strb	r7, [r4, #7]
1000411e:	60a3      	str	r3, [r4, #8]
10004120:	e790      	b.n	10004044 <irq_add_shared_handler+0xa0>
10004122:	f001 fff1 	bl	10006108 <hard_assertion_failure>
10004126:	2500      	movs	r5, #0
10004128:	4653      	mov	r3, sl
1000412a:	575d      	ldrsb	r5, [r3, r5]
1000412c:	e754      	b.n	10003fd8 <irq_add_shared_handler+0x34>
1000412e:	1d10      	adds	r0, r2, #4
10004130:	4682      	mov	sl, r0
10004132:	8890      	ldrh	r0, [r2, #4]
10004134:	0540      	lsls	r0, r0, #21
10004136:	1500      	asrs	r0, r0, #20
10004138:	4684      	mov	ip, r0
1000413a:	4640      	mov	r0, r8
1000413c:	44d4      	add	ip, sl
1000413e:	4666      	mov	r6, ip
10004140:	3004      	adds	r0, #4
10004142:	1820      	adds	r0, r4, r0
10004144:	1a30      	subs	r0, r6, r0
10004146:	26e0      	movs	r6, #224	; 0xe0
10004148:	0500      	lsls	r0, r0, #20
1000414a:	0d40      	lsrs	r0, r0, #21
1000414c:	0236      	lsls	r6, r6, #8
1000414e:	4330      	orrs	r0, r6
10004150:	4680      	mov	r8, r0
10004152:	e7c9      	b.n	100040e8 <irq_add_shared_handler+0x144>
10004154:	f001 ffd8 	bl	10006108 <hard_assertion_failure>
10004158:	e757      	b.n	1000400a <irq_add_shared_handler+0x66>
1000415a:	46c0      	nop			; (mov r8, r8)
1000415c:	d0000124 	.word	0xd0000124
10004160:	20002c83 	.word	0x20002c83
10004164:	20001064 	.word	0x20001064
10004168:	e000ed00 	.word	0xe000ed00
1000416c:	100001cd 	.word	0x100001cd
10004170:	ffffe000 	.word	0xffffe000
10004174:	ffffa100 	.word	0xffffa100
10004178:	20001094 	.word	0x20001094
1000417c:	ffffbd01 	.word	0xffffbd01
10004180:	0000aaaa 	.word	0x0000aaaa
10004184:	47804801 	.word	0x47804801
10004188:	0000bd01 	.word	0x0000bd01

1000418c <irq_remove_handler>:
1000418c:	b5f0      	push	{r4, r5, r6, r7, lr}
1000418e:	46de      	mov	lr, fp
10004190:	4657      	mov	r7, sl
10004192:	464e      	mov	r6, r9
10004194:	4645      	mov	r5, r8
10004196:	b5e0      	push	{r5, r6, r7, lr}
10004198:	000c      	movs	r4, r1
1000419a:	b083      	sub	sp, #12
1000419c:	f3ef 8910 	mrs	r9, PRIMASK
100041a0:	b672      	cpsid	i
100041a2:	4a58      	ldr	r2, [pc, #352]	; (10004304 <irq_remove_handler+0x178>)
100041a4:	6813      	ldr	r3, [r2, #0]
100041a6:	2b00      	cmp	r3, #0
100041a8:	d0fc      	beq.n	100041a4 <irq_remove_handler+0x18>
100041aa:	f3bf 8f5f 	dmb	sy
100041ae:	4b56      	ldr	r3, [pc, #344]	; (10004308 <irq_remove_handler+0x17c>)
100041b0:	689a      	ldr	r2, [r3, #8]
100041b2:	0003      	movs	r3, r0
100041b4:	3310      	adds	r3, #16
100041b6:	009f      	lsls	r7, r3, #2
100041b8:	59d5      	ldr	r5, [r2, r7]
100041ba:	4a54      	ldr	r2, [pc, #336]	; (1000430c <irq_remove_handler+0x180>)
100041bc:	4690      	mov	r8, r2
100041be:	4295      	cmp	r5, r2
100041c0:	d032      	beq.n	10004228 <irq_remove_handler+0x9c>
100041c2:	42a5      	cmp	r5, r4
100041c4:	d043      	beq.n	1000424e <irq_remove_handler+0xc2>
100041c6:	4e52      	ldr	r6, [pc, #328]	; (10004310 <irq_remove_handler+0x184>)
100041c8:	1baa      	subs	r2, r5, r6
100041ca:	2a2f      	cmp	r2, #47	; 0x2f
100041cc:	d82c      	bhi.n	10004228 <irq_remove_handler+0x9c>
100041ce:	2201      	movs	r2, #1
100041d0:	4082      	lsls	r2, r0
100041d2:	4692      	mov	sl, r2
100041d4:	4651      	mov	r1, sl
100041d6:	4a4f      	ldr	r2, [pc, #316]	; (10004314 <irq_remove_handler+0x188>)
100041d8:	6812      	ldr	r2, [r2, #0]
100041da:	4011      	ands	r1, r2
100041dc:	9101      	str	r1, [sp, #4]
100041de:	4651      	mov	r1, sl
100041e0:	4a4d      	ldr	r2, [pc, #308]	; (10004318 <irq_remove_handler+0x18c>)
100041e2:	6011      	str	r1, [r2, #0]
100041e4:	f3bf 8f5f 	dmb	sy
100041e8:	f3ef 8205 	mrs	r2, IPSR
100041ec:	4693      	mov	fp, r2
100041ee:	2a00      	cmp	r2, #0
100041f0:	d133      	bne.n	1000425a <irq_remove_handler+0xce>
100041f2:	2301      	movs	r3, #1
100041f4:	002a      	movs	r2, r5
100041f6:	439a      	bics	r2, r3
100041f8:	6893      	ldr	r3, [r2, #8]
100041fa:	429c      	cmp	r4, r3
100041fc:	d108      	bne.n	10004210 <irq_remove_handler+0x84>
100041fe:	e077      	b.n	100042f0 <irq_remove_handler+0x164>
10004200:	004b      	lsls	r3, r1, #1
10004202:	185b      	adds	r3, r3, r1
10004204:	009b      	lsls	r3, r3, #2
10004206:	18f3      	adds	r3, r6, r3
10004208:	6899      	ldr	r1, [r3, #8]
1000420a:	42a1      	cmp	r1, r4
1000420c:	d02a      	beq.n	10004264 <irq_remove_handler+0xd8>
1000420e:	001a      	movs	r2, r3
10004210:	2106      	movs	r1, #6
10004212:	5651      	ldrsb	r1, [r2, r1]
10004214:	2900      	cmp	r1, #0
10004216:	daf3      	bge.n	10004200 <irq_remove_handler+0x74>
10004218:	9b01      	ldr	r3, [sp, #4]
1000421a:	2b00      	cmp	r3, #0
1000421c:	d019      	beq.n	10004252 <irq_remove_handler+0xc6>
1000421e:	4652      	mov	r2, sl
10004220:	4b3e      	ldr	r3, [pc, #248]	; (1000431c <irq_remove_handler+0x190>)
10004222:	601a      	str	r2, [r3, #0]
10004224:	4b3b      	ldr	r3, [pc, #236]	; (10004314 <irq_remove_handler+0x188>)
10004226:	601a      	str	r2, [r3, #0]
10004228:	4b37      	ldr	r3, [pc, #220]	; (10004308 <irq_remove_handler+0x17c>)
1000422a:	689b      	ldr	r3, [r3, #8]
1000422c:	51dd      	str	r5, [r3, r7]
1000422e:	f3bf 8f5f 	dmb	sy
10004232:	f3bf 8f5f 	dmb	sy
10004236:	2200      	movs	r2, #0
10004238:	4b32      	ldr	r3, [pc, #200]	; (10004304 <irq_remove_handler+0x178>)
1000423a:	601a      	str	r2, [r3, #0]
1000423c:	f389 8810 	msr	PRIMASK, r9
10004240:	b003      	add	sp, #12
10004242:	bcf0      	pop	{r4, r5, r6, r7}
10004244:	46bb      	mov	fp, r7
10004246:	46b2      	mov	sl, r6
10004248:	46a9      	mov	r9, r5
1000424a:	46a0      	mov	r8, r4
1000424c:	bdf0      	pop	{r4, r5, r6, r7, pc}
1000424e:	0015      	movs	r5, r2
10004250:	e7ea      	b.n	10004228 <irq_remove_handler+0x9c>
10004252:	4652      	mov	r2, sl
10004254:	4b30      	ldr	r3, [pc, #192]	; (10004318 <irq_remove_handler+0x18c>)
10004256:	601a      	str	r2, [r3, #0]
10004258:	e7e6      	b.n	10004228 <irq_remove_handler+0x9c>
1000425a:	4293      	cmp	r3, r2
1000425c:	d0c9      	beq.n	100041f2 <irq_remove_handler+0x66>
1000425e:	f001 ff53 	bl	10006108 <hard_assertion_failure>
10004262:	e7c6      	b.n	100041f2 <irq_remove_handler+0x66>
10004264:	2106      	movs	r1, #6
10004266:	5659      	ldrsb	r1, [r3, r1]
10004268:	2900      	cmp	r1, #0
1000426a:	db21      	blt.n	100042b0 <irq_remove_handler+0x124>
1000426c:	004a      	lsls	r2, r1, #1
1000426e:	1850      	adds	r0, r2, r1
10004270:	0080      	lsls	r0, r0, #2
10004272:	1834      	adds	r4, r6, r0
10004274:	4680      	mov	r8, r0
10004276:	68a0      	ldr	r0, [r4, #8]
10004278:	6098      	str	r0, [r3, #8]
1000427a:	79e0      	ldrb	r0, [r4, #7]
1000427c:	71d8      	strb	r0, [r3, #7]
1000427e:	2006      	movs	r0, #6
10004280:	5620      	ldrsb	r0, [r4, r0]
10004282:	7198      	strb	r0, [r3, #6]
10004284:	2800      	cmp	r0, #0
10004286:	db24      	blt.n	100042d2 <irq_remove_handler+0x146>
10004288:	88a4      	ldrh	r4, [r4, #4]
1000428a:	1af0      	subs	r0, r6, r3
1000428c:	0564      	lsls	r4, r4, #21
1000428e:	1524      	asrs	r4, r4, #20
10004290:	4444      	add	r4, r8
10004292:	1900      	adds	r0, r0, r4
10004294:	24e0      	movs	r4, #224	; 0xe0
10004296:	0500      	lsls	r0, r0, #20
10004298:	0d40      	lsrs	r0, r0, #21
1000429a:	0224      	lsls	r4, r4, #8
1000429c:	4320      	orrs	r0, r4
1000429e:	8098      	strh	r0, [r3, #4]
100042a0:	1852      	adds	r2, r2, r1
100042a2:	4b1f      	ldr	r3, [pc, #124]	; (10004320 <irq_remove_handler+0x194>)
100042a4:	0092      	lsls	r2, r2, #2
100042a6:	18b6      	adds	r6, r6, r2
100042a8:	781a      	ldrb	r2, [r3, #0]
100042aa:	7019      	strb	r1, [r3, #0]
100042ac:	71b2      	strb	r2, [r6, #6]
100042ae:	e7b3      	b.n	10004218 <irq_remove_handler+0x8c>
100042b0:	4659      	mov	r1, fp
100042b2:	2900      	cmp	r1, #0
100042b4:	d10f      	bne.n	100042d6 <irq_remove_handler+0x14a>
100042b6:	31ff      	adds	r1, #255	; 0xff
100042b8:	7191      	strb	r1, [r2, #6]
100042ba:	491a      	ldr	r1, [pc, #104]	; (10004324 <irq_remove_handler+0x198>)
100042bc:	8091      	strh	r1, [r2, #4]
100042be:	4918      	ldr	r1, [pc, #96]	; (10004320 <irq_remove_handler+0x194>)
100042c0:	780a      	ldrb	r2, [r1, #0]
100042c2:	719a      	strb	r2, [r3, #6]
100042c4:	4a18      	ldr	r2, [pc, #96]	; (10004328 <irq_remove_handler+0x19c>)
100042c6:	1b9b      	subs	r3, r3, r6
100042c8:	415b      	adcs	r3, r3
100042ca:	435a      	muls	r2, r3
100042cc:	0d12      	lsrs	r2, r2, #20
100042ce:	700a      	strb	r2, [r1, #0]
100042d0:	e7a2      	b.n	10004218 <irq_remove_handler+0x8c>
100042d2:	4816      	ldr	r0, [pc, #88]	; (1000432c <irq_remove_handler+0x1a0>)
100042d4:	e7e3      	b.n	1000429e <irq_remove_handler+0x112>
100042d6:	4a16      	ldr	r2, [pc, #88]	; (10004330 <irq_remove_handler+0x1a4>)
100042d8:	4916      	ldr	r1, [pc, #88]	; (10004334 <irq_remove_handler+0x1a8>)
100042da:	1ad2      	subs	r2, r2, r3
100042dc:	3a08      	subs	r2, #8
100042de:	0250      	lsls	r0, r2, #9
100042e0:	0d40      	lsrs	r0, r0, #21
100042e2:	4301      	orrs	r1, r0
100042e4:	8099      	strh	r1, [r3, #4]
100042e6:	4914      	ldr	r1, [pc, #80]	; (10004338 <irq_remove_handler+0x1ac>)
100042e8:	0852      	lsrs	r2, r2, #1
100042ea:	430a      	orrs	r2, r1
100042ec:	80da      	strh	r2, [r3, #6]
100042ee:	e793      	b.n	10004218 <irq_remove_handler+0x8c>
100042f0:	2106      	movs	r1, #6
100042f2:	5651      	ldrsb	r1, [r2, r1]
100042f4:	0013      	movs	r3, r2
100042f6:	2900      	cmp	r1, #0
100042f8:	dab8      	bge.n	1000426c <irq_remove_handler+0xe0>
100042fa:	465a      	mov	r2, fp
100042fc:	2a00      	cmp	r2, #0
100042fe:	d1ea      	bne.n	100042d6 <irq_remove_handler+0x14a>
10004300:	4645      	mov	r5, r8
10004302:	e7dc      	b.n	100042be <irq_remove_handler+0x132>
10004304:	d0000124 	.word	0xd0000124
10004308:	e000ed00 	.word	0xe000ed00
1000430c:	100001cd 	.word	0x100001cd
10004310:	20001064 	.word	0x20001064
10004314:	e000e100 	.word	0xe000e100
10004318:	e000e180 	.word	0xe000e180
1000431c:	e000e280 	.word	0xe000e280
10004320:	20002c83 	.word	0x20002c83
10004324:	ffffbd01 	.word	0xffffbd01
10004328:	0000aaaa 	.word	0x0000aaaa
1000432c:	0000bd01 	.word	0x0000bd01
10004330:	2000109e 	.word	0x2000109e
10004334:	fffff000 	.word	0xfffff000
10004338:	fffff800 	.word	0xfffff800

1000433c <irq_set_priority>:
1000433c:	2303      	movs	r3, #3
1000433e:	b510      	push	{r4, lr}
10004340:	0004      	movs	r4, r0
10004342:	4a07      	ldr	r2, [pc, #28]	; (10004360 <irq_set_priority+0x24>)
10004344:	4018      	ands	r0, r3
10004346:	4694      	mov	ip, r2
10004348:	00c0      	lsls	r0, r0, #3
1000434a:	439c      	bics	r4, r3
1000434c:	33fc      	adds	r3, #252	; 0xfc
1000434e:	4083      	lsls	r3, r0
10004350:	4464      	add	r4, ip
10004352:	6822      	ldr	r2, [r4, #0]
10004354:	4081      	lsls	r1, r0
10004356:	439a      	bics	r2, r3
10004358:	0013      	movs	r3, r2
1000435a:	430b      	orrs	r3, r1
1000435c:	6023      	str	r3, [r4, #0]
1000435e:	bd10      	pop	{r4, pc}
10004360:	e000e400 	.word	0xe000e400

10004364 <irq_add_tail_to_free_list>:
10004364:	b570      	push	{r4, r5, r6, lr}
10004366:	f3ef 8105 	mrs	r1, IPSR
1000436a:	2401      	movs	r4, #1
1000436c:	4304      	orrs	r4, r0
1000436e:	f3ef 8c10 	mrs	ip, PRIMASK
10004372:	b672      	cpsid	i
10004374:	4a21      	ldr	r2, [pc, #132]	; (100043fc <irq_add_tail_to_free_list+0x98>)
10004376:	6813      	ldr	r3, [r2, #0]
10004378:	2b00      	cmp	r3, #0
1000437a:	d0fc      	beq.n	10004376 <irq_add_tail_to_free_list+0x12>
1000437c:	f3bf 8f5f 	dmb	sy
10004380:	4b1f      	ldr	r3, [pc, #124]	; (10004400 <irq_add_tail_to_free_list+0x9c>)
10004382:	0005      	movs	r5, r0
10004384:	4a1f      	ldr	r2, [pc, #124]	; (10004404 <irq_add_tail_to_free_list+0xa0>)
10004386:	1aed      	subs	r5, r5, r3
10004388:	416d      	adcs	r5, r5
1000438a:	436a      	muls	r2, r5
1000438c:	0d12      	lsrs	r2, r2, #20
1000438e:	4d1e      	ldr	r5, [pc, #120]	; (10004408 <irq_add_tail_to_free_list+0xa4>)
10004390:	0089      	lsls	r1, r1, #2
10004392:	68ae      	ldr	r6, [r5, #8]
10004394:	b252      	sxtb	r2, r2
10004396:	5876      	ldr	r6, [r6, r1]
10004398:	42a6      	cmp	r6, r4
1000439a:	d01c      	beq.n	100043d6 <irq_add_tail_to_free_list+0x72>
1000439c:	2106      	movs	r1, #6
1000439e:	5659      	ldrsb	r1, [r3, r1]
100043a0:	4291      	cmp	r1, r2
100043a2:	d01c      	beq.n	100043de <irq_add_tail_to_free_list+0x7a>
100043a4:	2112      	movs	r1, #18
100043a6:	5659      	ldrsb	r1, [r3, r1]
100043a8:	4291      	cmp	r1, r2
100043aa:	d022      	beq.n	100043f2 <irq_add_tail_to_free_list+0x8e>
100043ac:	211e      	movs	r1, #30
100043ae:	5659      	ldrsb	r1, [r3, r1]
100043b0:	4291      	cmp	r1, r2
100043b2:	d020      	beq.n	100043f6 <irq_add_tail_to_free_list+0x92>
100043b4:	212a      	movs	r1, #42	; 0x2a
100043b6:	5659      	ldrsb	r1, [r3, r1]
100043b8:	2403      	movs	r4, #3
100043ba:	4291      	cmp	r1, r2
100043bc:	d010      	beq.n	100043e0 <irq_add_tail_to_free_list+0x7c>
100043be:	4b13      	ldr	r3, [pc, #76]	; (1000440c <irq_add_tail_to_free_list+0xa8>)
100043c0:	7819      	ldrb	r1, [r3, #0]
100043c2:	701a      	strb	r2, [r3, #0]
100043c4:	7181      	strb	r1, [r0, #6]
100043c6:	f3bf 8f5f 	dmb	sy
100043ca:	2200      	movs	r2, #0
100043cc:	4b0b      	ldr	r3, [pc, #44]	; (100043fc <irq_add_tail_to_free_list+0x98>)
100043ce:	601a      	str	r2, [r3, #0]
100043d0:	f38c 8810 	msr	PRIMASK, ip
100043d4:	bd70      	pop	{r4, r5, r6, pc}
100043d6:	68ab      	ldr	r3, [r5, #8]
100043d8:	4c0d      	ldr	r4, [pc, #52]	; (10004410 <irq_add_tail_to_free_list+0xac>)
100043da:	505c      	str	r4, [r3, r1]
100043dc:	e7ef      	b.n	100043be <irq_add_tail_to_free_list+0x5a>
100043de:	2400      	movs	r4, #0
100043e0:	0061      	lsls	r1, r4, #1
100043e2:	1909      	adds	r1, r1, r4
100043e4:	0089      	lsls	r1, r1, #2
100043e6:	185b      	adds	r3, r3, r1
100043e8:	21ff      	movs	r1, #255	; 0xff
100043ea:	7199      	strb	r1, [r3, #6]
100043ec:	4909      	ldr	r1, [pc, #36]	; (10004414 <irq_add_tail_to_free_list+0xb0>)
100043ee:	8099      	strh	r1, [r3, #4]
100043f0:	e7e5      	b.n	100043be <irq_add_tail_to_free_list+0x5a>
100043f2:	2401      	movs	r4, #1
100043f4:	e7f4      	b.n	100043e0 <irq_add_tail_to_free_list+0x7c>
100043f6:	2402      	movs	r4, #2
100043f8:	e7f2      	b.n	100043e0 <irq_add_tail_to_free_list+0x7c>
100043fa:	46c0      	nop			; (mov r8, r8)
100043fc:	d0000124 	.word	0xd0000124
10004400:	20001064 	.word	0x20001064
10004404:	0000aaaa 	.word	0x0000aaaa
10004408:	e000ed00 	.word	0xe000ed00
1000440c:	20002c83 	.word	0x20002c83
10004410:	100001cd 	.word	0x100001cd
10004414:	ffffbd01 	.word	0xffffbd01

10004418 <irq_init_priorities>:
10004418:	4b05      	ldr	r3, [pc, #20]	; (10004430 <irq_init_priorities+0x18>)
1000441a:	4a06      	ldr	r2, [pc, #24]	; (10004434 <irq_init_priorities+0x1c>)
1000441c:	6013      	str	r3, [r2, #0]
1000441e:	4a06      	ldr	r2, [pc, #24]	; (10004438 <irq_init_priorities+0x20>)
10004420:	6013      	str	r3, [r2, #0]
10004422:	6053      	str	r3, [r2, #4]
10004424:	6093      	str	r3, [r2, #8]
10004426:	60d3      	str	r3, [r2, #12]
10004428:	6113      	str	r3, [r2, #16]
1000442a:	6153      	str	r3, [r2, #20]
1000442c:	6193      	str	r3, [r2, #24]
1000442e:	4770      	bx	lr
10004430:	80808080 	.word	0x80808080
10004434:	e000e400 	.word	0xe000e400
10004438:	e000e404 	.word	0xe000e404

1000443c <user_irq_unclaim>:
1000443c:	211f      	movs	r1, #31
1000443e:	b510      	push	{r4, lr}
10004440:	1a09      	subs	r1, r1, r0
10004442:	4802      	ldr	r0, [pc, #8]	; (1000444c <user_irq_unclaim+0x10>)
10004444:	f7fc fa58 	bl	100008f8 <hw_claim_clear>
10004448:	bd10      	pop	{r4, pc}
1000444a:	46c0      	nop			; (mov r8, r8)
1000444c:	20002c88 	.word	0x20002c88

10004450 <user_irq_claim_unused>:
10004450:	b500      	push	{lr}
10004452:	4b07      	ldr	r3, [pc, #28]	; (10004470 <user_irq_claim_unused+0x20>)
10004454:	b083      	sub	sp, #12
10004456:	0001      	movs	r1, r0
10004458:	9300      	str	r3, [sp, #0]
1000445a:	2200      	movs	r2, #0
1000445c:	2305      	movs	r3, #5
1000445e:	4805      	ldr	r0, [pc, #20]	; (10004474 <user_irq_claim_unused+0x24>)
10004460:	f7fc f9fc 	bl	1000085c <hw_claim_unused_from_range>
10004464:	2800      	cmp	r0, #0
10004466:	db01      	blt.n	1000446c <user_irq_claim_unused+0x1c>
10004468:	231f      	movs	r3, #31
1000446a:	1a18      	subs	r0, r3, r0
1000446c:	b003      	add	sp, #12
1000446e:	bd00      	pop	{pc}
10004470:	100420a8 	.word	0x100420a8
10004474:	20002c88 	.word	0x20002c88

10004478 <sem_init>:
10004478:	b570      	push	{r4, r5, r6, lr}
1000447a:	0004      	movs	r4, r0
1000447c:	000e      	movs	r6, r1
1000447e:	0015      	movs	r5, r2
10004480:	f7fc fa64 	bl	1000094c <next_striped_spin_lock_num>
10004484:	0001      	movs	r1, r0
10004486:	0020      	movs	r0, r4
10004488:	f000 f806 	bl	10004498 <lock_init>
1000448c:	80a6      	strh	r6, [r4, #4]
1000448e:	80e5      	strh	r5, [r4, #6]
10004490:	f3bf 8f5f 	dmb	sy
10004494:	bd70      	pop	{r4, r5, r6, pc}
10004496:	46c0      	nop			; (mov r8, r8)

10004498 <lock_init>:
10004498:	4b02      	ldr	r3, [pc, #8]	; (100044a4 <lock_init+0xc>)
1000449a:	469c      	mov	ip, r3
1000449c:	4461      	add	r1, ip
1000449e:	0089      	lsls	r1, r1, #2
100044a0:	6001      	str	r1, [r0, #0]
100044a2:	4770      	bx	lr
100044a4:	34000040 	.word	0x34000040

100044a8 <mutex_init>:
100044a8:	b510      	push	{r4, lr}
100044aa:	0004      	movs	r4, r0
100044ac:	f7fc fa4e 	bl	1000094c <next_striped_spin_lock_num>
100044b0:	0001      	movs	r1, r0
100044b2:	0020      	movs	r0, r4
100044b4:	f7ff fff0 	bl	10004498 <lock_init>
100044b8:	23ff      	movs	r3, #255	; 0xff
100044ba:	7123      	strb	r3, [r4, #4]
100044bc:	f3bf 8f5f 	dmb	sy
100044c0:	bd10      	pop	{r4, pc}
100044c2:	46c0      	nop			; (mov r8, r8)

100044c4 <recursive_mutex_init>:
100044c4:	b510      	push	{r4, lr}
100044c6:	0004      	movs	r4, r0
100044c8:	f7fc fa40 	bl	1000094c <next_striped_spin_lock_num>
100044cc:	0001      	movs	r1, r0
100044ce:	0020      	movs	r0, r4
100044d0:	f7ff ffe2 	bl	10004498 <lock_init>
100044d4:	23ff      	movs	r3, #255	; 0xff
100044d6:	80a3      	strh	r3, [r4, #4]
100044d8:	f3bf 8f5f 	dmb	sy
100044dc:	bd10      	pop	{r4, pc}
100044de:	46c0      	nop			; (mov r8, r8)

100044e0 <critical_section_init>:
100044e0:	b510      	push	{r4, lr}
100044e2:	0004      	movs	r4, r0
100044e4:	2001      	movs	r0, #1
100044e6:	f7fc fa3d 	bl	10000964 <spin_lock_claim_unused>
100044ea:	4b04      	ldr	r3, [pc, #16]	; (100044fc <critical_section_init+0x1c>)
100044ec:	469c      	mov	ip, r3
100044ee:	4460      	add	r0, ip
100044f0:	0080      	lsls	r0, r0, #2
100044f2:	6020      	str	r0, [r4, #0]
100044f4:	f3bf 8f5f 	dmb	sy
100044f8:	bd10      	pop	{r4, pc}
100044fa:	46c0      	nop			; (mov r8, r8)
100044fc:	34000040 	.word	0x34000040

10004500 <critical_section_init_with_lock_num>:
10004500:	4b03      	ldr	r3, [pc, #12]	; (10004510 <critical_section_init_with_lock_num+0x10>)
10004502:	469c      	mov	ip, r3
10004504:	4461      	add	r1, ip
10004506:	0089      	lsls	r1, r1, #2
10004508:	6001      	str	r1, [r0, #0]
1000450a:	f3bf 8f5f 	dmb	sy
1000450e:	4770      	bx	lr
10004510:	34000040 	.word	0x34000040

10004514 <timer_pool_entry_comparator>:
10004514:	6883      	ldr	r3, [r0, #8]
10004516:	480b      	ldr	r0, [pc, #44]	; (10004544 <timer_pool_entry_comparator+0x30>)
10004518:	b510      	push	{r4, lr}
1000451a:	4684      	mov	ip, r0
1000451c:	4461      	add	r1, ip
1000451e:	4462      	add	r2, ip
10004520:	0109      	lsls	r1, r1, #4
10004522:	0112      	lsls	r2, r2, #4
10004524:	189a      	adds	r2, r3, r2
10004526:	1859      	adds	r1, r3, r1
10004528:	6854      	ldr	r4, [r2, #4]
1000452a:	684b      	ldr	r3, [r1, #4]
1000452c:	2001      	movs	r0, #1
1000452e:	429c      	cmp	r4, r3
10004530:	d801      	bhi.n	10004536 <timer_pool_entry_comparator+0x22>
10004532:	d002      	beq.n	1000453a <timer_pool_entry_comparator+0x26>
10004534:	2000      	movs	r0, #0
10004536:	b2c0      	uxtb	r0, r0
10004538:	bd10      	pop	{r4, pc}
1000453a:	6812      	ldr	r2, [r2, #0]
1000453c:	680b      	ldr	r3, [r1, #0]
1000453e:	429a      	cmp	r2, r3
10004540:	d8f9      	bhi.n	10004536 <timer_pool_entry_comparator+0x22>
10004542:	e7f7      	b.n	10004534 <timer_pool_entry_comparator+0x20>
10004544:	0fffffff 	.word	0x0fffffff

10004548 <sleep_until_callback>:
10004548:	4b0a      	ldr	r3, [pc, #40]	; (10004574 <sleep_until_callback+0x2c>)
1000454a:	6819      	ldr	r1, [r3, #0]
1000454c:	f3ef 8010 	mrs	r0, PRIMASK
10004550:	b672      	cpsid	i
10004552:	680a      	ldr	r2, [r1, #0]
10004554:	2a00      	cmp	r2, #0
10004556:	d0fc      	beq.n	10004552 <sleep_until_callback+0xa>
10004558:	f3bf 8f5f 	dmb	sy
1000455c:	681b      	ldr	r3, [r3, #0]
1000455e:	f3bf 8f5f 	dmb	sy
10004562:	2200      	movs	r2, #0
10004564:	601a      	str	r2, [r3, #0]
10004566:	f380 8810 	msr	PRIMASK, r0
1000456a:	bf40      	sev
1000456c:	2000      	movs	r0, #0
1000456e:	2100      	movs	r1, #0
10004570:	4770      	bx	lr
10004572:	46c0      	nop			; (mov r8, r8)
10004574:	20002c44 	.word	0x20002c44

10004578 <add_alarm_under_lock.isra.0>:
10004578:	b5f8      	push	{r3, r4, r5, r6, r7, lr}
1000457a:	4657      	mov	r7, sl
1000457c:	464e      	mov	r6, r9
1000457e:	4645      	mov	r5, r8
10004580:	46de      	mov	lr, fp
10004582:	b5e0      	push	{r5, r6, r7, lr}
10004584:	4699      	mov	r9, r3
10004586:	ab0c      	add	r3, sp, #48	; 0x30
10004588:	781c      	ldrb	r4, [r3, #0]
1000458a:	ab0d      	add	r3, sp, #52	; 0x34
1000458c:	781b      	ldrb	r3, [r3, #0]
1000458e:	0006      	movs	r6, r0
10004590:	4690      	mov	r8, r2
10004592:	469a      	mov	sl, r3
10004594:	6807      	ldr	r7, [r0, #0]
10004596:	2c00      	cmp	r4, #0
10004598:	d111      	bne.n	100045be <add_alarm_under_lock.isra.0+0x46>
1000459a:	7bbc      	ldrb	r4, [r7, #14]
1000459c:	2c00      	cmp	r4, #0
1000459e:	d042      	beq.n	10004626 <add_alarm_under_lock.isra.0+0xae>
100045a0:	0065      	lsls	r5, r4, #1
100045a2:	683b      	ldr	r3, [r7, #0]
100045a4:	192d      	adds	r5, r5, r4
100045a6:	3d03      	subs	r5, #3
100045a8:	1959      	adds	r1, r3, r5
100045aa:	784b      	ldrb	r3, [r1, #1]
100045ac:	73bb      	strb	r3, [r7, #14]
100045ae:	2b00      	cmp	r3, #0
100045b0:	d100      	bne.n	100045b4 <add_alarm_under_lock.isra.0+0x3c>
100045b2:	73fb      	strb	r3, [r7, #15]
100045b4:	2300      	movs	r3, #0
100045b6:	708b      	strb	r3, [r1, #2]
100045b8:	704b      	strb	r3, [r1, #1]
100045ba:	700b      	strb	r3, [r1, #0]
100045bc:	e004      	b.n	100045c8 <add_alarm_under_lock.isra.0+0x50>
100045be:	0065      	lsls	r5, r4, #1
100045c0:	683b      	ldr	r3, [r7, #0]
100045c2:	192d      	adds	r5, r5, r4
100045c4:	3d03      	subs	r5, #3
100045c6:	1959      	adds	r1, r3, r5
100045c8:	68b2      	ldr	r2, [r6, #8]
100045ca:	4b2a      	ldr	r3, [pc, #168]	; (10004674 <add_alarm_under_lock.isra.0+0xfc>)
100045cc:	4694      	mov	ip, r2
100045ce:	4642      	mov	r2, r8
100045d0:	18e3      	adds	r3, r4, r3
100045d2:	011b      	lsls	r3, r3, #4
100045d4:	4463      	add	r3, ip
100045d6:	601a      	str	r2, [r3, #0]
100045d8:	464a      	mov	r2, r9
100045da:	605a      	str	r2, [r3, #4]
100045dc:	9a0a      	ldr	r2, [sp, #40]	; 0x28
100045de:	609a      	str	r2, [r3, #8]
100045e0:	9a0b      	ldr	r2, [sp, #44]	; 0x2c
100045e2:	60da      	str	r2, [r3, #12]
100045e4:	2300      	movs	r3, #0
100045e6:	708b      	strb	r3, [r1, #2]
100045e8:	704b      	strb	r3, [r1, #1]
100045ea:	700b      	strb	r3, [r1, #0]
100045ec:	7b7b      	ldrb	r3, [r7, #13]
100045ee:	469b      	mov	fp, r3
100045f0:	2b00      	cmp	r3, #0
100045f2:	d02b      	beq.n	1000464c <add_alarm_under_lock.isra.0+0xd4>
100045f4:	0022      	movs	r2, r4
100045f6:	4659      	mov	r1, fp
100045f8:	68b8      	ldr	r0, [r7, #8]
100045fa:	687b      	ldr	r3, [r7, #4]
100045fc:	4798      	blx	r3
100045fe:	683a      	ldr	r2, [r7, #0]
10004600:	2800      	cmp	r0, #0
10004602:	d016      	beq.n	10004632 <add_alarm_under_lock.isra.0+0xba>
10004604:	465b      	mov	r3, fp
10004606:	4658      	mov	r0, fp
10004608:	005b      	lsls	r3, r3, #1
1000460a:	445b      	add	r3, fp
1000460c:	1955      	adds	r5, r2, r5
1000460e:	3b03      	subs	r3, #3
10004610:	70a8      	strb	r0, [r5, #2]
10004612:	18d1      	adds	r1, r2, r3
10004614:	5cd3      	ldrb	r3, [r2, r3]
10004616:	2b00      	cmp	r3, #0
10004618:	d000      	beq.n	1000461c <add_alarm_under_lock.isra.0+0xa4>
1000461a:	706b      	strb	r3, [r5, #1]
1000461c:	465b      	mov	r3, fp
1000461e:	700c      	strb	r4, [r1, #0]
10004620:	737b      	strb	r3, [r7, #13]
10004622:	45a3      	cmp	fp, r4
10004624:	d013      	beq.n	1000464e <add_alarm_under_lock.isra.0+0xd6>
10004626:	bcf0      	pop	{r4, r5, r6, r7}
10004628:	46bb      	mov	fp, r7
1000462a:	46b2      	mov	sl, r6
1000462c:	46a9      	mov	r9, r5
1000462e:	46a0      	mov	r8, r4
10004630:	bdf8      	pop	{r3, r4, r5, r6, r7, pc}
10004632:	465b      	mov	r3, fp
10004634:	005b      	lsls	r3, r3, #1
10004636:	445b      	add	r3, fp
10004638:	3b03      	subs	r3, #3
1000463a:	18d3      	adds	r3, r2, r3
1000463c:	709c      	strb	r4, [r3, #2]
1000463e:	1951      	adds	r1, r2, r5
10004640:	5d52      	ldrb	r2, [r2, r5]
10004642:	2a00      	cmp	r2, #0
10004644:	d000      	beq.n	10004648 <add_alarm_under_lock.isra.0+0xd0>
10004646:	705a      	strb	r2, [r3, #1]
10004648:	465b      	mov	r3, fp
1000464a:	700b      	strb	r3, [r1, #0]
1000464c:	737c      	strb	r4, [r7, #13]
1000464e:	4642      	mov	r2, r8
10004650:	464b      	mov	r3, r9
10004652:	7d30      	ldrb	r0, [r6, #20]
10004654:	f000 fbcc 	bl	10004df0 <hardware_alarm_set_target>
10004658:	1e05      	subs	r5, r0, #0
1000465a:	d006      	beq.n	1000466a <add_alarm_under_lock.isra.0+0xf2>
1000465c:	4653      	mov	r3, sl
1000465e:	2b00      	cmp	r3, #0
10004660:	d103      	bne.n	1000466a <add_alarm_under_lock.isra.0+0xf2>
10004662:	0021      	movs	r1, r4
10004664:	6830      	ldr	r0, [r6, #0]
10004666:	f000 fded 	bl	10005244 <ph_remove_and_free_node>
1000466a:	9b0e      	ldr	r3, [sp, #56]	; 0x38
1000466c:	2b00      	cmp	r3, #0
1000466e:	d0da      	beq.n	10004626 <add_alarm_under_lock.isra.0+0xae>
10004670:	701d      	strb	r5, [r3, #0]
10004672:	e7d8      	b.n	10004626 <add_alarm_under_lock.isra.0+0xae>
10004674:	0fffffff 	.word	0x0fffffff

10004678 <alarm_pool_alarm_callback>:
10004678:	b5f0      	push	{r4, r5, r6, r7, lr}
1000467a:	46de      	mov	lr, fp
1000467c:	4657      	mov	r7, sl
1000467e:	464e      	mov	r6, r9
10004680:	4645      	mov	r5, r8
10004682:	2300      	movs	r3, #0
10004684:	b5e0      	push	{r5, r6, r7, lr}
10004686:	b08b      	sub	sp, #44	; 0x2c
10004688:	9308      	str	r3, [sp, #32]
1000468a:	4b66      	ldr	r3, [pc, #408]	; (10004824 <alarm_pool_alarm_callback+0x1ac>)
1000468c:	0082      	lsls	r2, r0, #2
1000468e:	58d4      	ldr	r4, [r2, r3]
10004690:	2300      	movs	r3, #0
10004692:	469b      	mov	fp, r3
10004694:	9009      	str	r0, [sp, #36]	; 0x24
10004696:	f000 fb21 	bl	10004cdc <time_us_64>
1000469a:	6862      	ldr	r2, [r4, #4]
1000469c:	0006      	movs	r6, r0
1000469e:	000f      	movs	r7, r1
100046a0:	f3ef 8510 	mrs	r5, PRIMASK
100046a4:	b672      	cpsid	i
100046a6:	6813      	ldr	r3, [r2, #0]
100046a8:	2b00      	cmp	r3, #0
100046aa:	d0fc      	beq.n	100046a6 <alarm_pool_alarm_callback+0x2e>
100046ac:	f3bf 8f5f 	dmb	sy
100046b0:	6823      	ldr	r3, [r4, #0]
100046b2:	469c      	mov	ip, r3
100046b4:	7b5b      	ldrb	r3, [r3, #13]
100046b6:	4699      	mov	r9, r3
100046b8:	2b00      	cmp	r3, #0
100046ba:	d068      	beq.n	1000478e <alarm_pool_alarm_callback+0x116>
100046bc:	68a2      	ldr	r2, [r4, #8]
100046be:	4b5a      	ldr	r3, [pc, #360]	; (10004828 <alarm_pool_alarm_callback+0x1b0>)
100046c0:	4690      	mov	r8, r2
100046c2:	444b      	add	r3, r9
100046c4:	011b      	lsls	r3, r3, #4
100046c6:	4498      	add	r8, r3
100046c8:	4643      	mov	r3, r8
100046ca:	681a      	ldr	r2, [r3, #0]
100046cc:	685b      	ldr	r3, [r3, #4]
100046ce:	0010      	movs	r0, r2
100046d0:	0019      	movs	r1, r3
100046d2:	1b80      	subs	r0, r0, r6
100046d4:	41b9      	sbcs	r1, r7
100046d6:	2900      	cmp	r1, #0
100046d8:	dd63      	ble.n	100047a2 <alarm_pool_alarm_callback+0x12a>
100046da:	9809      	ldr	r0, [sp, #36]	; 0x24
100046dc:	f000 fb88 	bl	10004df0 <hardware_alarm_set_target>
100046e0:	2300      	movs	r3, #0
100046e2:	2200      	movs	r2, #0
100046e4:	4698      	mov	r8, r3
100046e6:	2300      	movs	r3, #0
100046e8:	9206      	str	r2, [sp, #24]
100046ea:	9307      	str	r3, [sp, #28]
100046ec:	2300      	movs	r3, #0
100046ee:	469a      	mov	sl, r3
100046f0:	6863      	ldr	r3, [r4, #4]
100046f2:	f3bf 8f5f 	dmb	sy
100046f6:	465a      	mov	r2, fp
100046f8:	601a      	str	r2, [r3, #0]
100046fa:	f385 8810 	msr	PRIMASK, r5
100046fe:	4653      	mov	r3, sl
10004700:	2b00      	cmp	r3, #0
10004702:	d108      	bne.n	10004716 <alarm_pool_alarm_callback+0x9e>
10004704:	2800      	cmp	r0, #0
10004706:	d1c6      	bne.n	10004696 <alarm_pool_alarm_callback+0x1e>
10004708:	b00b      	add	sp, #44	; 0x2c
1000470a:	bcf0      	pop	{r4, r5, r6, r7}
1000470c:	46bb      	mov	fp, r7
1000470e:	46b2      	mov	sl, r6
10004710:	46a9      	mov	r9, r5
10004712:	46a0      	mov	r8, r4
10004714:	bdf0      	pop	{r4, r5, r6, r7, pc}
10004716:	9b08      	ldr	r3, [sp, #32]
10004718:	4641      	mov	r1, r8
1000471a:	0218      	lsls	r0, r3, #8
1000471c:	464b      	mov	r3, r9
1000471e:	4318      	orrs	r0, r3
10004720:	47d0      	blx	sl
10004722:	6862      	ldr	r2, [r4, #4]
10004724:	0006      	movs	r6, r0
10004726:	000f      	movs	r7, r1
10004728:	f3ef 8510 	mrs	r5, PRIMASK
1000472c:	b672      	cpsid	i
1000472e:	6813      	ldr	r3, [r2, #0]
10004730:	2b00      	cmp	r3, #0
10004732:	d0fc      	beq.n	1000472e <alarm_pool_alarm_callback+0xb6>
10004734:	f3bf 8f5f 	dmb	sy
10004738:	2f00      	cmp	r7, #0
1000473a:	db4f      	blt.n	100047dc <alarm_pool_alarm_callback+0x164>
1000473c:	0033      	movs	r3, r6
1000473e:	433b      	orrs	r3, r7
10004740:	d002      	beq.n	10004748 <alarm_pool_alarm_callback+0xd0>
10004742:	6923      	ldr	r3, [r4, #16]
10004744:	2b00      	cmp	r3, #0
10004746:	d160      	bne.n	1000480a <alarm_pool_alarm_callback+0x192>
10004748:	6823      	ldr	r3, [r4, #0]
1000474a:	7bd9      	ldrb	r1, [r3, #15]
1000474c:	2900      	cmp	r1, #0
1000474e:	d007      	beq.n	10004760 <alarm_pool_alarm_callback+0xe8>
10004750:	004a      	lsls	r2, r1, #1
10004752:	1852      	adds	r2, r2, r1
10004754:	6819      	ldr	r1, [r3, #0]
10004756:	468c      	mov	ip, r1
10004758:	4649      	mov	r1, r9
1000475a:	4462      	add	r2, ip
1000475c:	3a03      	subs	r2, #3
1000475e:	7051      	strb	r1, [r2, #1]
10004760:	7b9a      	ldrb	r2, [r3, #14]
10004762:	2a00      	cmp	r2, #0
10004764:	d101      	bne.n	1000476a <alarm_pool_alarm_callback+0xf2>
10004766:	464a      	mov	r2, r9
10004768:	739a      	strb	r2, [r3, #14]
1000476a:	464a      	mov	r2, r9
1000476c:	73da      	strb	r2, [r3, #15]
1000476e:	464b      	mov	r3, r9
10004770:	68e1      	ldr	r1, [r4, #12]
10004772:	3b01      	subs	r3, #1
10004774:	5cca      	ldrb	r2, [r1, r3]
10004776:	3201      	adds	r2, #1
10004778:	54ca      	strb	r2, [r1, r3]
1000477a:	465b      	mov	r3, fp
1000477c:	6123      	str	r3, [r4, #16]
1000477e:	6863      	ldr	r3, [r4, #4]
10004780:	f3bf 8f5f 	dmb	sy
10004784:	465a      	mov	r2, fp
10004786:	601a      	str	r2, [r3, #0]
10004788:	f385 8810 	msr	PRIMASK, r5
1000478c:	e783      	b.n	10004696 <alarm_pool_alarm_callback+0x1e>
1000478e:	2300      	movs	r3, #0
10004790:	2200      	movs	r2, #0
10004792:	4698      	mov	r8, r3
10004794:	2300      	movs	r3, #0
10004796:	9206      	str	r2, [sp, #24]
10004798:	9307      	str	r3, [sp, #28]
1000479a:	2300      	movs	r3, #0
1000479c:	2000      	movs	r0, #0
1000479e:	469a      	mov	sl, r3
100047a0:	e7a6      	b.n	100046f0 <alarm_pool_alarm_callback+0x78>
100047a2:	2900      	cmp	r1, #0
100047a4:	d101      	bne.n	100047aa <alarm_pool_alarm_callback+0x132>
100047a6:	2800      	cmp	r0, #0
100047a8:	d197      	bne.n	100046da <alarm_pool_alarm_callback+0x62>
100047aa:	2100      	movs	r1, #0
100047ac:	4660      	mov	r0, ip
100047ae:	f000 fcc7 	bl	10005140 <ph_remove_head>
100047b2:	4643      	mov	r3, r8
100047b4:	681a      	ldr	r2, [r3, #0]
100047b6:	685b      	ldr	r3, [r3, #4]
100047b8:	9206      	str	r2, [sp, #24]
100047ba:	9307      	str	r3, [sp, #28]
100047bc:	4643      	mov	r3, r8
100047be:	689b      	ldr	r3, [r3, #8]
100047c0:	469a      	mov	sl, r3
100047c2:	4643      	mov	r3, r8
100047c4:	68db      	ldr	r3, [r3, #12]
100047c6:	4698      	mov	r8, r3
100047c8:	68e3      	ldr	r3, [r4, #12]
100047ca:	444b      	add	r3, r9
100047cc:	3b01      	subs	r3, #1
100047ce:	781b      	ldrb	r3, [r3, #0]
100047d0:	9308      	str	r3, [sp, #32]
100047d2:	021b      	lsls	r3, r3, #8
100047d4:	4303      	orrs	r3, r0
100047d6:	6123      	str	r3, [r4, #16]
100047d8:	2000      	movs	r0, #0
100047da:	e789      	b.n	100046f0 <alarm_pool_alarm_callback+0x78>
100047dc:	6923      	ldr	r3, [r4, #16]
100047de:	2b00      	cmp	r3, #0
100047e0:	d0b2      	beq.n	10004748 <alarm_pool_alarm_callback+0xd0>
100047e2:	9a06      	ldr	r2, [sp, #24]
100047e4:	9b07      	ldr	r3, [sp, #28]
100047e6:	1b92      	subs	r2, r2, r6
100047e8:	41bb      	sbcs	r3, r7
100047ea:	2b00      	cmp	r3, #0
100047ec:	db15      	blt.n	1000481a <alarm_pool_alarm_callback+0x1a2>
100047ee:	4659      	mov	r1, fp
100047f0:	9104      	str	r1, [sp, #16]
100047f2:	2101      	movs	r1, #1
100047f4:	9103      	str	r1, [sp, #12]
100047f6:	4649      	mov	r1, r9
100047f8:	9102      	str	r1, [sp, #8]
100047fa:	4641      	mov	r1, r8
100047fc:	9101      	str	r1, [sp, #4]
100047fe:	4651      	mov	r1, sl
10004800:	0020      	movs	r0, r4
10004802:	9100      	str	r1, [sp, #0]
10004804:	f7ff feb8 	bl	10004578 <add_alarm_under_lock.isra.0>
10004808:	e7b7      	b.n	1000477a <alarm_pool_alarm_callback+0x102>
1000480a:	f000 fa67 	bl	10004cdc <time_us_64>
1000480e:	0032      	movs	r2, r6
10004810:	003b      	movs	r3, r7
10004812:	1812      	adds	r2, r2, r0
10004814:	414b      	adcs	r3, r1
10004816:	2b00      	cmp	r3, #0
10004818:	dae9      	bge.n	100047ee <alarm_pool_alarm_callback+0x176>
1000481a:	2201      	movs	r2, #1
1000481c:	4b03      	ldr	r3, [pc, #12]	; (1000482c <alarm_pool_alarm_callback+0x1b4>)
1000481e:	4252      	negs	r2, r2
10004820:	e7e5      	b.n	100047ee <alarm_pool_alarm_callback+0x176>
10004822:	46c0      	nop			; (mov r8, r8)
10004824:	20002b20 	.word	0x20002b20
10004828:	0fffffff 	.word	0x0fffffff
1000482c:	7fffffff 	.word	0x7fffffff

10004830 <alarm_pool_init_default>:
10004830:	b510      	push	{r4, lr}
10004832:	4c14      	ldr	r4, [pc, #80]	; (10004884 <alarm_pool_init_default+0x54>)
10004834:	6863      	ldr	r3, [r4, #4]
10004836:	2b00      	cmp	r3, #0
10004838:	d004      	beq.n	10004844 <alarm_pool_init_default+0x14>
1000483a:	210a      	movs	r1, #10
1000483c:	4812      	ldr	r0, [pc, #72]	; (10004888 <alarm_pool_init_default+0x58>)
1000483e:	f7ff fe2b 	bl	10004498 <lock_init>
10004842:	bd10      	pop	{r4, pc}
10004844:	0023      	movs	r3, r4
10004846:	4a11      	ldr	r2, [pc, #68]	; (1000488c <alarm_pool_init_default+0x5c>)
10004848:	2110      	movs	r1, #16
1000484a:	6820      	ldr	r0, [r4, #0]
1000484c:	f000 fb92 	bl	10004f74 <ph_post_alloc_init>
10004850:	2003      	movs	r0, #3
10004852:	f000 fa37 	bl	10004cc4 <hardware_alarm_claim>
10004856:	2003      	movs	r0, #3
10004858:	f000 fb3a 	bl	10004ed0 <hardware_alarm_cancel>
1000485c:	2003      	movs	r0, #3
1000485e:	490c      	ldr	r1, [pc, #48]	; (10004890 <alarm_pool_init_default+0x60>)
10004860:	f000 fa80 	bl	10004d64 <hardware_alarm_set_callback>
10004864:	f7fc f872 	bl	1000094c <next_striped_spin_lock_num>
10004868:	4b0a      	ldr	r3, [pc, #40]	; (10004894 <alarm_pool_init_default+0x64>)
1000486a:	469c      	mov	ip, r3
1000486c:	2303      	movs	r3, #3
1000486e:	7523      	strb	r3, [r4, #20]
10004870:	23d0      	movs	r3, #208	; 0xd0
10004872:	061b      	lsls	r3, r3, #24
10004874:	681b      	ldr	r3, [r3, #0]
10004876:	4460      	add	r0, ip
10004878:	7563      	strb	r3, [r4, #21]
1000487a:	4b07      	ldr	r3, [pc, #28]	; (10004898 <alarm_pool_init_default+0x68>)
1000487c:	0080      	lsls	r0, r0, #2
1000487e:	6060      	str	r0, [r4, #4]
10004880:	60dc      	str	r4, [r3, #12]
10004882:	e7da      	b.n	1000483a <alarm_pool_init_default+0xa>
10004884:	200010ac 	.word	0x200010ac
10004888:	20002c44 	.word	0x20002c44
1000488c:	10004515 	.word	0x10004515
10004890:	10004679 	.word	0x10004679
10004894:	34000040 	.word	0x34000040
10004898:	20002b20 	.word	0x20002b20

1000489c <alarm_pool_get_default>:
1000489c:	4800      	ldr	r0, [pc, #0]	; (100048a0 <alarm_pool_get_default+0x4>)
1000489e:	4770      	bx	lr
100048a0:	200010ac 	.word	0x200010ac

100048a4 <alarm_pool_add_alarm_at>:
100048a4:	b5f0      	push	{r4, r5, r6, r7, lr}
100048a6:	4657      	mov	r7, sl
100048a8:	464e      	mov	r6, r9
100048aa:	4645      	mov	r5, r8
100048ac:	46de      	mov	lr, fp
100048ae:	b5e0      	push	{r5, r6, r7, lr}
100048b0:	b085      	sub	sp, #20
100048b2:	9301      	str	r3, [sp, #4]
100048b4:	ab10      	add	r3, sp, #64	; 0x40
100048b6:	781b      	ldrb	r3, [r3, #0]
100048b8:	0006      	movs	r6, r0
100048ba:	9303      	str	r3, [sp, #12]
100048bc:	2300      	movs	r3, #0
100048be:	469a      	mov	sl, r3
100048c0:	4698      	mov	r8, r3
100048c2:	9200      	str	r2, [sp, #0]
100048c4:	6872      	ldr	r2, [r6, #4]
100048c6:	f3ef 8910 	mrs	r9, PRIMASK
100048ca:	b672      	cpsid	i
100048cc:	6813      	ldr	r3, [r2, #0]
100048ce:	2b00      	cmp	r3, #0
100048d0:	d0fc      	beq.n	100048cc <alarm_pool_add_alarm_at+0x28>
100048d2:	f3bf 8f5f 	dmb	sy
100048d6:	6835      	ldr	r5, [r6, #0]
100048d8:	7bac      	ldrb	r4, [r5, #14]
100048da:	2c00      	cmp	r4, #0
100048dc:	d049      	beq.n	10004972 <alarm_pool_add_alarm_at+0xce>
100048de:	0067      	lsls	r7, r4, #1
100048e0:	682b      	ldr	r3, [r5, #0]
100048e2:	193f      	adds	r7, r7, r4
100048e4:	3f03      	subs	r7, #3
100048e6:	19db      	adds	r3, r3, r7
100048e8:	785a      	ldrb	r2, [r3, #1]
100048ea:	73aa      	strb	r2, [r5, #14]
100048ec:	2a00      	cmp	r2, #0
100048ee:	d100      	bne.n	100048f2 <alarm_pool_add_alarm_at+0x4e>
100048f0:	73ea      	strb	r2, [r5, #15]
100048f2:	68b1      	ldr	r1, [r6, #8]
100048f4:	4a48      	ldr	r2, [pc, #288]	; (10004a18 <alarm_pool_add_alarm_at+0x174>)
100048f6:	468c      	mov	ip, r1
100048f8:	9800      	ldr	r0, [sp, #0]
100048fa:	9901      	ldr	r1, [sp, #4]
100048fc:	18a2      	adds	r2, r4, r2
100048fe:	0112      	lsls	r2, r2, #4
10004900:	4462      	add	r2, ip
10004902:	6010      	str	r0, [r2, #0]
10004904:	6051      	str	r1, [r2, #4]
10004906:	990e      	ldr	r1, [sp, #56]	; 0x38
10004908:	6091      	str	r1, [r2, #8]
1000490a:	990f      	ldr	r1, [sp, #60]	; 0x3c
1000490c:	60d1      	str	r1, [r2, #12]
1000490e:	4642      	mov	r2, r8
10004910:	709a      	strb	r2, [r3, #2]
10004912:	705a      	strb	r2, [r3, #1]
10004914:	701a      	strb	r2, [r3, #0]
10004916:	7b6b      	ldrb	r3, [r5, #13]
10004918:	469b      	mov	fp, r3
1000491a:	2b00      	cmp	r3, #0
1000491c:	d045      	beq.n	100049aa <alarm_pool_add_alarm_at+0x106>
1000491e:	0022      	movs	r2, r4
10004920:	0019      	movs	r1, r3
10004922:	68a8      	ldr	r0, [r5, #8]
10004924:	686b      	ldr	r3, [r5, #4]
10004926:	4798      	blx	r3
10004928:	682a      	ldr	r2, [r5, #0]
1000492a:	2800      	cmp	r0, #0
1000492c:	d030      	beq.n	10004990 <alarm_pool_add_alarm_at+0xec>
1000492e:	465b      	mov	r3, fp
10004930:	4658      	mov	r0, fp
10004932:	005b      	lsls	r3, r3, #1
10004934:	445b      	add	r3, fp
10004936:	19d7      	adds	r7, r2, r7
10004938:	3b03      	subs	r3, #3
1000493a:	70b8      	strb	r0, [r7, #2]
1000493c:	18d1      	adds	r1, r2, r3
1000493e:	5cd3      	ldrb	r3, [r2, r3]
10004940:	2b00      	cmp	r3, #0
10004942:	d000      	beq.n	10004946 <alarm_pool_add_alarm_at+0xa2>
10004944:	707b      	strb	r3, [r7, #1]
10004946:	465b      	mov	r3, fp
10004948:	700c      	strb	r4, [r1, #0]
1000494a:	736b      	strb	r3, [r5, #13]
1000494c:	455c      	cmp	r4, fp
1000494e:	d02d      	beq.n	100049ac <alarm_pool_add_alarm_at+0x108>
10004950:	68f3      	ldr	r3, [r6, #12]
10004952:	191b      	adds	r3, r3, r4
10004954:	3b01      	subs	r3, #1
10004956:	7818      	ldrb	r0, [r3, #0]
10004958:	6873      	ldr	r3, [r6, #4]
1000495a:	f3bf 8f5f 	dmb	sy
1000495e:	4642      	mov	r2, r8
10004960:	601a      	str	r2, [r3, #0]
10004962:	f389 8810 	msr	PRIMASK, r9
10004966:	4653      	mov	r3, sl
10004968:	2b00      	cmp	r3, #0
1000496a:	d12c      	bne.n	100049c6 <alarm_pool_add_alarm_at+0x122>
1000496c:	0200      	lsls	r0, r0, #8
1000496e:	4320      	orrs	r0, r4
10004970:	e007      	b.n	10004982 <alarm_pool_add_alarm_at+0xde>
10004972:	6873      	ldr	r3, [r6, #4]
10004974:	f3bf 8f5f 	dmb	sy
10004978:	601c      	str	r4, [r3, #0]
1000497a:	f389 8810 	msr	PRIMASK, r9
1000497e:	2001      	movs	r0, #1
10004980:	4240      	negs	r0, r0
10004982:	b005      	add	sp, #20
10004984:	bcf0      	pop	{r4, r5, r6, r7}
10004986:	46bb      	mov	fp, r7
10004988:	46b2      	mov	sl, r6
1000498a:	46a9      	mov	r9, r5
1000498c:	46a0      	mov	r8, r4
1000498e:	bdf0      	pop	{r4, r5, r6, r7, pc}
10004990:	465b      	mov	r3, fp
10004992:	005b      	lsls	r3, r3, #1
10004994:	445b      	add	r3, fp
10004996:	3b03      	subs	r3, #3
10004998:	18d3      	adds	r3, r2, r3
1000499a:	709c      	strb	r4, [r3, #2]
1000499c:	19d1      	adds	r1, r2, r7
1000499e:	5dd2      	ldrb	r2, [r2, r7]
100049a0:	2a00      	cmp	r2, #0
100049a2:	d000      	beq.n	100049a6 <alarm_pool_add_alarm_at+0x102>
100049a4:	705a      	strb	r2, [r3, #1]
100049a6:	465b      	mov	r3, fp
100049a8:	700b      	strb	r3, [r1, #0]
100049aa:	736c      	strb	r4, [r5, #13]
100049ac:	7d30      	ldrb	r0, [r6, #20]
100049ae:	9a00      	ldr	r2, [sp, #0]
100049b0:	9b01      	ldr	r3, [sp, #4]
100049b2:	f000 fa1d 	bl	10004df0 <hardware_alarm_set_target>
100049b6:	4682      	mov	sl, r0
100049b8:	2800      	cmp	r0, #0
100049ba:	d0c9      	beq.n	10004950 <alarm_pool_add_alarm_at+0xac>
100049bc:	0021      	movs	r1, r4
100049be:	6830      	ldr	r0, [r6, #0]
100049c0:	f000 fc40 	bl	10005244 <ph_remove_and_free_node>
100049c4:	e7c4      	b.n	10004950 <alarm_pool_add_alarm_at+0xac>
100049c6:	9b03      	ldr	r3, [sp, #12]
100049c8:	2b00      	cmp	r3, #0
100049ca:	d023      	beq.n	10004a14 <alarm_pool_add_alarm_at+0x170>
100049cc:	9b0e      	ldr	r3, [sp, #56]	; 0x38
100049ce:	2000      	movs	r0, #0
100049d0:	990f      	ldr	r1, [sp, #60]	; 0x3c
100049d2:	4798      	blx	r3
100049d4:	0003      	movs	r3, r0
100049d6:	0004      	movs	r4, r0
100049d8:	000d      	movs	r5, r1
100049da:	430b      	orrs	r3, r1
100049dc:	d01a      	beq.n	10004a14 <alarm_pool_add_alarm_at+0x170>
100049de:	2900      	cmp	r1, #0
100049e0:	da0a      	bge.n	100049f8 <alarm_pool_add_alarm_at+0x154>
100049e2:	9a00      	ldr	r2, [sp, #0]
100049e4:	9b01      	ldr	r3, [sp, #4]
100049e6:	1b12      	subs	r2, r2, r4
100049e8:	41ab      	sbcs	r3, r5
100049ea:	9200      	str	r2, [sp, #0]
100049ec:	9301      	str	r3, [sp, #4]
100049ee:	2b00      	cmp	r3, #0
100049f0:	db0a      	blt.n	10004a08 <alarm_pool_add_alarm_at+0x164>
100049f2:	9b03      	ldr	r3, [sp, #12]
100049f4:	469a      	mov	sl, r3
100049f6:	e765      	b.n	100048c4 <alarm_pool_add_alarm_at+0x20>
100049f8:	f000 f970 	bl	10004cdc <time_us_64>
100049fc:	1824      	adds	r4, r4, r0
100049fe:	414d      	adcs	r5, r1
10004a00:	9400      	str	r4, [sp, #0]
10004a02:	9501      	str	r5, [sp, #4]
10004a04:	2d00      	cmp	r5, #0
10004a06:	daf4      	bge.n	100049f2 <alarm_pool_add_alarm_at+0x14e>
10004a08:	2301      	movs	r3, #1
10004a0a:	4c04      	ldr	r4, [pc, #16]	; (10004a1c <alarm_pool_add_alarm_at+0x178>)
10004a0c:	425b      	negs	r3, r3
10004a0e:	9300      	str	r3, [sp, #0]
10004a10:	9401      	str	r4, [sp, #4]
10004a12:	e7ee      	b.n	100049f2 <alarm_pool_add_alarm_at+0x14e>
10004a14:	2000      	movs	r0, #0
10004a16:	e7b4      	b.n	10004982 <alarm_pool_add_alarm_at+0xde>
10004a18:	0fffffff 	.word	0x0fffffff
10004a1c:	7fffffff 	.word	0x7fffffff

10004a20 <alarm_pool_cancel_alarm>:
10004a20:	b570      	push	{r4, r5, r6, lr}
10004a22:	6842      	ldr	r2, [r0, #4]
10004a24:	0004      	movs	r4, r0
10004a26:	f3ef 8510 	mrs	r5, PRIMASK
10004a2a:	b672      	cpsid	i
10004a2c:	6813      	ldr	r3, [r2, #0]
10004a2e:	2b00      	cmp	r3, #0
10004a30:	d0fc      	beq.n	10004a2c <alarm_pool_cancel_alarm+0xc>
10004a32:	f3bf 8f5f 	dmb	sy
10004a36:	6820      	ldr	r0, [r4, #0]
10004a38:	b2ce      	uxtb	r6, r1
10004a3a:	7b43      	ldrb	r3, [r0, #13]
10004a3c:	42b3      	cmp	r3, r6
10004a3e:	d00a      	beq.n	10004a56 <alarm_pool_cancel_alarm+0x36>
10004a40:	23ff      	movs	r3, #255	; 0xff
10004a42:	400b      	ands	r3, r1
10004a44:	005a      	lsls	r2, r3, #1
10004a46:	18d3      	adds	r3, r2, r3
10004a48:	6802      	ldr	r2, [r0, #0]
10004a4a:	4694      	mov	ip, r2
10004a4c:	4463      	add	r3, ip
10004a4e:	3b03      	subs	r3, #3
10004a50:	789b      	ldrb	r3, [r3, #2]
10004a52:	2b00      	cmp	r3, #0
10004a54:	d013      	beq.n	10004a7e <alarm_pool_cancel_alarm+0x5e>
10004a56:	68e2      	ldr	r2, [r4, #12]
10004a58:	23ff      	movs	r3, #255	; 0xff
10004a5a:	4694      	mov	ip, r2
10004a5c:	400b      	ands	r3, r1
10004a5e:	4463      	add	r3, ip
10004a60:	3b01      	subs	r3, #1
10004a62:	0a0a      	lsrs	r2, r1, #8
10004a64:	7819      	ldrb	r1, [r3, #0]
10004a66:	b2d2      	uxtb	r2, r2
10004a68:	4291      	cmp	r1, r2
10004a6a:	d00e      	beq.n	10004a8a <alarm_pool_cancel_alarm+0x6a>
10004a6c:	2000      	movs	r0, #0
10004a6e:	6863      	ldr	r3, [r4, #4]
10004a70:	f3bf 8f5f 	dmb	sy
10004a74:	2200      	movs	r2, #0
10004a76:	601a      	str	r2, [r3, #0]
10004a78:	f385 8810 	msr	PRIMASK, r5
10004a7c:	bd70      	pop	{r4, r5, r6, pc}
10004a7e:	6922      	ldr	r2, [r4, #16]
10004a80:	428a      	cmp	r2, r1
10004a82:	d1f3      	bne.n	10004a6c <alarm_pool_cancel_alarm+0x4c>
10004a84:	2000      	movs	r0, #0
10004a86:	6123      	str	r3, [r4, #16]
10004a88:	e7f1      	b.n	10004a6e <alarm_pool_cancel_alarm+0x4e>
10004a8a:	0031      	movs	r1, r6
10004a8c:	f000 fbda 	bl	10005244 <ph_remove_and_free_node>
10004a90:	e7ed      	b.n	10004a6e <alarm_pool_cancel_alarm+0x4e>
10004a92:	46c0      	nop			; (mov r8, r8)

10004a94 <alarm_pool_core_num>:
10004a94:	7d40      	ldrb	r0, [r0, #21]
10004a96:	4770      	bx	lr

10004a98 <sleep_until>:
10004a98:	b5f0      	push	{r4, r5, r6, r7, lr}
10004a9a:	0004      	movs	r4, r0
10004a9c:	000d      	movs	r5, r1
10004a9e:	2606      	movs	r6, #6
10004aa0:	4276      	negs	r6, r6
10004aa2:	17f7      	asrs	r7, r6, #31
10004aa4:	46c6      	mov	lr, r8
10004aa6:	1936      	adds	r6, r6, r4
10004aa8:	416f      	adcs	r7, r5
10004aaa:	b500      	push	{lr}
10004aac:	b084      	sub	sp, #16
10004aae:	428f      	cmp	r7, r1
10004ab0:	d814      	bhi.n	10004adc <sleep_until+0x44>
10004ab2:	d011      	beq.n	10004ad8 <sleep_until+0x40>
10004ab4:	f000 f912 	bl	10004cdc <time_us_64>
10004ab8:	0032      	movs	r2, r6
10004aba:	003b      	movs	r3, r7
10004abc:	1a12      	subs	r2, r2, r0
10004abe:	418b      	sbcs	r3, r1
10004ac0:	2b00      	cmp	r3, #0
10004ac2:	dc15      	bgt.n	10004af0 <sleep_until+0x58>
10004ac4:	2b00      	cmp	r3, #0
10004ac6:	d03e      	beq.n	10004b46 <sleep_until+0xae>
10004ac8:	0020      	movs	r0, r4
10004aca:	0029      	movs	r1, r5
10004acc:	f000 f93a 	bl	10004d44 <busy_wait_until>
10004ad0:	b004      	add	sp, #16
10004ad2:	bc80      	pop	{r7}
10004ad4:	46b8      	mov	r8, r7
10004ad6:	bdf0      	pop	{r4, r5, r6, r7, pc}
10004ad8:	4286      	cmp	r6, r0
10004ada:	d9eb      	bls.n	10004ab4 <sleep_until+0x1c>
10004adc:	2600      	movs	r6, #0
10004ade:	2700      	movs	r7, #0
10004ae0:	f000 f8fc 	bl	10004cdc <time_us_64>
10004ae4:	0032      	movs	r2, r6
10004ae6:	003b      	movs	r3, r7
10004ae8:	1a12      	subs	r2, r2, r0
10004aea:	418b      	sbcs	r3, r1
10004aec:	2b00      	cmp	r3, #0
10004aee:	dde9      	ble.n	10004ac4 <sleep_until+0x2c>
10004af0:	2300      	movs	r3, #0
10004af2:	9302      	str	r3, [sp, #8]
10004af4:	9301      	str	r3, [sp, #4]
10004af6:	4b15      	ldr	r3, [pc, #84]	; (10004b4c <sleep_until+0xb4>)
10004af8:	0032      	movs	r2, r6
10004afa:	9300      	str	r3, [sp, #0]
10004afc:	4814      	ldr	r0, [pc, #80]	; (10004b50 <sleep_until+0xb8>)
10004afe:	003b      	movs	r3, r7
10004b00:	f7ff fed0 	bl	100048a4 <alarm_pool_add_alarm_at>
10004b04:	2800      	cmp	r0, #0
10004b06:	dbdf      	blt.n	10004ac8 <sleep_until+0x30>
10004b08:	2300      	movs	r3, #0
10004b0a:	4698      	mov	r8, r3
10004b0c:	46bc      	mov	ip, r7
10004b0e:	4a11      	ldr	r2, [pc, #68]	; (10004b54 <sleep_until+0xbc>)
10004b10:	4f11      	ldr	r7, [pc, #68]	; (10004b58 <sleep_until+0xc0>)
10004b12:	6a7b      	ldr	r3, [r7, #36]	; 0x24
10004b14:	459c      	cmp	ip, r3
10004b16:	d804      	bhi.n	10004b22 <sleep_until+0x8a>
10004b18:	6ab9      	ldr	r1, [r7, #40]	; 0x28
10004b1a:	428e      	cmp	r6, r1
10004b1c:	d9d4      	bls.n	10004ac8 <sleep_until+0x30>
10004b1e:	459c      	cmp	ip, r3
10004b20:	d1d2      	bne.n	10004ac8 <sleep_until+0x30>
10004b22:	6811      	ldr	r1, [r2, #0]
10004b24:	f3ef 8010 	mrs	r0, PRIMASK
10004b28:	b672      	cpsid	i
10004b2a:	680b      	ldr	r3, [r1, #0]
10004b2c:	2b00      	cmp	r3, #0
10004b2e:	d0fc      	beq.n	10004b2a <sleep_until+0x92>
10004b30:	f3bf 8f5f 	dmb	sy
10004b34:	6813      	ldr	r3, [r2, #0]
10004b36:	f3bf 8f5f 	dmb	sy
10004b3a:	4641      	mov	r1, r8
10004b3c:	6019      	str	r1, [r3, #0]
10004b3e:	f380 8810 	msr	PRIMASK, r0
10004b42:	bf20      	wfe
10004b44:	e7e5      	b.n	10004b12 <sleep_until+0x7a>
10004b46:	2a00      	cmp	r2, #0
10004b48:	d0be      	beq.n	10004ac8 <sleep_until+0x30>
10004b4a:	e7d1      	b.n	10004af0 <sleep_until+0x58>
10004b4c:	10004549 	.word	0x10004549
10004b50:	200010ac 	.word	0x200010ac
10004b54:	20002c44 	.word	0x20002c44
10004b58:	40054000 	.word	0x40054000

10004b5c <sleep_ms>:
10004b5c:	b570      	push	{r4, r5, r6, lr}
10004b5e:	0006      	movs	r6, r0
10004b60:	f000 f8bc 	bl	10004cdc <time_us_64>
10004b64:	22fa      	movs	r2, #250	; 0xfa
10004b66:	0004      	movs	r4, r0
10004b68:	000d      	movs	r5, r1
10004b6a:	2300      	movs	r3, #0
10004b6c:	0030      	movs	r0, r6
10004b6e:	2100      	movs	r1, #0
10004b70:	0092      	lsls	r2, r2, #2
10004b72:	f003 f95f 	bl	10007e34 <__wrap___aeabi_lmul>
10004b76:	1900      	adds	r0, r0, r4
10004b78:	4169      	adcs	r1, r5
10004b7a:	2900      	cmp	r1, #0
10004b7c:	db02      	blt.n	10004b84 <sleep_ms+0x28>
10004b7e:	f7ff ff8b 	bl	10004a98 <sleep_until>
10004b82:	bd70      	pop	{r4, r5, r6, pc}
10004b84:	2001      	movs	r0, #1
10004b86:	4901      	ldr	r1, [pc, #4]	; (10004b8c <sleep_ms+0x30>)
10004b88:	4240      	negs	r0, r0
10004b8a:	e7f8      	b.n	10004b7e <sleep_ms+0x22>
10004b8c:	7fffffff 	.word	0x7fffffff

10004b90 <best_effort_wfe_or_timeout>:
10004b90:	b570      	push	{r4, r5, r6, lr}
10004b92:	f3ef 8305 	mrs	r3, IPSR
10004b96:	0005      	movs	r5, r0
10004b98:	000c      	movs	r4, r1
10004b9a:	b084      	sub	sp, #16
10004b9c:	2b00      	cmp	r3, #0
10004b9e:	d00a      	beq.n	10004bb6 <best_effort_wfe_or_timeout+0x26>
10004ba0:	4a16      	ldr	r2, [pc, #88]	; (10004bfc <best_effort_wfe_or_timeout+0x6c>)
10004ba2:	2000      	movs	r0, #0
10004ba4:	6a53      	ldr	r3, [r2, #36]	; 0x24
10004ba6:	429c      	cmp	r4, r3
10004ba8:	d803      	bhi.n	10004bb2 <best_effort_wfe_or_timeout+0x22>
10004baa:	6a92      	ldr	r2, [r2, #40]	; 0x28
10004bac:	3001      	adds	r0, #1
10004bae:	42aa      	cmp	r2, r5
10004bb0:	d31f      	bcc.n	10004bf2 <best_effort_wfe_or_timeout+0x62>
10004bb2:	b004      	add	sp, #16
10004bb4:	bd70      	pop	{r4, r5, r6, pc}
10004bb6:	4e12      	ldr	r6, [pc, #72]	; (10004c00 <best_effort_wfe_or_timeout+0x70>)
10004bb8:	9302      	str	r3, [sp, #8]
10004bba:	9301      	str	r3, [sp, #4]
10004bbc:	4b11      	ldr	r3, [pc, #68]	; (10004c04 <best_effort_wfe_or_timeout+0x74>)
10004bbe:	0002      	movs	r2, r0
10004bc0:	9300      	str	r3, [sp, #0]
10004bc2:	0030      	movs	r0, r6
10004bc4:	000b      	movs	r3, r1
10004bc6:	f7ff fe6d 	bl	100048a4 <alarm_pool_add_alarm_at>
10004bca:	1e01      	subs	r1, r0, #0
10004bcc:	dde8      	ble.n	10004ba0 <best_effort_wfe_or_timeout+0x10>
10004bce:	bf20      	wfe
10004bd0:	0030      	movs	r0, r6
10004bd2:	f7ff ff25 	bl	10004a20 <alarm_pool_cancel_alarm>
10004bd6:	4b09      	ldr	r3, [pc, #36]	; (10004bfc <best_effort_wfe_or_timeout+0x6c>)
10004bd8:	2000      	movs	r0, #0
10004bda:	6a59      	ldr	r1, [r3, #36]	; 0x24
10004bdc:	428c      	cmp	r4, r1
10004bde:	d8e8      	bhi.n	10004bb2 <best_effort_wfe_or_timeout+0x22>
10004be0:	6a9b      	ldr	r3, [r3, #40]	; 0x28
10004be2:	3001      	adds	r0, #1
10004be4:	42ab      	cmp	r3, r5
10004be6:	d2e4      	bcs.n	10004bb2 <best_effort_wfe_or_timeout+0x22>
10004be8:	1a64      	subs	r4, r4, r1
10004bea:	1e63      	subs	r3, r4, #1
10004bec:	419c      	sbcs	r4, r3
10004bee:	b2e0      	uxtb	r0, r4
10004bf0:	e7df      	b.n	10004bb2 <best_effort_wfe_or_timeout+0x22>
10004bf2:	1ae4      	subs	r4, r4, r3
10004bf4:	1e63      	subs	r3, r4, #1
10004bf6:	419c      	sbcs	r4, r3
10004bf8:	b2e0      	uxtb	r0, r4
10004bfa:	e7da      	b.n	10004bb2 <best_effort_wfe_or_timeout+0x22>
10004bfc:	40054000 	.word	0x40054000
10004c00:	200010ac 	.word	0x200010ac
10004c04:	10004549 	.word	0x10004549

10004c08 <hardware_alarm_irq_handler>:
10004c08:	b5f0      	push	{r4, r5, r6, r7, lr}
10004c0a:	f3ef 8205 	mrs	r2, IPSR
10004c0e:	46d6      	mov	lr, sl
10004c10:	464f      	mov	r7, r9
10004c12:	4646      	mov	r6, r8
10004c14:	0010      	movs	r0, r2
10004c16:	b5c0      	push	{r6, r7, lr}
10004c18:	3810      	subs	r0, #16
10004c1a:	f3ef 8810 	mrs	r8, PRIMASK
10004c1e:	b672      	cpsid	i
10004c20:	4c21      	ldr	r4, [pc, #132]	; (10004ca8 <hardware_alarm_irq_handler+0xa0>)
10004c22:	6823      	ldr	r3, [r4, #0]
10004c24:	2b00      	cmp	r3, #0
10004c26:	d0fc      	beq.n	10004c22 <hardware_alarm_irq_handler+0x1a>
10004c28:	f3bf 8f5f 	dmb	sy
10004c2c:	2301      	movs	r3, #1
10004c2e:	0019      	movs	r1, r3
10004c30:	4081      	lsls	r1, r0
10004c32:	4d1e      	ldr	r5, [pc, #120]	; (10004cac <hardware_alarm_irq_handler+0xa4>)
10004c34:	001f      	movs	r7, r3
10004c36:	6369      	str	r1, [r5, #52]	; 0x34
10004c38:	46aa      	mov	sl, r5
10004c3a:	4d1d      	ldr	r5, [pc, #116]	; (10004cb0 <hardware_alarm_irq_handler+0xa8>)
10004c3c:	6029      	str	r1, [r5, #0]
10004c3e:	4d1d      	ldr	r5, [pc, #116]	; (10004cb4 <hardware_alarm_irq_handler+0xac>)
10004c40:	782e      	ldrb	r6, [r5, #0]
10004c42:	46ac      	mov	ip, r5
10004c44:	0035      	movs	r5, r6
10004c46:	40c5      	lsrs	r5, r0
10004c48:	402f      	ands	r7, r5
10004c4a:	422b      	tst	r3, r5
10004c4c:	d109      	bne.n	10004c62 <hardware_alarm_irq_handler+0x5a>
10004c4e:	f3bf 8f5f 	dmb	sy
10004c52:	6027      	str	r7, [r4, #0]
10004c54:	f388 8810 	msr	PRIMASK, r8
10004c58:	bce0      	pop	{r5, r6, r7}
10004c5a:	46ba      	mov	sl, r7
10004c5c:	46b1      	mov	r9, r6
10004c5e:	46a8      	mov	r8, r5
10004c60:	bdf0      	pop	{r4, r5, r6, r7, pc}
10004c62:	4653      	mov	r3, sl
10004c64:	4d14      	ldr	r5, [pc, #80]	; (10004cb8 <hardware_alarm_irq_handler+0xb0>)
10004c66:	6a5f      	ldr	r7, [r3, #36]	; 0x24
10004c68:	0083      	lsls	r3, r0, #2
10004c6a:	595d      	ldr	r5, [r3, r5]
10004c6c:	42af      	cmp	r7, r5
10004c6e:	d30e      	bcc.n	10004c8e <hardware_alarm_irq_handler+0x86>
10004c70:	4a12      	ldr	r2, [pc, #72]	; (10004cbc <hardware_alarm_irq_handler+0xb4>)
10004c72:	438e      	bics	r6, r1
10004c74:	589b      	ldr	r3, [r3, r2]
10004c76:	4662      	mov	r2, ip
10004c78:	7016      	strb	r6, [r2, #0]
10004c7a:	f3bf 8f5f 	dmb	sy
10004c7e:	2200      	movs	r2, #0
10004c80:	6022      	str	r2, [r4, #0]
10004c82:	f388 8810 	msr	PRIMASK, r8
10004c86:	2b00      	cmp	r3, #0
10004c88:	d0e6      	beq.n	10004c58 <hardware_alarm_irq_handler+0x50>
10004c8a:	4798      	blx	r3
10004c8c:	e7e4      	b.n	10004c58 <hardware_alarm_irq_handler+0x50>
10004c8e:	4b0c      	ldr	r3, [pc, #48]	; (10004cc0 <hardware_alarm_irq_handler+0xb8>)
10004c90:	0092      	lsls	r2, r2, #2
10004c92:	469c      	mov	ip, r3
10004c94:	4462      	add	r2, ip
10004c96:	6813      	ldr	r3, [r2, #0]
10004c98:	6013      	str	r3, [r2, #0]
10004c9a:	f3bf 8f5f 	dmb	sy
10004c9e:	2300      	movs	r3, #0
10004ca0:	6023      	str	r3, [r4, #0]
10004ca2:	f388 8810 	msr	PRIMASK, r8
10004ca6:	e7d7      	b.n	10004c58 <hardware_alarm_irq_handler+0x50>
10004ca8:	d0000128 	.word	0xd0000128
10004cac:	40054000 	.word	0x40054000
10004cb0:	4005703c 	.word	0x4005703c
10004cb4:	20002c87 	.word	0x20002c87
10004cb8:	20002c50 	.word	0x20002c50
10004cbc:	20001850 	.word	0x20001850
10004cc0:	40053fd0 	.word	0x40053fd0

10004cc4 <hardware_alarm_claim>:
10004cc4:	b510      	push	{r4, lr}
10004cc6:	0001      	movs	r1, r0
10004cc8:	4a02      	ldr	r2, [pc, #8]	; (10004cd4 <hardware_alarm_claim+0x10>)
10004cca:	4803      	ldr	r0, [pc, #12]	; (10004cd8 <hardware_alarm_claim+0x14>)
10004ccc:	f7fb fda4 	bl	10000818 <hw_claim_or_assert>
10004cd0:	bd10      	pop	{r4, pc}
10004cd2:	46c0      	nop			; (mov r8, r8)
10004cd4:	100420d0 	.word	0x100420d0
10004cd8:	20002c82 	.word	0x20002c82

10004cdc <time_us_64>:
10004cdc:	4b03      	ldr	r3, [pc, #12]	; (10004cec <time_us_64+0x10>)
10004cde:	6a59      	ldr	r1, [r3, #36]	; 0x24
10004ce0:	000a      	movs	r2, r1
10004ce2:	6a98      	ldr	r0, [r3, #40]	; 0x28
10004ce4:	6a59      	ldr	r1, [r3, #36]	; 0x24
10004ce6:	428a      	cmp	r2, r1
10004ce8:	d1fa      	bne.n	10004ce0 <time_us_64+0x4>
10004cea:	4770      	bx	lr
10004cec:	40054000 	.word	0x40054000

10004cf0 <busy_wait_us>:
10004cf0:	b570      	push	{r4, r5, r6, lr}
10004cf2:	0004      	movs	r4, r0
10004cf4:	000d      	movs	r5, r1
10004cf6:	4a12      	ldr	r2, [pc, #72]	; (10004d40 <busy_wait_us+0x50>)
10004cf8:	6a53      	ldr	r3, [r2, #36]	; 0x24
10004cfa:	0019      	movs	r1, r3
10004cfc:	6a96      	ldr	r6, [r2, #40]	; 0x28
10004cfe:	6a53      	ldr	r3, [r2, #36]	; 0x24
10004d00:	428b      	cmp	r3, r1
10004d02:	d1fa      	bne.n	10004cfa <busy_wait_us+0xa>
10004d04:	0030      	movs	r0, r6
10004d06:	0019      	movs	r1, r3
10004d08:	1824      	adds	r4, r4, r0
10004d0a:	414d      	adcs	r5, r1
10004d0c:	42ab      	cmp	r3, r5
10004d0e:	d811      	bhi.n	10004d34 <busy_wait_us+0x44>
10004d10:	d00e      	beq.n	10004d30 <busy_wait_us+0x40>
10004d12:	002b      	movs	r3, r5
10004d14:	490a      	ldr	r1, [pc, #40]	; (10004d40 <busy_wait_us+0x50>)
10004d16:	6a4a      	ldr	r2, [r1, #36]	; 0x24
10004d18:	429a      	cmp	r2, r3
10004d1a:	d3fc      	bcc.n	10004d16 <busy_wait_us+0x26>
10004d1c:	d107      	bne.n	10004d2e <busy_wait_us+0x3e>
10004d1e:	4a08      	ldr	r2, [pc, #32]	; (10004d40 <busy_wait_us+0x50>)
10004d20:	e002      	b.n	10004d28 <busy_wait_us+0x38>
10004d22:	6a51      	ldr	r1, [r2, #36]	; 0x24
10004d24:	4299      	cmp	r1, r3
10004d26:	d102      	bne.n	10004d2e <busy_wait_us+0x3e>
10004d28:	6a91      	ldr	r1, [r2, #40]	; 0x28
10004d2a:	42a1      	cmp	r1, r4
10004d2c:	d3f9      	bcc.n	10004d22 <busy_wait_us+0x32>
10004d2e:	bd70      	pop	{r4, r5, r6, pc}
10004d30:	42a6      	cmp	r6, r4
10004d32:	d9ee      	bls.n	10004d12 <busy_wait_us+0x22>
10004d34:	2301      	movs	r3, #1
10004d36:	2401      	movs	r4, #1
10004d38:	4264      	negs	r4, r4
10004d3a:	17e5      	asrs	r5, r4, #31
10004d3c:	425b      	negs	r3, r3
10004d3e:	e7e9      	b.n	10004d14 <busy_wait_us+0x24>
10004d40:	40054000 	.word	0x40054000

10004d44 <busy_wait_until>:
10004d44:	4a06      	ldr	r2, [pc, #24]	; (10004d60 <busy_wait_until+0x1c>)
10004d46:	6a53      	ldr	r3, [r2, #36]	; 0x24
10004d48:	4299      	cmp	r1, r3
10004d4a:	d8fc      	bhi.n	10004d46 <busy_wait_until+0x2>
10004d4c:	d107      	bne.n	10004d5e <busy_wait_until+0x1a>
10004d4e:	4b04      	ldr	r3, [pc, #16]	; (10004d60 <busy_wait_until+0x1c>)
10004d50:	e002      	b.n	10004d58 <busy_wait_until+0x14>
10004d52:	6a5a      	ldr	r2, [r3, #36]	; 0x24
10004d54:	4291      	cmp	r1, r2
10004d56:	d102      	bne.n	10004d5e <busy_wait_until+0x1a>
10004d58:	6a9a      	ldr	r2, [r3, #40]	; 0x28
10004d5a:	4282      	cmp	r2, r0
10004d5c:	d3f9      	bcc.n	10004d52 <busy_wait_until+0xe>
10004d5e:	4770      	bx	lr
10004d60:	40054000 	.word	0x40054000

10004d64 <hardware_alarm_set_callback>:
10004d64:	b570      	push	{r4, r5, r6, lr}
10004d66:	0004      	movs	r4, r0
10004d68:	000d      	movs	r5, r1
10004d6a:	f3ef 8610 	mrs	r6, PRIMASK
10004d6e:	b672      	cpsid	i
10004d70:	4a1a      	ldr	r2, [pc, #104]	; (10004ddc <hardware_alarm_set_callback+0x78>)
10004d72:	6813      	ldr	r3, [r2, #0]
10004d74:	2b00      	cmp	r3, #0
10004d76:	d0fc      	beq.n	10004d72 <hardware_alarm_set_callback+0xe>
10004d78:	f3bf 8f5f 	dmb	sy
10004d7c:	2d00      	cmp	r5, #0
10004d7e:	d01b      	beq.n	10004db8 <hardware_alarm_set_callback+0x54>
10004d80:	0020      	movs	r0, r4
10004d82:	f7ff f8dd 	bl	10003f40 <irq_get_vtable_handler>
10004d86:	4916      	ldr	r1, [pc, #88]	; (10004de0 <hardware_alarm_set_callback+0x7c>)
10004d88:	4281      	cmp	r1, r0
10004d8a:	d00a      	beq.n	10004da2 <hardware_alarm_set_callback+0x3e>
10004d8c:	0020      	movs	r0, r4
10004d8e:	f7ff f8df 	bl	10003f50 <irq_set_exclusive_handler>
10004d92:	2101      	movs	r1, #1
10004d94:	0020      	movs	r0, r4
10004d96:	f7ff f8a3 	bl	10003ee0 <irq_set_enabled>
10004d9a:	2301      	movs	r3, #1
10004d9c:	40a3      	lsls	r3, r4
10004d9e:	4a11      	ldr	r2, [pc, #68]	; (10004de4 <hardware_alarm_set_callback+0x80>)
10004da0:	6013      	str	r3, [r2, #0]
10004da2:	4b11      	ldr	r3, [pc, #68]	; (10004de8 <hardware_alarm_set_callback+0x84>)
10004da4:	00a4      	lsls	r4, r4, #2
10004da6:	50e5      	str	r5, [r4, r3]
10004da8:	f3bf 8f5f 	dmb	sy
10004dac:	2200      	movs	r2, #0
10004dae:	4b0b      	ldr	r3, [pc, #44]	; (10004ddc <hardware_alarm_set_callback+0x78>)
10004db0:	601a      	str	r2, [r3, #0]
10004db2:	f386 8810 	msr	PRIMASK, r6
10004db6:	bd70      	pop	{r4, r5, r6, pc}
10004db8:	4b0b      	ldr	r3, [pc, #44]	; (10004de8 <hardware_alarm_set_callback+0x84>)
10004dba:	00a2      	lsls	r2, r4, #2
10004dbc:	50d5      	str	r5, [r2, r3]
10004dbe:	2201      	movs	r2, #1
10004dc0:	40a2      	lsls	r2, r4
10004dc2:	490a      	ldr	r1, [pc, #40]	; (10004dec <hardware_alarm_set_callback+0x88>)
10004dc4:	0020      	movs	r0, r4
10004dc6:	780b      	ldrb	r3, [r1, #0]
10004dc8:	4393      	bics	r3, r2
10004dca:	700b      	strb	r3, [r1, #0]
10004dcc:	4904      	ldr	r1, [pc, #16]	; (10004de0 <hardware_alarm_set_callback+0x7c>)
10004dce:	f7ff f9dd 	bl	1000418c <irq_remove_handler>
10004dd2:	2100      	movs	r1, #0
10004dd4:	0020      	movs	r0, r4
10004dd6:	f7ff f883 	bl	10003ee0 <irq_set_enabled>
10004dda:	e7e5      	b.n	10004da8 <hardware_alarm_set_callback+0x44>
10004ddc:	d0000128 	.word	0xd0000128
10004de0:	10004c09 	.word	0x10004c09
10004de4:	40056038 	.word	0x40056038
10004de8:	20001850 	.word	0x20001850
10004dec:	20002c87 	.word	0x20002c87

10004df0 <hardware_alarm_set_target>:
10004df0:	b5f0      	push	{r4, r5, r6, r7, lr}
10004df2:	464f      	mov	r7, r9
10004df4:	46d6      	mov	lr, sl
10004df6:	4646      	mov	r6, r8
10004df8:	b5c0      	push	{r6, r7, lr}
10004dfa:	0007      	movs	r7, r0
10004dfc:	4c2f      	ldr	r4, [pc, #188]	; (10004ebc <hardware_alarm_set_target+0xcc>)
10004dfe:	6a61      	ldr	r1, [r4, #36]	; 0x24
10004e00:	000d      	movs	r5, r1
10004e02:	6aa6      	ldr	r6, [r4, #40]	; 0x28
10004e04:	6a61      	ldr	r1, [r4, #36]	; 0x24
10004e06:	42a9      	cmp	r1, r5
10004e08:	d1fa      	bne.n	10004e00 <hardware_alarm_set_target+0x10>
10004e0a:	428b      	cmp	r3, r1
10004e0c:	d808      	bhi.n	10004e20 <hardware_alarm_set_target+0x30>
10004e0e:	d005      	beq.n	10004e1c <hardware_alarm_set_target+0x2c>
10004e10:	2001      	movs	r0, #1
10004e12:	bce0      	pop	{r5, r6, r7}
10004e14:	46ba      	mov	sl, r7
10004e16:	46b1      	mov	r9, r6
10004e18:	46a8      	mov	r8, r5
10004e1a:	bdf0      	pop	{r4, r5, r6, r7, pc}
10004e1c:	42b2      	cmp	r2, r6
10004e1e:	d9f7      	bls.n	10004e10 <hardware_alarm_set_target+0x20>
10004e20:	f3ef 8a10 	mrs	sl, PRIMASK
10004e24:	b672      	cpsid	i
10004e26:	4826      	ldr	r0, [pc, #152]	; (10004ec0 <hardware_alarm_set_target+0xd0>)
10004e28:	6801      	ldr	r1, [r0, #0]
10004e2a:	2900      	cmp	r1, #0
10004e2c:	d0fc      	beq.n	10004e28 <hardware_alarm_set_target+0x38>
10004e2e:	f3bf 8f5f 	dmb	sy
10004e32:	2501      	movs	r5, #1
10004e34:	40bd      	lsls	r5, r7
10004e36:	4923      	ldr	r1, [pc, #140]	; (10004ec4 <hardware_alarm_set_target+0xd4>)
10004e38:	4c20      	ldr	r4, [pc, #128]	; (10004ebc <hardware_alarm_set_target+0xcc>)
10004e3a:	4688      	mov	r8, r1
10004e3c:	7809      	ldrb	r1, [r1, #0]
10004e3e:	4689      	mov	r9, r1
10004e40:	4329      	orrs	r1, r5
10004e42:	b2c9      	uxtb	r1, r1
10004e44:	468c      	mov	ip, r1
10004e46:	4641      	mov	r1, r8
10004e48:	4660      	mov	r0, ip
10004e4a:	7008      	strb	r0, [r1, #0]
10004e4c:	1d39      	adds	r1, r7, #4
10004e4e:	481e      	ldr	r0, [pc, #120]	; (10004ec8 <hardware_alarm_set_target+0xd8>)
10004e50:	0089      	lsls	r1, r1, #2
10004e52:	6365      	str	r5, [r4, #52]	; 0x34
10004e54:	510a      	str	r2, [r1, r4]
10004e56:	00b9      	lsls	r1, r7, #2
10004e58:	500b      	str	r3, [r1, r0]
10004e5a:	6a21      	ldr	r1, [r4, #32]
10004e5c:	2000      	movs	r0, #0
10004e5e:	4229      	tst	r1, r5
10004e60:	d019      	beq.n	10004e96 <hardware_alarm_set_target+0xa6>
10004e62:	6a61      	ldr	r1, [r4, #36]	; 0x24
10004e64:	0008      	movs	r0, r1
10004e66:	6aa6      	ldr	r6, [r4, #40]	; 0x28
10004e68:	6a61      	ldr	r1, [r4, #36]	; 0x24
10004e6a:	4281      	cmp	r1, r0
10004e6c:	d1fa      	bne.n	10004e64 <hardware_alarm_set_target+0x74>
10004e6e:	428b      	cmp	r3, r1
10004e70:	d819      	bhi.n	10004ea6 <hardware_alarm_set_target+0xb6>
10004e72:	d101      	bne.n	10004e78 <hardware_alarm_set_target+0x88>
10004e74:	42b2      	cmp	r2, r6
10004e76:	d816      	bhi.n	10004ea6 <hardware_alarm_set_target+0xb6>
10004e78:	45cc      	cmp	ip, r9
10004e7a:	d01d      	beq.n	10004eb8 <hardware_alarm_set_target+0xc8>
10004e7c:	4b0f      	ldr	r3, [pc, #60]	; (10004ebc <hardware_alarm_set_target+0xcc>)
10004e7e:	201f      	movs	r0, #31
10004e80:	621d      	str	r5, [r3, #32]
10004e82:	635d      	str	r5, [r3, #52]	; 0x34
10004e84:	2301      	movs	r3, #1
10004e86:	4007      	ands	r7, r0
10004e88:	40bb      	lsls	r3, r7
10004e8a:	4a10      	ldr	r2, [pc, #64]	; (10004ecc <hardware_alarm_set_target+0xdc>)
10004e8c:	381e      	subs	r0, #30
10004e8e:	6013      	str	r3, [r2, #0]
10004e90:	4643      	mov	r3, r8
10004e92:	464a      	mov	r2, r9
10004e94:	701a      	strb	r2, [r3, #0]
10004e96:	f3bf 8f5f 	dmb	sy
10004e9a:	2200      	movs	r2, #0
10004e9c:	4b08      	ldr	r3, [pc, #32]	; (10004ec0 <hardware_alarm_set_target+0xd0>)
10004e9e:	601a      	str	r2, [r3, #0]
10004ea0:	f38a 8810 	msr	PRIMASK, sl
10004ea4:	e7b5      	b.n	10004e12 <hardware_alarm_set_target+0x22>
10004ea6:	2000      	movs	r0, #0
10004ea8:	f3bf 8f5f 	dmb	sy
10004eac:	2200      	movs	r2, #0
10004eae:	4b04      	ldr	r3, [pc, #16]	; (10004ec0 <hardware_alarm_set_target+0xd0>)
10004eb0:	601a      	str	r2, [r3, #0]
10004eb2:	f38a 8810 	msr	PRIMASK, sl
10004eb6:	e7ac      	b.n	10004e12 <hardware_alarm_set_target+0x22>
10004eb8:	2001      	movs	r0, #1
10004eba:	e7ec      	b.n	10004e96 <hardware_alarm_set_target+0xa6>
10004ebc:	40054000 	.word	0x40054000
10004ec0:	d0000128 	.word	0xd0000128
10004ec4:	20002c87 	.word	0x20002c87
10004ec8:	20002c50 	.word	0x20002c50
10004ecc:	e000e280 	.word	0xe000e280

10004ed0 <hardware_alarm_cancel>:
10004ed0:	f3ef 8c10 	mrs	ip, PRIMASK
10004ed4:	b672      	cpsid	i
10004ed6:	490a      	ldr	r1, [pc, #40]	; (10004f00 <hardware_alarm_cancel+0x30>)
10004ed8:	680b      	ldr	r3, [r1, #0]
10004eda:	2b00      	cmp	r3, #0
10004edc:	d0fc      	beq.n	10004ed8 <hardware_alarm_cancel+0x8>
10004ede:	f3bf 8f5f 	dmb	sy
10004ee2:	2301      	movs	r3, #1
10004ee4:	4083      	lsls	r3, r0
10004ee6:	4a07      	ldr	r2, [pc, #28]	; (10004f04 <hardware_alarm_cancel+0x34>)
10004ee8:	4807      	ldr	r0, [pc, #28]	; (10004f08 <hardware_alarm_cancel+0x38>)
10004eea:	6213      	str	r3, [r2, #32]
10004eec:	7802      	ldrb	r2, [r0, #0]
10004eee:	439a      	bics	r2, r3
10004ef0:	7002      	strb	r2, [r0, #0]
10004ef2:	f3bf 8f5f 	dmb	sy
10004ef6:	2300      	movs	r3, #0
10004ef8:	600b      	str	r3, [r1, #0]
10004efa:	f38c 8810 	msr	PRIMASK, ip
10004efe:	4770      	bx	lr
10004f00:	d0000128 	.word	0xd0000128
10004f04:	40054000 	.word	0x40054000
10004f08:	20002c87 	.word	0x20002c87

10004f0c <ph_merge_nodes>:
10004f0c:	b570      	push	{r4, r5, r6, lr}
10004f0e:	0005      	movs	r5, r0
10004f10:	0014      	movs	r4, r2
10004f12:	0016      	movs	r6, r2
10004f14:	2900      	cmp	r1, #0
10004f16:	d015      	beq.n	10004f44 <ph_merge_nodes+0x38>
10004f18:	000c      	movs	r4, r1
10004f1a:	2a00      	cmp	r2, #0
10004f1c:	d012      	beq.n	10004f44 <ph_merge_nodes+0x38>
10004f1e:	6880      	ldr	r0, [r0, #8]
10004f20:	686b      	ldr	r3, [r5, #4]
10004f22:	4798      	blx	r3
10004f24:	6829      	ldr	r1, [r5, #0]
10004f26:	2800      	cmp	r0, #0
10004f28:	d00e      	beq.n	10004f48 <ph_merge_nodes+0x3c>
10004f2a:	0073      	lsls	r3, r6, #1
10004f2c:	199b      	adds	r3, r3, r6
10004f2e:	0062      	lsls	r2, r4, #1
10004f30:	3b03      	subs	r3, #3
10004f32:	1912      	adds	r2, r2, r4
10004f34:	18cb      	adds	r3, r1, r3
10004f36:	3a03      	subs	r2, #3
10004f38:	709c      	strb	r4, [r3, #2]
10004f3a:	1888      	adds	r0, r1, r2
10004f3c:	5c8a      	ldrb	r2, [r1, r2]
10004f3e:	2a00      	cmp	r2, #0
10004f40:	d115      	bne.n	10004f6e <ph_merge_nodes+0x62>
10004f42:	7006      	strb	r6, [r0, #0]
10004f44:	0020      	movs	r0, r4
10004f46:	bd70      	pop	{r4, r5, r6, pc}
10004f48:	0063      	lsls	r3, r4, #1
10004f4a:	191b      	adds	r3, r3, r4
10004f4c:	0072      	lsls	r2, r6, #1
10004f4e:	3b03      	subs	r3, #3
10004f50:	1992      	adds	r2, r2, r6
10004f52:	18cb      	adds	r3, r1, r3
10004f54:	3a03      	subs	r2, #3
10004f56:	709e      	strb	r6, [r3, #2]
10004f58:	1888      	adds	r0, r1, r2
10004f5a:	5c8a      	ldrb	r2, [r1, r2]
10004f5c:	2a00      	cmp	r2, #0
10004f5e:	d102      	bne.n	10004f66 <ph_merge_nodes+0x5a>
10004f60:	7004      	strb	r4, [r0, #0]
10004f62:	0034      	movs	r4, r6
10004f64:	e7ee      	b.n	10004f44 <ph_merge_nodes+0x38>
10004f66:	705a      	strb	r2, [r3, #1]
10004f68:	7004      	strb	r4, [r0, #0]
10004f6a:	0034      	movs	r4, r6
10004f6c:	e7ea      	b.n	10004f44 <ph_merge_nodes+0x38>
10004f6e:	705a      	strb	r2, [r3, #1]
10004f70:	7006      	strb	r6, [r0, #0]
10004f72:	e7e7      	b.n	10004f44 <ph_merge_nodes+0x38>

10004f74 <ph_post_alloc_init>:
10004f74:	b530      	push	{r4, r5, lr}
10004f76:	6083      	str	r3, [r0, #8]
10004f78:	2300      	movs	r3, #0
10004f7a:	b2cc      	uxtb	r4, r1
10004f7c:	7343      	strb	r3, [r0, #13]
10004f7e:	3301      	adds	r3, #1
10004f80:	7304      	strb	r4, [r0, #12]
10004f82:	6042      	str	r2, [r0, #4]
10004f84:	7383      	strb	r3, [r0, #14]
10004f86:	73c4      	strb	r4, [r0, #15]
10004f88:	000d      	movs	r5, r1
10004f8a:	6800      	ldr	r0, [r0, #0]
10004f8c:	2c01      	cmp	r4, #1
10004f8e:	d906      	bls.n	10004f9e <ph_post_alloc_init+0x2a>
10004f90:	1c42      	adds	r2, r0, #1
10004f92:	3301      	adds	r3, #1
10004f94:	b2db      	uxtb	r3, r3
10004f96:	7013      	strb	r3, [r2, #0]
10004f98:	3203      	adds	r2, #3
10004f9a:	429c      	cmp	r4, r3
10004f9c:	d1f9      	bne.n	10004f92 <ph_post_alloc_init+0x1e>
10004f9e:	21ff      	movs	r1, #255	; 0xff
10004fa0:	4029      	ands	r1, r5
10004fa2:	004b      	lsls	r3, r1, #1
10004fa4:	1859      	adds	r1, r3, r1
10004fa6:	2300      	movs	r3, #0
10004fa8:	1840      	adds	r0, r0, r1
10004faa:	3803      	subs	r0, #3
10004fac:	7043      	strb	r3, [r0, #1]
10004fae:	bd30      	pop	{r4, r5, pc}

10004fb0 <ph_merge_two_pass>:
10004fb0:	b5f8      	push	{r3, r4, r5, r6, r7, lr}
10004fb2:	46ce      	mov	lr, r9
10004fb4:	4647      	mov	r7, r8
10004fb6:	0006      	movs	r6, r0
10004fb8:	000c      	movs	r4, r1
10004fba:	b580      	push	{r7, lr}
10004fbc:	2900      	cmp	r1, #0
10004fbe:	d007      	beq.n	10004fd0 <ph_merge_two_pass+0x20>
10004fc0:	004d      	lsls	r5, r1, #1
10004fc2:	6803      	ldr	r3, [r0, #0]
10004fc4:	186d      	adds	r5, r5, r1
10004fc6:	3d03      	subs	r5, #3
10004fc8:	195a      	adds	r2, r3, r5
10004fca:	7857      	ldrb	r7, [r2, #1]
10004fcc:	2f00      	cmp	r7, #0
10004fce:	d104      	bne.n	10004fda <ph_merge_two_pass+0x2a>
10004fd0:	0020      	movs	r0, r4
10004fd2:	bcc0      	pop	{r6, r7}
10004fd4:	46b9      	mov	r9, r7
10004fd6:	46b0      	mov	r8, r6
10004fd8:	bdf8      	pop	{r3, r4, r5, r6, r7, pc}
10004fda:	0079      	lsls	r1, r7, #1
10004fdc:	19c9      	adds	r1, r1, r7
10004fde:	3903      	subs	r1, #3
10004fe0:	4688      	mov	r8, r1
10004fe2:	4443      	add	r3, r8
10004fe4:	7859      	ldrb	r1, [r3, #1]
10004fe6:	4689      	mov	r9, r1
10004fe8:	2100      	movs	r1, #0
10004fea:	7059      	strb	r1, [r3, #1]
10004fec:	7051      	strb	r1, [r2, #1]
10004fee:	6873      	ldr	r3, [r6, #4]
10004ff0:	003a      	movs	r2, r7
10004ff2:	0021      	movs	r1, r4
10004ff4:	6880      	ldr	r0, [r0, #8]
10004ff6:	4798      	blx	r3
10004ff8:	6833      	ldr	r3, [r6, #0]
10004ffa:	2800      	cmp	r0, #0
10004ffc:	d014      	beq.n	10005028 <ph_merge_two_pass+0x78>
10004ffe:	4642      	mov	r2, r8
10005000:	189a      	adds	r2, r3, r2
10005002:	7094      	strb	r4, [r2, #2]
10005004:	1959      	adds	r1, r3, r5
10005006:	5d5b      	ldrb	r3, [r3, r5]
10005008:	2b00      	cmp	r3, #0
1000500a:	d000      	beq.n	1000500e <ph_merge_two_pass+0x5e>
1000500c:	7053      	strb	r3, [r2, #1]
1000500e:	700f      	strb	r7, [r1, #0]
10005010:	0027      	movs	r7, r4
10005012:	4649      	mov	r1, r9
10005014:	0030      	movs	r0, r6
10005016:	f7ff ffcb 	bl	10004fb0 <ph_merge_two_pass>
1000501a:	0039      	movs	r1, r7
1000501c:	0002      	movs	r2, r0
1000501e:	0030      	movs	r0, r6
10005020:	f7ff ff74 	bl	10004f0c <ph_merge_nodes>
10005024:	0004      	movs	r4, r0
10005026:	e7d3      	b.n	10004fd0 <ph_merge_two_pass+0x20>
10005028:	4642      	mov	r2, r8
1000502a:	4641      	mov	r1, r8
1000502c:	195d      	adds	r5, r3, r5
1000502e:	70af      	strb	r7, [r5, #2]
10005030:	189a      	adds	r2, r3, r2
10005032:	5c5b      	ldrb	r3, [r3, r1]
10005034:	2b00      	cmp	r3, #0
10005036:	d000      	beq.n	1000503a <ph_merge_two_pass+0x8a>
10005038:	706b      	strb	r3, [r5, #1]
1000503a:	7014      	strb	r4, [r2, #0]
1000503c:	e7e9      	b.n	10005012 <ph_merge_two_pass+0x62>
1000503e:	46c0      	nop			; (mov r8, r8)

10005040 <ph_remove_any_head>:
10005040:	b5f0      	push	{r4, r5, r6, r7, lr}
10005042:	4657      	mov	r7, sl
10005044:	4645      	mov	r5, r8
10005046:	46de      	mov	lr, fp
10005048:	464e      	mov	r6, r9
1000504a:	b5e0      	push	{r5, r6, r7, lr}
1000504c:	000d      	movs	r5, r1
1000504e:	006b      	lsls	r3, r5, #1
10005050:	6801      	ldr	r1, [r0, #0]
10005052:	195b      	adds	r3, r3, r5
10005054:	1edf      	subs	r7, r3, #3
10005056:	0004      	movs	r4, r0
10005058:	5dc8      	ldrb	r0, [r1, r7]
1000505a:	b083      	sub	sp, #12
1000505c:	9201      	str	r2, [sp, #4]
1000505e:	19ca      	adds	r2, r1, r7
10005060:	2800      	cmp	r0, #0
10005062:	d050      	beq.n	10005106 <ph_remove_any_head+0xc6>
10005064:	0043      	lsls	r3, r0, #1
10005066:	181b      	adds	r3, r3, r0
10005068:	3b03      	subs	r3, #3
1000506a:	18cb      	adds	r3, r1, r3
1000506c:	785e      	ldrb	r6, [r3, #1]
1000506e:	46b4      	mov	ip, r6
10005070:	2e00      	cmp	r6, #0
10005072:	d11a      	bne.n	100050aa <ph_remove_any_head+0x6a>
10005074:	9e01      	ldr	r6, [sp, #4]
10005076:	2e00      	cmp	r6, #0
10005078:	d042      	beq.n	10005100 <ph_remove_any_head+0xc0>
1000507a:	7be6      	ldrb	r6, [r4, #15]
1000507c:	2e00      	cmp	r6, #0
1000507e:	d004      	beq.n	1000508a <ph_remove_any_head+0x4a>
10005080:	0073      	lsls	r3, r6, #1
10005082:	199b      	adds	r3, r3, r6
10005084:	18cb      	adds	r3, r1, r3
10005086:	3b03      	subs	r3, #3
10005088:	705d      	strb	r5, [r3, #1]
1000508a:	7ba3      	ldrb	r3, [r4, #14]
1000508c:	2b00      	cmp	r3, #0
1000508e:	d100      	bne.n	10005092 <ph_remove_any_head+0x52>
10005090:	73a5      	strb	r5, [r4, #14]
10005092:	73e5      	strb	r5, [r4, #15]
10005094:	2800      	cmp	r0, #0
10005096:	d12f      	bne.n	100050f8 <ph_remove_any_head+0xb8>
10005098:	2300      	movs	r3, #0
1000509a:	7053      	strb	r3, [r2, #1]
1000509c:	b003      	add	sp, #12
1000509e:	bcf0      	pop	{r4, r5, r6, r7}
100050a0:	46bb      	mov	fp, r7
100050a2:	46b2      	mov	sl, r6
100050a4:	46a9      	mov	r9, r5
100050a6:	46a0      	mov	r8, r4
100050a8:	bdf0      	pop	{r4, r5, r6, r7, pc}
100050aa:	0072      	lsls	r2, r6, #1
100050ac:	4462      	add	r2, ip
100050ae:	3a03      	subs	r2, #3
100050b0:	1889      	adds	r1, r1, r2
100050b2:	784a      	ldrb	r2, [r1, #1]
100050b4:	4690      	mov	r8, r2
100050b6:	2200      	movs	r2, #0
100050b8:	704a      	strb	r2, [r1, #1]
100050ba:	4691      	mov	r9, r2
100050bc:	705a      	strb	r2, [r3, #1]
100050be:	0001      	movs	r1, r0
100050c0:	0032      	movs	r2, r6
100050c2:	0020      	movs	r0, r4
100050c4:	f7ff ff22 	bl	10004f0c <ph_merge_nodes>
100050c8:	4643      	mov	r3, r8
100050ca:	4682      	mov	sl, r0
100050cc:	2b00      	cmp	r3, #0
100050ce:	d007      	beq.n	100050e0 <ph_remove_any_head+0xa0>
100050d0:	005b      	lsls	r3, r3, #1
100050d2:	6821      	ldr	r1, [r4, #0]
100050d4:	4443      	add	r3, r8
100050d6:	3b03      	subs	r3, #3
100050d8:	18cb      	adds	r3, r1, r3
100050da:	785a      	ldrb	r2, [r3, #1]
100050dc:	2a00      	cmp	r2, #0
100050de:	d116      	bne.n	1000510e <ph_remove_any_head+0xce>
100050e0:	4642      	mov	r2, r8
100050e2:	4651      	mov	r1, sl
100050e4:	0020      	movs	r0, r4
100050e6:	f7ff ff11 	bl	10004f0c <ph_merge_nodes>
100050ea:	6821      	ldr	r1, [r4, #0]
100050ec:	9b01      	ldr	r3, [sp, #4]
100050ee:	19ca      	adds	r2, r1, r7
100050f0:	2b00      	cmp	r3, #0
100050f2:	d1c2      	bne.n	1000507a <ph_remove_any_head+0x3a>
100050f4:	2800      	cmp	r0, #0
100050f6:	d0cf      	beq.n	10005098 <ph_remove_any_head+0x58>
100050f8:	0043      	lsls	r3, r0, #1
100050fa:	181b      	adds	r3, r3, r0
100050fc:	3b03      	subs	r3, #3
100050fe:	18cb      	adds	r3, r1, r3
10005100:	2100      	movs	r1, #0
10005102:	7099      	strb	r1, [r3, #2]
10005104:	e7c8      	b.n	10005098 <ph_remove_any_head+0x58>
10005106:	9b01      	ldr	r3, [sp, #4]
10005108:	2b00      	cmp	r3, #0
1000510a:	d1b6      	bne.n	1000507a <ph_remove_any_head+0x3a>
1000510c:	e7c4      	b.n	10005098 <ph_remove_any_head+0x58>
1000510e:	0050      	lsls	r0, r2, #1
10005110:	1880      	adds	r0, r0, r2
10005112:	3803      	subs	r0, #3
10005114:	1809      	adds	r1, r1, r0
10005116:	7848      	ldrb	r0, [r1, #1]
10005118:	4683      	mov	fp, r0
1000511a:	4648      	mov	r0, r9
1000511c:	7048      	strb	r0, [r1, #1]
1000511e:	7058      	strb	r0, [r3, #1]
10005120:	4641      	mov	r1, r8
10005122:	0020      	movs	r0, r4
10005124:	f7ff fef2 	bl	10004f0c <ph_merge_nodes>
10005128:	4659      	mov	r1, fp
1000512a:	4680      	mov	r8, r0
1000512c:	0020      	movs	r0, r4
1000512e:	f7ff ff3f 	bl	10004fb0 <ph_merge_two_pass>
10005132:	4641      	mov	r1, r8
10005134:	0002      	movs	r2, r0
10005136:	0020      	movs	r0, r4
10005138:	f7ff fee8 	bl	10004f0c <ph_merge_nodes>
1000513c:	4680      	mov	r8, r0
1000513e:	e7cf      	b.n	100050e0 <ph_remove_any_head+0xa0>

10005140 <ph_remove_head>:
10005140:	b5f0      	push	{r4, r5, r6, r7, lr}
10005142:	4657      	mov	r7, sl
10005144:	4645      	mov	r5, r8
10005146:	46de      	mov	lr, fp
10005148:	464e      	mov	r6, r9
1000514a:	b5e0      	push	{r5, r6, r7, lr}
1000514c:	b083      	sub	sp, #12
1000514e:	9101      	str	r1, [sp, #4]
10005150:	7b45      	ldrb	r5, [r0, #13]
10005152:	0004      	movs	r4, r0
10005154:	006b      	lsls	r3, r5, #1
10005156:	6800      	ldr	r0, [r0, #0]
10005158:	195b      	adds	r3, r3, r5
1000515a:	1edf      	subs	r7, r3, #3
1000515c:	5dc1      	ldrb	r1, [r0, r7]
1000515e:	19c2      	adds	r2, r0, r7
10005160:	2900      	cmp	r1, #0
10005162:	d052      	beq.n	1000520a <ph_remove_head+0xca>
10005164:	004b      	lsls	r3, r1, #1
10005166:	185b      	adds	r3, r3, r1
10005168:	3b03      	subs	r3, #3
1000516a:	18c3      	adds	r3, r0, r3
1000516c:	785e      	ldrb	r6, [r3, #1]
1000516e:	46b4      	mov	ip, r6
10005170:	2e00      	cmp	r6, #0
10005172:	d11c      	bne.n	100051ae <ph_remove_head+0x6e>
10005174:	9e01      	ldr	r6, [sp, #4]
10005176:	2e00      	cmp	r6, #0
10005178:	d044      	beq.n	10005204 <ph_remove_head+0xc4>
1000517a:	7be6      	ldrb	r6, [r4, #15]
1000517c:	2e00      	cmp	r6, #0
1000517e:	d004      	beq.n	1000518a <ph_remove_head+0x4a>
10005180:	0073      	lsls	r3, r6, #1
10005182:	199b      	adds	r3, r3, r6
10005184:	18c3      	adds	r3, r0, r3
10005186:	3b03      	subs	r3, #3
10005188:	705d      	strb	r5, [r3, #1]
1000518a:	7ba3      	ldrb	r3, [r4, #14]
1000518c:	2b00      	cmp	r3, #0
1000518e:	d100      	bne.n	10005192 <ph_remove_head+0x52>
10005190:	73a5      	strb	r5, [r4, #14]
10005192:	73e5      	strb	r5, [r4, #15]
10005194:	2900      	cmp	r1, #0
10005196:	d131      	bne.n	100051fc <ph_remove_head+0xbc>
10005198:	2300      	movs	r3, #0
1000519a:	0028      	movs	r0, r5
1000519c:	7053      	strb	r3, [r2, #1]
1000519e:	7361      	strb	r1, [r4, #13]
100051a0:	b003      	add	sp, #12
100051a2:	bcf0      	pop	{r4, r5, r6, r7}
100051a4:	46bb      	mov	fp, r7
100051a6:	46b2      	mov	sl, r6
100051a8:	46a9      	mov	r9, r5
100051aa:	46a0      	mov	r8, r4
100051ac:	bdf0      	pop	{r4, r5, r6, r7, pc}
100051ae:	0072      	lsls	r2, r6, #1
100051b0:	4462      	add	r2, ip
100051b2:	3a03      	subs	r2, #3
100051b4:	1880      	adds	r0, r0, r2
100051b6:	7842      	ldrb	r2, [r0, #1]
100051b8:	4690      	mov	r8, r2
100051ba:	2200      	movs	r2, #0
100051bc:	7042      	strb	r2, [r0, #1]
100051be:	4691      	mov	r9, r2
100051c0:	705a      	strb	r2, [r3, #1]
100051c2:	0020      	movs	r0, r4
100051c4:	0032      	movs	r2, r6
100051c6:	f7ff fea1 	bl	10004f0c <ph_merge_nodes>
100051ca:	4643      	mov	r3, r8
100051cc:	4682      	mov	sl, r0
100051ce:	2b00      	cmp	r3, #0
100051d0:	d007      	beq.n	100051e2 <ph_remove_head+0xa2>
100051d2:	005b      	lsls	r3, r3, #1
100051d4:	6821      	ldr	r1, [r4, #0]
100051d6:	4443      	add	r3, r8
100051d8:	3b03      	subs	r3, #3
100051da:	18cb      	adds	r3, r1, r3
100051dc:	785a      	ldrb	r2, [r3, #1]
100051de:	2a00      	cmp	r2, #0
100051e0:	d117      	bne.n	10005212 <ph_remove_head+0xd2>
100051e2:	4642      	mov	r2, r8
100051e4:	4651      	mov	r1, sl
100051e6:	0020      	movs	r0, r4
100051e8:	f7ff fe90 	bl	10004f0c <ph_merge_nodes>
100051ec:	9b01      	ldr	r3, [sp, #4]
100051ee:	0001      	movs	r1, r0
100051f0:	6820      	ldr	r0, [r4, #0]
100051f2:	19c2      	adds	r2, r0, r7
100051f4:	2b00      	cmp	r3, #0
100051f6:	d1c0      	bne.n	1000517a <ph_remove_head+0x3a>
100051f8:	2900      	cmp	r1, #0
100051fa:	d0cd      	beq.n	10005198 <ph_remove_head+0x58>
100051fc:	004b      	lsls	r3, r1, #1
100051fe:	185b      	adds	r3, r3, r1
10005200:	3b03      	subs	r3, #3
10005202:	18c3      	adds	r3, r0, r3
10005204:	2000      	movs	r0, #0
10005206:	7098      	strb	r0, [r3, #2]
10005208:	e7c6      	b.n	10005198 <ph_remove_head+0x58>
1000520a:	9b01      	ldr	r3, [sp, #4]
1000520c:	2b00      	cmp	r3, #0
1000520e:	d1b4      	bne.n	1000517a <ph_remove_head+0x3a>
10005210:	e7c2      	b.n	10005198 <ph_remove_head+0x58>
10005212:	0050      	lsls	r0, r2, #1
10005214:	1880      	adds	r0, r0, r2
10005216:	3803      	subs	r0, #3
10005218:	1809      	adds	r1, r1, r0
1000521a:	7848      	ldrb	r0, [r1, #1]
1000521c:	4683      	mov	fp, r0
1000521e:	4648      	mov	r0, r9
10005220:	7048      	strb	r0, [r1, #1]
10005222:	7058      	strb	r0, [r3, #1]
10005224:	4641      	mov	r1, r8
10005226:	0020      	movs	r0, r4
10005228:	f7ff fe70 	bl	10004f0c <ph_merge_nodes>
1000522c:	4659      	mov	r1, fp
1000522e:	4680      	mov	r8, r0
10005230:	0020      	movs	r0, r4
10005232:	f7ff febd 	bl	10004fb0 <ph_merge_two_pass>
10005236:	4641      	mov	r1, r8
10005238:	0002      	movs	r2, r0
1000523a:	0020      	movs	r0, r4
1000523c:	f7ff fe66 	bl	10004f0c <ph_merge_nodes>
10005240:	4680      	mov	r8, r0
10005242:	e7ce      	b.n	100051e2 <ph_remove_head+0xa2>

10005244 <ph_remove_and_free_node>:
10005244:	b570      	push	{r4, r5, r6, lr}
10005246:	0004      	movs	r4, r0
10005248:	2900      	cmp	r1, #0
1000524a:	d02c      	beq.n	100052a6 <ph_remove_and_free_node+0x62>
1000524c:	7b43      	ldrb	r3, [r0, #13]
1000524e:	428b      	cmp	r3, r1
10005250:	d02e      	beq.n	100052b0 <ph_remove_and_free_node+0x6c>
10005252:	6805      	ldr	r5, [r0, #0]
10005254:	0048      	lsls	r0, r1, #1
10005256:	1840      	adds	r0, r0, r1
10005258:	3803      	subs	r0, #3
1000525a:	1828      	adds	r0, r5, r0
1000525c:	7882      	ldrb	r2, [r0, #2]
1000525e:	2a00      	cmp	r2, #0
10005260:	d021      	beq.n	100052a6 <ph_remove_and_free_node+0x62>
10005262:	0053      	lsls	r3, r2, #1
10005264:	189b      	adds	r3, r3, r2
10005266:	3b03      	subs	r3, #3
10005268:	5cea      	ldrb	r2, [r5, r3]
1000526a:	18ee      	adds	r6, r5, r3
1000526c:	428a      	cmp	r2, r1
1000526e:	d102      	bne.n	10005276 <ph_remove_and_free_node+0x32>
10005270:	e01b      	b.n	100052aa <ph_remove_and_free_node+0x66>
10005272:	2a00      	cmp	r2, #0
10005274:	d008      	beq.n	10005288 <ph_remove_and_free_node+0x44>
10005276:	0053      	lsls	r3, r2, #1
10005278:	189b      	adds	r3, r3, r2
1000527a:	3b03      	subs	r3, #3
1000527c:	18eb      	adds	r3, r5, r3
1000527e:	785a      	ldrb	r2, [r3, #1]
10005280:	428a      	cmp	r2, r1
10005282:	d1f6      	bne.n	10005272 <ph_remove_and_free_node+0x2e>
10005284:	7842      	ldrb	r2, [r0, #1]
10005286:	705a      	strb	r2, [r3, #1]
10005288:	2300      	movs	r3, #0
1000528a:	2201      	movs	r2, #1
1000528c:	7083      	strb	r3, [r0, #2]
1000528e:	7043      	strb	r3, [r0, #1]
10005290:	0020      	movs	r0, r4
10005292:	f7ff fed5 	bl	10005040 <ph_remove_any_head>
10005296:	7b61      	ldrb	r1, [r4, #13]
10005298:	0002      	movs	r2, r0
1000529a:	0020      	movs	r0, r4
1000529c:	f7ff fe36 	bl	10004f0c <ph_merge_nodes>
100052a0:	7360      	strb	r0, [r4, #13]
100052a2:	2001      	movs	r0, #1
100052a4:	e000      	b.n	100052a8 <ph_remove_and_free_node+0x64>
100052a6:	2000      	movs	r0, #0
100052a8:	bd70      	pop	{r4, r5, r6, pc}
100052aa:	7843      	ldrb	r3, [r0, #1]
100052ac:	7033      	strb	r3, [r6, #0]
100052ae:	e7eb      	b.n	10005288 <ph_remove_and_free_node+0x44>
100052b0:	2201      	movs	r2, #1
100052b2:	0019      	movs	r1, r3
100052b4:	f7ff fec4 	bl	10005040 <ph_remove_any_head>
100052b8:	7360      	strb	r0, [r4, #13]
100052ba:	2001      	movs	r0, #1
100052bc:	e7f4      	b.n	100052a8 <ph_remove_and_free_node+0x64>
100052be:	46c0      	nop			; (mov r8, r8)

100052c0 <dma_channel_unclaim>:
100052c0:	b510      	push	{r4, lr}
100052c2:	0001      	movs	r1, r0
100052c4:	4801      	ldr	r0, [pc, #4]	; (100052cc <dma_channel_unclaim+0xc>)
100052c6:	f7fb fb17 	bl	100008f8 <hw_claim_clear>
100052ca:	bd10      	pop	{r4, pc}
100052cc:	20002c7a 	.word	0x20002c7a

100052d0 <dma_claim_unused_channel>:
100052d0:	b500      	push	{lr}
100052d2:	4b05      	ldr	r3, [pc, #20]	; (100052e8 <dma_claim_unused_channel+0x18>)
100052d4:	b083      	sub	sp, #12
100052d6:	0001      	movs	r1, r0
100052d8:	9300      	str	r3, [sp, #0]
100052da:	2200      	movs	r2, #0
100052dc:	230b      	movs	r3, #11
100052de:	4803      	ldr	r0, [pc, #12]	; (100052ec <dma_claim_unused_channel+0x1c>)
100052e0:	f7fb fabc 	bl	1000085c <hw_claim_unused_from_range>
100052e4:	b003      	add	sp, #12
100052e6:	bd00      	pop	{pc}
100052e8:	100420f4 	.word	0x100420f4
100052ec:	20002c7a 	.word	0x20002c7a

100052f0 <cyw43_sleep_timeout_reached>:
100052f0:	b510      	push	{r4, lr}
100052f2:	6803      	ldr	r3, [r0, #0]
100052f4:	4901      	ldr	r1, [pc, #4]	; (100052fc <cyw43_sleep_timeout_reached+0xc>)
100052f6:	6a5b      	ldr	r3, [r3, #36]	; 0x24
100052f8:	4798      	blx	r3
100052fa:	bd10      	pop	{r4, pc}
100052fc:	200010d4 	.word	0x200010d4

10005300 <cyw43_irq_init>:
10005300:	2080      	movs	r0, #128	; 0x80
10005302:	b510      	push	{r4, lr}
10005304:	2240      	movs	r2, #64	; 0x40
10005306:	4907      	ldr	r1, [pc, #28]	; (10005324 <cyw43_irq_init+0x24>)
10005308:	0440      	lsls	r0, r0, #17
1000530a:	f7fe fd85 	bl	10003e18 <gpio_add_raw_irq_handler_with_order_priority_masked>
1000530e:	2201      	movs	r2, #1
10005310:	2102      	movs	r1, #2
10005312:	2018      	movs	r0, #24
10005314:	f7fe fd56 	bl	10003dc4 <gpio_set_irq_enabled>
10005318:	200d      	movs	r0, #13
1000531a:	2101      	movs	r1, #1
1000531c:	f7fe fde0 	bl	10003ee0 <irq_set_enabled>
10005320:	2000      	movs	r0, #0
10005322:	bd10      	pop	{r4, pc}
10005324:	10005349 	.word	0x10005349

10005328 <cyw43_irq_deinit>:
10005328:	2080      	movs	r0, #128	; 0x80
1000532a:	b510      	push	{r4, lr}
1000532c:	4905      	ldr	r1, [pc, #20]	; (10005344 <cyw43_irq_deinit+0x1c>)
1000532e:	0440      	lsls	r0, r0, #17
10005330:	f7fe fd94 	bl	10003e5c <gpio_remove_raw_irq_handler_masked>
10005334:	2018      	movs	r0, #24
10005336:	2200      	movs	r2, #0
10005338:	2102      	movs	r1, #2
1000533a:	f7fe fd43 	bl	10003dc4 <gpio_set_irq_enabled>
1000533e:	2000      	movs	r0, #0
10005340:	bd10      	pop	{r4, pc}
10005342:	46c0      	nop			; (mov r8, r8)
10005344:	10005349 	.word	0x10005349

10005348 <cyw43_gpio_irq_handler>:
10005348:	23d0      	movs	r3, #208	; 0xd0
1000534a:	061b      	lsls	r3, r3, #24
1000534c:	681b      	ldr	r3, [r3, #0]
1000534e:	b510      	push	{r4, lr}
10005350:	1e5a      	subs	r2, r3, #1
10005352:	4193      	sbcs	r3, r2
10005354:	425a      	negs	r2, r3
10005356:	2330      	movs	r3, #48	; 0x30
10005358:	4013      	ands	r3, r2
1000535a:	4a09      	ldr	r2, [pc, #36]	; (10005380 <cyw43_gpio_irq_handler+0x38>)
1000535c:	4694      	mov	ip, r2
1000535e:	4463      	add	r3, ip
10005360:	6adb      	ldr	r3, [r3, #44]	; 0x2c
10005362:	079b      	lsls	r3, r3, #30
10005364:	d400      	bmi.n	10005368 <cyw43_gpio_irq_handler+0x20>
10005366:	bd10      	pop	{r4, pc}
10005368:	2200      	movs	r2, #0
1000536a:	2102      	movs	r1, #2
1000536c:	2018      	movs	r0, #24
1000536e:	f7fe fd29 	bl	10003dc4 <gpio_set_irq_enabled>
10005372:	4b04      	ldr	r3, [pc, #16]	; (10005384 <cyw43_gpio_irq_handler+0x3c>)
10005374:	4904      	ldr	r1, [pc, #16]	; (10005388 <cyw43_gpio_irq_handler+0x40>)
10005376:	6818      	ldr	r0, [r3, #0]
10005378:	6803      	ldr	r3, [r0, #0]
1000537a:	6a5b      	ldr	r3, [r3, #36]	; 0x24
1000537c:	4798      	blx	r3
1000537e:	e7f2      	b.n	10005366 <cyw43_gpio_irq_handler+0x1e>
10005380:	40014100 	.word	0x40014100
10005384:	20001dac 	.word	0x20001dac
10005388:	200010d4 	.word	0x200010d4

1000538c <cyw43_do_poll>:
1000538c:	4b15      	ldr	r3, [pc, #84]	; (100053e4 <cyw43_do_poll+0x58>)
1000538e:	b570      	push	{r4, r5, r6, lr}
10005390:	681b      	ldr	r3, [r3, #0]
10005392:	0004      	movs	r4, r0
10005394:	2b00      	cmp	r3, #0
10005396:	d00e      	beq.n	100053b6 <cyw43_do_poll+0x2a>
10005398:	4d13      	ldr	r5, [pc, #76]	; (100053e8 <cyw43_do_poll+0x5c>)
1000539a:	682a      	ldr	r2, [r5, #0]
1000539c:	2a00      	cmp	r2, #0
1000539e:	d001      	beq.n	100053a4 <cyw43_do_poll+0x18>
100053a0:	3a01      	subs	r2, #1
100053a2:	602a      	str	r2, [r5, #0]
100053a4:	4798      	blx	r3
100053a6:	682b      	ldr	r3, [r5, #0]
100053a8:	2b00      	cmp	r3, #0
100053aa:	d105      	bne.n	100053b8 <cyw43_do_poll+0x2c>
100053ac:	6823      	ldr	r3, [r4, #0]
100053ae:	0020      	movs	r0, r4
100053b0:	699b      	ldr	r3, [r3, #24]
100053b2:	490e      	ldr	r1, [pc, #56]	; (100053ec <cyw43_do_poll+0x60>)
100053b4:	4798      	blx	r3
100053b6:	bd70      	pop	{r4, r5, r6, pc}
100053b8:	f7ff fc90 	bl	10004cdc <time_us_64>
100053bc:	2300      	movs	r3, #0
100053be:	4a0c      	ldr	r2, [pc, #48]	; (100053f0 <cyw43_do_poll+0x64>)
100053c0:	1880      	adds	r0, r0, r2
100053c2:	4159      	adcs	r1, r3
100053c4:	2900      	cmp	r1, #0
100053c6:	db08      	blt.n	100053da <cyw43_do_poll+0x4e>
100053c8:	4b08      	ldr	r3, [pc, #32]	; (100053ec <cyw43_do_poll+0x60>)
100053ca:	6822      	ldr	r2, [r4, #0]
100053cc:	6098      	str	r0, [r3, #8]
100053ce:	60d9      	str	r1, [r3, #12]
100053d0:	6952      	ldr	r2, [r2, #20]
100053d2:	0019      	movs	r1, r3
100053d4:	0020      	movs	r0, r4
100053d6:	4790      	blx	r2
100053d8:	e7ed      	b.n	100053b6 <cyw43_do_poll+0x2a>
100053da:	2001      	movs	r0, #1
100053dc:	4905      	ldr	r1, [pc, #20]	; (100053f4 <cyw43_do_poll+0x68>)
100053de:	4240      	negs	r0, r0
100053e0:	e7f2      	b.n	100053c8 <cyw43_do_poll+0x3c>
100053e2:	46c0      	nop			; (mov r8, r8)
100053e4:	20001db0 	.word	0x20001db0
100053e8:	20001db4 	.word	0x20001db4
100053ec:	200010e0 	.word	0x200010e0
100053f0:	0000c350 	.word	0x0000c350
100053f4:	7fffffff 	.word	0x7fffffff

100053f8 <cyw43_post_poll_hook>:
100053f8:	b510      	push	{r4, lr}
100053fa:	2201      	movs	r2, #1
100053fc:	2102      	movs	r1, #2
100053fe:	2018      	movs	r0, #24
10005400:	f7fe fce0 	bl	10003dc4 <gpio_set_irq_enabled>
10005404:	bd10      	pop	{r4, pc}
10005406:	46c0      	nop			; (mov r8, r8)

10005408 <cyw43_schedule_internal_poll_dispatch>:
10005408:	4b03      	ldr	r3, [pc, #12]	; (10005418 <cyw43_schedule_internal_poll_dispatch+0x10>)
1000540a:	b510      	push	{r4, lr}
1000540c:	6818      	ldr	r0, [r3, #0]
1000540e:	4903      	ldr	r1, [pc, #12]	; (1000541c <cyw43_schedule_internal_poll_dispatch+0x14>)
10005410:	6803      	ldr	r3, [r0, #0]
10005412:	6a5b      	ldr	r3, [r3, #36]	; 0x24
10005414:	4798      	blx	r3
10005416:	bd10      	pop	{r4, pc}
10005418:	20001dac 	.word	0x20001dac
1000541c:	200010d4 	.word	0x200010d4

10005420 <cyw43_driver_init>:
10005420:	b510      	push	{r4, lr}
10005422:	0004      	movs	r4, r0
10005424:	4808      	ldr	r0, [pc, #32]	; (10005448 <cyw43_driver_init+0x28>)
10005426:	f7fe f903 	bl	10003630 <cyw43_init>
1000542a:	4b08      	ldr	r3, [pc, #32]	; (1000544c <cyw43_driver_init+0x2c>)
1000542c:	2200      	movs	r2, #0
1000542e:	601c      	str	r4, [r3, #0]
10005430:	6823      	ldr	r3, [r4, #0]
10005432:	0020      	movs	r0, r4
10005434:	691b      	ldr	r3, [r3, #16]
10005436:	4906      	ldr	r1, [pc, #24]	; (10005450 <cyw43_driver_init+0x30>)
10005438:	4798      	blx	r3
1000543a:	6823      	ldr	r3, [r4, #0]
1000543c:	0020      	movs	r0, r4
1000543e:	69db      	ldr	r3, [r3, #28]
10005440:	4904      	ldr	r1, [pc, #16]	; (10005454 <cyw43_driver_init+0x34>)
10005442:	4798      	blx	r3
10005444:	2001      	movs	r0, #1
10005446:	bd10      	pop	{r4, pc}
10005448:	20001db8 	.word	0x20001db8
1000544c:	20001dac 	.word	0x20001dac
10005450:	10005301 	.word	0x10005301
10005454:	200010d4 	.word	0x200010d4

10005458 <cyw43_driver_deinit>:
10005458:	b510      	push	{r4, lr}
1000545a:	0004      	movs	r4, r0
1000545c:	6803      	ldr	r3, [r0, #0]
1000545e:	490a      	ldr	r1, [pc, #40]	; (10005488 <cyw43_driver_deinit+0x30>)
10005460:	699b      	ldr	r3, [r3, #24]
10005462:	4798      	blx	r3
10005464:	6823      	ldr	r3, [r4, #0]
10005466:	0020      	movs	r0, r4
10005468:	6a1b      	ldr	r3, [r3, #32]
1000546a:	4908      	ldr	r1, [pc, #32]	; (1000548c <cyw43_driver_deinit+0x34>)
1000546c:	4798      	blx	r3
1000546e:	6823      	ldr	r3, [r4, #0]
10005470:	2200      	movs	r2, #0
10005472:	691b      	ldr	r3, [r3, #16]
10005474:	4906      	ldr	r1, [pc, #24]	; (10005490 <cyw43_driver_deinit+0x38>)
10005476:	0020      	movs	r0, r4
10005478:	4798      	blx	r3
1000547a:	4806      	ldr	r0, [pc, #24]	; (10005494 <cyw43_driver_deinit+0x3c>)
1000547c:	f7fe f910 	bl	100036a0 <cyw43_deinit>
10005480:	2200      	movs	r2, #0
10005482:	4b05      	ldr	r3, [pc, #20]	; (10005498 <cyw43_driver_deinit+0x40>)
10005484:	601a      	str	r2, [r3, #0]
10005486:	bd10      	pop	{r4, pc}
10005488:	200010e0 	.word	0x200010e0
1000548c:	200010d4 	.word	0x200010d4
10005490:	10005329 	.word	0x10005329
10005494:	20001db8 	.word	0x20001db8
10005498:	20001dac 	.word	0x20001dac

1000549c <cyw43_hal_generate_laa_mac>:
1000549c:	b510      	push	{r4, lr}
1000549e:	b082      	sub	sp, #8
100054a0:	4668      	mov	r0, sp
100054a2:	000c      	movs	r4, r1
100054a4:	f7fb f89e 	bl	100005e4 <pico_get_unique_board_id>
100054a8:	466b      	mov	r3, sp
100054aa:	2206      	movs	r2, #6
100054ac:	1c99      	adds	r1, r3, #2
100054ae:	0020      	movs	r0, r4
100054b0:	f002 fd1c 	bl	10007eec <__wrap___aeabi_memcpy>
100054b4:	2201      	movs	r2, #1
100054b6:	7823      	ldrb	r3, [r4, #0]
100054b8:	4393      	bics	r3, r2
100054ba:	2202      	movs	r2, #2
100054bc:	4313      	orrs	r3, r2
100054be:	7023      	strb	r3, [r4, #0]
100054c0:	b002      	add	sp, #8
100054c2:	bd10      	pop	{r4, pc}

100054c4 <cyw43_thread_enter>:
100054c4:	4b03      	ldr	r3, [pc, #12]	; (100054d4 <cyw43_thread_enter+0x10>)
100054c6:	b510      	push	{r4, lr}
100054c8:	6818      	ldr	r0, [r3, #0]
100054ca:	6803      	ldr	r3, [r0, #0]
100054cc:	685b      	ldr	r3, [r3, #4]
100054ce:	4798      	blx	r3
100054d0:	bd10      	pop	{r4, pc}
100054d2:	46c0      	nop			; (mov r8, r8)
100054d4:	20001dac 	.word	0x20001dac

100054d8 <cyw43_thread_exit>:
100054d8:	4b03      	ldr	r3, [pc, #12]	; (100054e8 <cyw43_thread_exit+0x10>)
100054da:	b510      	push	{r4, lr}
100054dc:	6818      	ldr	r0, [r3, #0]
100054de:	6803      	ldr	r3, [r0, #0]
100054e0:	689b      	ldr	r3, [r3, #8]
100054e2:	4798      	blx	r3
100054e4:	bd10      	pop	{r4, pc}
100054e6:	46c0      	nop			; (mov r8, r8)
100054e8:	20001dac 	.word	0x20001dac

100054ec <cyw43_await_background_or_timeout_us>:
100054ec:	b570      	push	{r4, r5, r6, lr}
100054ee:	0004      	movs	r4, r0
100054f0:	4b09      	ldr	r3, [pc, #36]	; (10005518 <cyw43_await_background_or_timeout_us+0x2c>)
100054f2:	681d      	ldr	r5, [r3, #0]
100054f4:	f7ff fbf2 	bl	10004cdc <time_us_64>
100054f8:	0022      	movs	r2, r4
100054fa:	2300      	movs	r3, #0
100054fc:	1812      	adds	r2, r2, r0
100054fe:	414b      	adcs	r3, r1
10005500:	2b00      	cmp	r3, #0
10005502:	db04      	blt.n	1000550e <cyw43_await_background_or_timeout_us+0x22>
10005504:	6829      	ldr	r1, [r5, #0]
10005506:	0028      	movs	r0, r5
10005508:	6b09      	ldr	r1, [r1, #48]	; 0x30
1000550a:	4788      	blx	r1
1000550c:	bd70      	pop	{r4, r5, r6, pc}
1000550e:	2201      	movs	r2, #1
10005510:	4b02      	ldr	r3, [pc, #8]	; (1000551c <cyw43_await_background_or_timeout_us+0x30>)
10005512:	4252      	negs	r2, r2
10005514:	e7f6      	b.n	10005504 <cyw43_await_background_or_timeout_us+0x18>
10005516:	46c0      	nop			; (mov r8, r8)
10005518:	20001dac 	.word	0x20001dac
1000551c:	7fffffff 	.word	0x7fffffff

10005520 <cyw43_delay_ms>:
10005520:	b5f8      	push	{r3, r4, r5, r6, r7, lr}
10005522:	4b0e      	ldr	r3, [pc, #56]	; (1000555c <cyw43_delay_ms+0x3c>)
10005524:	0006      	movs	r6, r0
10005526:	681f      	ldr	r7, [r3, #0]
10005528:	f7ff fbd8 	bl	10004cdc <time_us_64>
1000552c:	22fa      	movs	r2, #250	; 0xfa
1000552e:	0004      	movs	r4, r0
10005530:	000d      	movs	r5, r1
10005532:	2300      	movs	r3, #0
10005534:	0092      	lsls	r2, r2, #2
10005536:	0030      	movs	r0, r6
10005538:	2100      	movs	r1, #0
1000553a:	f002 fc7b 	bl	10007e34 <__wrap___aeabi_lmul>
1000553e:	0002      	movs	r2, r0
10005540:	000b      	movs	r3, r1
10005542:	1912      	adds	r2, r2, r4
10005544:	416b      	adcs	r3, r5
10005546:	2b00      	cmp	r3, #0
10005548:	db04      	blt.n	10005554 <cyw43_delay_ms+0x34>
1000554a:	6839      	ldr	r1, [r7, #0]
1000554c:	0038      	movs	r0, r7
1000554e:	6ac9      	ldr	r1, [r1, #44]	; 0x2c
10005550:	4788      	blx	r1
10005552:	bdf8      	pop	{r3, r4, r5, r6, r7, pc}
10005554:	2201      	movs	r2, #1
10005556:	4b02      	ldr	r3, [pc, #8]	; (10005560 <cyw43_delay_ms+0x40>)
10005558:	4252      	negs	r2, r2
1000555a:	e7f6      	b.n	1000554a <cyw43_delay_ms+0x2a>
1000555c:	20001dac 	.word	0x20001dac
10005560:	7fffffff 	.word	0x7fffffff

10005564 <cyw43_cb_tcpip_deinit>:
10005564:	4770      	bx	lr
10005566:	46c0      	nop			; (mov r8, r8)

10005568 <cyw43_cb_tcpip_set_link_up>:
10005568:	b510      	push	{r4, lr}
1000556a:	4801      	ldr	r0, [pc, #4]	; (10005570 <cyw43_cb_tcpip_set_link_up+0x8>)
1000556c:	f000 fdb4 	bl	100060d8 <panic>
10005570:	10042114 	.word	0x10042114

10005574 <cyw43_cb_tcpip_set_link_down>:
10005574:	b510      	push	{r4, lr}
10005576:	4801      	ldr	r0, [pc, #4]	; (1000557c <cyw43_cb_tcpip_set_link_down+0x8>)
10005578:	f000 fdae 	bl	100060d8 <panic>
1000557c:	10042114 	.word	0x10042114

10005580 <cyw43_cb_process_ethernet>:
10005580:	b510      	push	{r4, lr}
10005582:	4801      	ldr	r0, [pc, #4]	; (10005588 <cyw43_cb_process_ethernet+0x8>)
10005584:	f000 fda8 	bl	100060d8 <panic>
10005588:	10042114 	.word	0x10042114

1000558c <async_context_threadsafe_background_acquire_lock_blocking>:
1000558c:	b510      	push	{r4, lr}
1000558e:	3030      	adds	r0, #48	; 0x30
10005590:	f005 f902 	bl	1000a798 <__recursive_mutex_enter_blocking_veneer>
10005594:	bd10      	pop	{r4, pc}
10005596:	46c0      	nop			; (mov r8, r8)

10005598 <alarm_handler>:
10005598:	2200      	movs	r2, #0
1000559a:	2345      	movs	r3, #69	; 0x45
1000559c:	b510      	push	{r4, lr}
1000559e:	000c      	movs	r4, r1
100055a0:	54ca      	strb	r2, [r1, r3]
100055a2:	3b01      	subs	r3, #1
100055a4:	5cc8      	ldrb	r0, [r1, r3]
100055a6:	f7fe fcad 	bl	10003f04 <irq_set_pending>
100055aa:	0020      	movs	r0, r4
100055ac:	3038      	adds	r0, #56	; 0x38
100055ae:	f005 f8c3 	bl	1000a738 <__sem_release_veneer>
100055b2:	2000      	movs	r0, #0
100055b4:	2100      	movs	r1, #0
100055b6:	bd10      	pop	{r4, pc}

100055b8 <async_context_threadsafe_background_set_work_pending>:
100055b8:	2301      	movs	r3, #1
100055ba:	b510      	push	{r4, lr}
100055bc:	0004      	movs	r4, r0
100055be:	720b      	strb	r3, [r1, #8]
100055c0:	3343      	adds	r3, #67	; 0x43
100055c2:	5cc0      	ldrb	r0, [r0, r3]
100055c4:	f7fe fc9e 	bl	10003f04 <irq_set_pending>
100055c8:	0020      	movs	r0, r4
100055ca:	3038      	adds	r0, #56	; 0x38
100055cc:	f005 f8b4 	bl	1000a738 <__sem_release_veneer>
100055d0:	bd10      	pop	{r4, pc}
100055d2:	46c0      	nop			; (mov r8, r8)

100055d4 <process_under_lock>:
100055d4:	b5f0      	push	{r4, r5, r6, r7, lr}
100055d6:	46ce      	mov	lr, r9
100055d8:	4647      	mov	r7, r8
100055da:	b580      	push	{r7, lr}
100055dc:	4b2d      	ldr	r3, [pc, #180]	; (10005694 <process_under_lock+0xc0>)
100055de:	b087      	sub	sp, #28
100055e0:	681a      	ldr	r2, [r3, #0]
100055e2:	685b      	ldr	r3, [r3, #4]
100055e4:	0004      	movs	r4, r0
100055e6:	9305      	str	r3, [sp, #20]
100055e8:	4b2b      	ldr	r3, [pc, #172]	; (10005698 <process_under_lock+0xc4>)
100055ea:	4690      	mov	r8, r2
100055ec:	2545      	movs	r5, #69	; 0x45
100055ee:	4699      	mov	r9, r3
100055f0:	0020      	movs	r0, r4
100055f2:	f000 f9eb 	bl	100059cc <async_context_base_execute_once>
100055f6:	0006      	movs	r6, r0
100055f8:	000f      	movs	r7, r1
100055fa:	f7ff fb6f 	bl	10004cdc <time_us_64>
100055fe:	0032      	movs	r2, r6
10005600:	003b      	movs	r3, r7
10005602:	1a12      	subs	r2, r2, r0
10005604:	418b      	sbcs	r3, r1
10005606:	2b00      	cmp	r3, #0
10005608:	dd29      	ble.n	1000565e <process_under_lock+0x8a>
1000560a:	4546      	cmp	r6, r8
1000560c:	d02d      	beq.n	1000566a <process_under_lock+0x96>
1000560e:	5d63      	ldrb	r3, [r4, r5]
10005610:	2b00      	cmp	r3, #0
10005612:	d008      	beq.n	10005626 <process_under_lock+0x52>
10005614:	6aa0      	ldr	r0, [r4, #40]	; 0x28
10005616:	6ae1      	ldr	r1, [r4, #44]	; 0x2c
10005618:	0032      	movs	r2, r6
1000561a:	003b      	movs	r3, r7
1000561c:	1a12      	subs	r2, r2, r0
1000561e:	418b      	sbcs	r3, r1
10005620:	2b00      	cmp	r3, #0
10005622:	dc28      	bgt.n	10005676 <process_under_lock+0xa2>
10005624:	d033      	beq.n	1000568e <process_under_lock+0xba>
10005626:	6c23      	ldr	r3, [r4, #64]	; 0x40
10005628:	2b00      	cmp	r3, #0
1000562a:	dd03      	ble.n	10005634 <process_under_lock+0x60>
1000562c:	6c21      	ldr	r1, [r4, #64]	; 0x40
1000562e:	6a20      	ldr	r0, [r4, #32]
10005630:	f7ff f9f6 	bl	10004a20 <alarm_pool_cancel_alarm>
10005634:	2301      	movs	r3, #1
10005636:	62a6      	str	r6, [r4, #40]	; 0x28
10005638:	62e7      	str	r7, [r4, #44]	; 0x2c
1000563a:	5563      	strb	r3, [r4, r5]
1000563c:	2300      	movs	r3, #0
1000563e:	9302      	str	r3, [sp, #8]
10005640:	464b      	mov	r3, r9
10005642:	0032      	movs	r2, r6
10005644:	9300      	str	r3, [sp, #0]
10005646:	6a20      	ldr	r0, [r4, #32]
10005648:	003b      	movs	r3, r7
1000564a:	9401      	str	r4, [sp, #4]
1000564c:	f7ff f92a 	bl	100048a4 <alarm_pool_add_alarm_at>
10005650:	6420      	str	r0, [r4, #64]	; 0x40
10005652:	6c23      	ldr	r3, [r4, #64]	; 0x40
10005654:	2b00      	cmp	r3, #0
10005656:	dc0e      	bgt.n	10005676 <process_under_lock+0xa2>
10005658:	2300      	movs	r3, #0
1000565a:	5563      	strb	r3, [r4, r5]
1000565c:	e7c8      	b.n	100055f0 <process_under_lock+0x1c>
1000565e:	2b00      	cmp	r3, #0
10005660:	d1c6      	bne.n	100055f0 <process_under_lock+0x1c>
10005662:	2a00      	cmp	r2, #0
10005664:	d0c4      	beq.n	100055f0 <process_under_lock+0x1c>
10005666:	4546      	cmp	r6, r8
10005668:	d1d1      	bne.n	1000560e <process_under_lock+0x3a>
1000566a:	9b05      	ldr	r3, [sp, #20]
1000566c:	429f      	cmp	r7, r3
1000566e:	d1ce      	bne.n	1000560e <process_under_lock+0x3a>
10005670:	6c23      	ldr	r3, [r4, #64]	; 0x40
10005672:	2b00      	cmp	r3, #0
10005674:	dc04      	bgt.n	10005680 <process_under_lock+0xac>
10005676:	b007      	add	sp, #28
10005678:	bcc0      	pop	{r6, r7}
1000567a:	46b9      	mov	r9, r7
1000567c:	46b0      	mov	r8, r6
1000567e:	bdf0      	pop	{r4, r5, r6, r7, pc}
10005680:	6c21      	ldr	r1, [r4, #64]	; 0x40
10005682:	6a20      	ldr	r0, [r4, #32]
10005684:	f7ff f9cc 	bl	10004a20 <alarm_pool_cancel_alarm>
10005688:	2300      	movs	r3, #0
1000568a:	6423      	str	r3, [r4, #64]	; 0x40
1000568c:	e7f3      	b.n	10005676 <process_under_lock+0xa2>
1000568e:	2a00      	cmp	r2, #0
10005690:	d0c9      	beq.n	10005626 <process_under_lock+0x52>
10005692:	e7f0      	b.n	10005676 <process_under_lock+0xa2>
10005694:	100420c8 	.word	0x100420c8
10005698:	10005599 	.word	0x10005599

1000569c <async_context_threadsafe_background_execute_sync>:
1000569c:	b5f8      	push	{r3, r4, r5, r6, r7, lr}
1000569e:	0006      	movs	r6, r0
100056a0:	0017      	movs	r7, r2
100056a2:	3630      	adds	r6, #48	; 0x30
100056a4:	0004      	movs	r4, r0
100056a6:	0030      	movs	r0, r6
100056a8:	000d      	movs	r5, r1
100056aa:	f005 f875 	bl	1000a798 <__recursive_mutex_enter_blocking_veneer>
100056ae:	0038      	movs	r0, r7
100056b0:	47a8      	blx	r5
100056b2:	7973      	ldrb	r3, [r6, #5]
100056b4:	0005      	movs	r5, r0
100056b6:	2b01      	cmp	r3, #1
100056b8:	d004      	beq.n	100056c4 <async_context_threadsafe_background_execute_sync+0x28>
100056ba:	0030      	movs	r0, r6
100056bc:	f005 f89c 	bl	1000a7f8 <__recursive_mutex_exit_veneer>
100056c0:	0028      	movs	r0, r5
100056c2:	bdf8      	pop	{r3, r4, r5, r6, r7, pc}
100056c4:	0020      	movs	r0, r4
100056c6:	f7ff ff85 	bl	100055d4 <process_under_lock>
100056ca:	e7f6      	b.n	100056ba <async_context_threadsafe_background_execute_sync+0x1e>

100056cc <async_context_threadsafe_background_deinit>:
100056cc:	b570      	push	{r4, r5, r6, lr}
100056ce:	2544      	movs	r5, #68	; 0x44
100056d0:	0004      	movs	r4, r0
100056d2:	5d40      	ldrb	r0, [r0, r5]
100056d4:	2800      	cmp	r0, #0
100056d6:	d114      	bne.n	10005702 <async_context_threadsafe_background_deinit+0x36>
100056d8:	6c23      	ldr	r3, [r4, #64]	; 0x40
100056da:	2b00      	cmp	r3, #0
100056dc:	dd03      	ble.n	100056e6 <async_context_threadsafe_background_deinit+0x1a>
100056de:	6c21      	ldr	r1, [r4, #64]	; 0x40
100056e0:	6a20      	ldr	r0, [r4, #32]
100056e2:	f7ff f99d 	bl	10004a20 <alarm_pool_cancel_alarm>
100056e6:	0025      	movs	r5, r4
100056e8:	3530      	adds	r5, #48	; 0x30
100056ea:	0028      	movs	r0, r5
100056ec:	f005 f854 	bl	1000a798 <__recursive_mutex_enter_blocking_veneer>
100056f0:	0028      	movs	r0, r5
100056f2:	f005 f881 	bl	1000a7f8 <__recursive_mutex_exit_veneer>
100056f6:	2248      	movs	r2, #72	; 0x48
100056f8:	2100      	movs	r1, #0
100056fa:	0020      	movs	r0, r4
100056fc:	f002 fbf0 	bl	10007ee0 <__wrap_memset>
10005700:	bd70      	pop	{r4, r5, r6, pc}
10005702:	2100      	movs	r1, #0
10005704:	f7fe fbec 	bl	10003ee0 <irq_set_enabled>
10005708:	5d60      	ldrb	r0, [r4, r5]
1000570a:	4904      	ldr	r1, [pc, #16]	; (1000571c <async_context_threadsafe_background_deinit+0x50>)
1000570c:	f7fe fd3e 	bl	1000418c <irq_remove_handler>
10005710:	5d60      	ldrb	r0, [r4, r5]
10005712:	f7fe fe93 	bl	1000443c <user_irq_unclaim>
10005716:	2300      	movs	r3, #0
10005718:	5563      	strb	r3, [r4, r5]
1000571a:	e7dd      	b.n	100056d8 <async_context_threadsafe_background_deinit+0xc>
1000571c:	10005721 	.word	0x10005721

10005720 <low_priority_irq_handler>:
10005720:	4a0d      	ldr	r2, [pc, #52]	; (10005758 <low_priority_irq_handler+0x38>)
10005722:	f3ef 8305 	mrs	r3, IPSR
10005726:	3b2a      	subs	r3, #42	; 0x2a
10005728:	009b      	lsls	r3, r3, #2
1000572a:	b570      	push	{r4, r5, r6, lr}
1000572c:	589c      	ldr	r4, [r3, r2]
1000572e:	2c00      	cmp	r4, #0
10005730:	d00d      	beq.n	1000574e <low_priority_irq_handler+0x2e>
10005732:	0025      	movs	r5, r4
10005734:	3530      	adds	r5, #48	; 0x30
10005736:	2100      	movs	r1, #0
10005738:	0028      	movs	r0, r5
1000573a:	f005 f81d 	bl	1000a778 <__recursive_mutex_try_enter_veneer>
1000573e:	2800      	cmp	r0, #0
10005740:	d005      	beq.n	1000574e <low_priority_irq_handler+0x2e>
10005742:	796b      	ldrb	r3, [r5, #5]
10005744:	2b01      	cmp	r3, #1
10005746:	d003      	beq.n	10005750 <low_priority_irq_handler+0x30>
10005748:	0028      	movs	r0, r5
1000574a:	f005 f855 	bl	1000a7f8 <__recursive_mutex_exit_veneer>
1000574e:	bd70      	pop	{r4, r5, r6, pc}
10005750:	0020      	movs	r0, r4
10005752:	f7ff ff3f 	bl	100055d4 <process_under_lock>
10005756:	e7f7      	b.n	10005748 <low_priority_irq_handler+0x28>
10005758:	20001864 	.word	0x20001864

1000575c <async_context_threadsafe_background_wait_for_work_until>:
1000575c:	b510      	push	{r4, lr}
1000575e:	3038      	adds	r0, #56	; 0x38
10005760:	f005 f872 	bl	1000a848 <__sem_acquire_block_until_veneer>
10005764:	bd10      	pop	{r4, pc}
10005766:	46c0      	nop			; (mov r8, r8)

10005768 <async_context_threadsafe_background_wait_until>:
10005768:	0019      	movs	r1, r3
1000576a:	f3ef 8305 	mrs	r3, IPSR
1000576e:	0010      	movs	r0, r2
10005770:	b510      	push	{r4, lr}
10005772:	2b00      	cmp	r3, #0
10005774:	d002      	beq.n	1000577c <async_context_threadsafe_background_wait_until+0x14>
10005776:	f7ff fae5 	bl	10004d44 <busy_wait_until>
1000577a:	bd10      	pop	{r4, pc}
1000577c:	f7ff f98c 	bl	10004a98 <sleep_until>
10005780:	e7fb      	b.n	1000577a <async_context_threadsafe_background_wait_until+0x12>
10005782:	46c0      	nop			; (mov r8, r8)

10005784 <async_context_threadsafe_background_lock_check>:
10005784:	b510      	push	{r4, lr}
10005786:	3030      	adds	r0, #48	; 0x30
10005788:	7943      	ldrb	r3, [r0, #5]
1000578a:	2b00      	cmp	r3, #0
1000578c:	d008      	beq.n	100057a0 <async_context_threadsafe_background_lock_check+0x1c>
1000578e:	23d0      	movs	r3, #208	; 0xd0
10005790:	2200      	movs	r2, #0
10005792:	061b      	lsls	r3, r3, #24
10005794:	569a      	ldrsb	r2, [r3, r2]
10005796:	2304      	movs	r3, #4
10005798:	56c3      	ldrsb	r3, [r0, r3]
1000579a:	429a      	cmp	r2, r3
1000579c:	d100      	bne.n	100057a0 <async_context_threadsafe_background_lock_check+0x1c>
1000579e:	bd10      	pop	{r4, pc}
100057a0:	4801      	ldr	r0, [pc, #4]	; (100057a8 <async_context_threadsafe_background_lock_check+0x24>)
100057a2:	f000 fc99 	bl	100060d8 <panic>
100057a6:	46c0      	nop			; (mov r8, r8)
100057a8:	10042134 	.word	0x10042134

100057ac <async_context_threadsafe_background_release_lock>:
100057ac:	b510      	push	{r4, lr}
100057ae:	0004      	movs	r4, r0
100057b0:	3430      	adds	r4, #48	; 0x30
100057b2:	7963      	ldrb	r3, [r4, #5]
100057b4:	2b01      	cmp	r3, #1
100057b6:	d003      	beq.n	100057c0 <async_context_threadsafe_background_release_lock+0x14>
100057b8:	0020      	movs	r0, r4
100057ba:	f005 f81d 	bl	1000a7f8 <__recursive_mutex_exit_veneer>
100057be:	bd10      	pop	{r4, pc}
100057c0:	f7ff ff08 	bl	100055d4 <process_under_lock>
100057c4:	e7f8      	b.n	100057b8 <async_context_threadsafe_background_release_lock+0xc>
100057c6:	46c0      	nop			; (mov r8, r8)

100057c8 <async_context_threadsafe_background_when_pending_worker>:
100057c8:	b570      	push	{r4, r5, r6, lr}
100057ca:	0006      	movs	r6, r0
100057cc:	000d      	movs	r5, r1
100057ce:	0004      	movs	r4, r0
100057d0:	3630      	adds	r6, #48	; 0x30
100057d2:	0030      	movs	r0, r6
100057d4:	f004 ffe0 	bl	1000a798 <__recursive_mutex_enter_blocking_veneer>
100057d8:	0029      	movs	r1, r5
100057da:	0020      	movs	r0, r4
100057dc:	f000 f8e2 	bl	100059a4 <async_context_base_remove_when_pending_worker>
100057e0:	7973      	ldrb	r3, [r6, #5]
100057e2:	0005      	movs	r5, r0
100057e4:	2b01      	cmp	r3, #1
100057e6:	d004      	beq.n	100057f2 <async_context_threadsafe_background_when_pending_worker+0x2a>
100057e8:	0030      	movs	r0, r6
100057ea:	f005 f805 	bl	1000a7f8 <__recursive_mutex_exit_veneer>
100057ee:	0028      	movs	r0, r5
100057f0:	bd70      	pop	{r4, r5, r6, pc}
100057f2:	0020      	movs	r0, r4
100057f4:	f7ff feee 	bl	100055d4 <process_under_lock>
100057f8:	e7f6      	b.n	100057e8 <async_context_threadsafe_background_when_pending_worker+0x20>
100057fa:	46c0      	nop			; (mov r8, r8)

100057fc <async_context_threadsafe_background_remove_at_time_worker>:
100057fc:	b570      	push	{r4, r5, r6, lr}
100057fe:	0006      	movs	r6, r0
10005800:	000d      	movs	r5, r1
10005802:	0004      	movs	r4, r0
10005804:	3630      	adds	r6, #48	; 0x30
10005806:	0030      	movs	r0, r6
10005808:	f004 ffc6 	bl	1000a798 <__recursive_mutex_enter_blocking_veneer>
1000580c:	0029      	movs	r1, r5
1000580e:	0020      	movs	r0, r4
10005810:	f000 f8a2 	bl	10005958 <async_context_base_remove_at_time_worker>
10005814:	7973      	ldrb	r3, [r6, #5]
10005816:	0005      	movs	r5, r0
10005818:	2b01      	cmp	r3, #1
1000581a:	d004      	beq.n	10005826 <async_context_threadsafe_background_remove_at_time_worker+0x2a>
1000581c:	0030      	movs	r0, r6
1000581e:	f004 ffeb 	bl	1000a7f8 <__recursive_mutex_exit_veneer>
10005822:	0028      	movs	r0, r5
10005824:	bd70      	pop	{r4, r5, r6, pc}
10005826:	0020      	movs	r0, r4
10005828:	f7ff fed4 	bl	100055d4 <process_under_lock>
1000582c:	e7f6      	b.n	1000581c <async_context_threadsafe_background_remove_at_time_worker+0x20>
1000582e:	46c0      	nop			; (mov r8, r8)

10005830 <async_context_threadsafe_background_add_when_pending_worker>:
10005830:	b570      	push	{r4, r5, r6, lr}
10005832:	0006      	movs	r6, r0
10005834:	000d      	movs	r5, r1
10005836:	0004      	movs	r4, r0
10005838:	3630      	adds	r6, #48	; 0x30
1000583a:	0030      	movs	r0, r6
1000583c:	f004 ffac 	bl	1000a798 <__recursive_mutex_enter_blocking_veneer>
10005840:	0029      	movs	r1, r5
10005842:	0020      	movs	r0, r4
10005844:	f000 f89c 	bl	10005980 <async_context_base_add_when_pending_worker>
10005848:	7973      	ldrb	r3, [r6, #5]
1000584a:	0005      	movs	r5, r0
1000584c:	2b01      	cmp	r3, #1
1000584e:	d004      	beq.n	1000585a <async_context_threadsafe_background_add_when_pending_worker+0x2a>
10005850:	0030      	movs	r0, r6
10005852:	f004 ffd1 	bl	1000a7f8 <__recursive_mutex_exit_veneer>
10005856:	0028      	movs	r0, r5
10005858:	bd70      	pop	{r4, r5, r6, pc}
1000585a:	0020      	movs	r0, r4
1000585c:	f7ff feba 	bl	100055d4 <process_under_lock>
10005860:	e7f6      	b.n	10005850 <async_context_threadsafe_background_add_when_pending_worker+0x20>
10005862:	46c0      	nop			; (mov r8, r8)

10005864 <async_context_threadsafe_background_add_at_time_worker>:
10005864:	b570      	push	{r4, r5, r6, lr}
10005866:	0006      	movs	r6, r0
10005868:	000d      	movs	r5, r1
1000586a:	0004      	movs	r4, r0
1000586c:	3630      	adds	r6, #48	; 0x30
1000586e:	0030      	movs	r0, r6
10005870:	f004 ff92 	bl	1000a798 <__recursive_mutex_enter_blocking_veneer>
10005874:	0029      	movs	r1, r5
10005876:	0020      	movs	r0, r4
10005878:	f000 f85a 	bl	10005930 <async_context_base_add_at_time_worker>
1000587c:	7973      	ldrb	r3, [r6, #5]
1000587e:	0005      	movs	r5, r0
10005880:	2b01      	cmp	r3, #1
10005882:	d004      	beq.n	1000588e <async_context_threadsafe_background_add_at_time_worker+0x2a>
10005884:	0030      	movs	r0, r6
10005886:	f004 ffb7 	bl	1000a7f8 <__recursive_mutex_exit_veneer>
1000588a:	0028      	movs	r0, r5
1000588c:	bd70      	pop	{r4, r5, r6, pc}
1000588e:	0020      	movs	r0, r4
10005890:	f7ff fea0 	bl	100055d4 <process_under_lock>
10005894:	e7f6      	b.n	10005884 <async_context_threadsafe_background_add_at_time_worker+0x20>
10005896:	46c0      	nop			; (mov r8, r8)

10005898 <async_context_threadsafe_background_default_config>:
10005898:	23ff      	movs	r3, #255	; 0xff
1000589a:	7003      	strb	r3, [r0, #0]
1000589c:	2300      	movs	r3, #0
1000589e:	6043      	str	r3, [r0, #4]
100058a0:	4770      	bx	lr
100058a2:	46c0      	nop			; (mov r8, r8)

100058a4 <async_context_threadsafe_background_init>:
100058a4:	b570      	push	{r4, r5, r6, lr}
100058a6:	0004      	movs	r4, r0
100058a8:	000d      	movs	r5, r1
100058aa:	2244      	movs	r2, #68	; 0x44
100058ac:	2100      	movs	r1, #0
100058ae:	3004      	adds	r0, #4
100058b0:	f002 fb16 	bl	10007ee0 <__wrap_memset>
100058b4:	4b1b      	ldr	r3, [pc, #108]	; (10005924 <async_context_threadsafe_background_init+0x80>)
100058b6:	6023      	str	r3, [r4, #0]
100058b8:	2303      	movs	r3, #3
100058ba:	8323      	strh	r3, [r4, #24]
100058bc:	23d0      	movs	r3, #208	; 0xd0
100058be:	061b      	lsls	r3, r3, #24
100058c0:	681b      	ldr	r3, [r3, #0]
100058c2:	76a3      	strb	r3, [r4, #26]
100058c4:	686b      	ldr	r3, [r5, #4]
100058c6:	2b00      	cmp	r3, #0
100058c8:	d028      	beq.n	1000591c <async_context_threadsafe_background_init+0x78>
100058ca:	6223      	str	r3, [r4, #32]
100058cc:	0020      	movs	r0, r4
100058ce:	2201      	movs	r2, #1
100058d0:	2101      	movs	r1, #1
100058d2:	3038      	adds	r0, #56	; 0x38
100058d4:	f7fe fdd0 	bl	10004478 <sem_init>
100058d8:	0020      	movs	r0, r4
100058da:	3030      	adds	r0, #48	; 0x30
100058dc:	f7fe fdf2 	bl	100044c4 <recursive_mutex_init>
100058e0:	2000      	movs	r0, #0
100058e2:	782e      	ldrb	r6, [r5, #0]
100058e4:	f7fe fdb4 	bl	10004450 <user_irq_claim_unused>
100058e8:	0003      	movs	r3, r0
100058ea:	2000      	movs	r0, #0
100058ec:	2b00      	cmp	r3, #0
100058ee:	db14      	blt.n	1000591a <async_context_threadsafe_background_init+0x76>
100058f0:	001a      	movs	r2, r3
100058f2:	2544      	movs	r5, #68	; 0x44
100058f4:	490c      	ldr	r1, [pc, #48]	; (10005928 <async_context_threadsafe_background_init+0x84>)
100058f6:	3a1a      	subs	r2, #26
100058f8:	0092      	lsls	r2, r2, #2
100058fa:	30ff      	adds	r0, #255	; 0xff
100058fc:	5054      	str	r4, [r2, r1]
100058fe:	4018      	ands	r0, r3
10005900:	5563      	strb	r3, [r4, r5]
10005902:	490a      	ldr	r1, [pc, #40]	; (1000592c <async_context_threadsafe_background_init+0x88>)
10005904:	f7fe fb24 	bl	10003f50 <irq_set_exclusive_handler>
10005908:	2101      	movs	r1, #1
1000590a:	5d60      	ldrb	r0, [r4, r5]
1000590c:	f7fe fae8 	bl	10003ee0 <irq_set_enabled>
10005910:	5d60      	ldrb	r0, [r4, r5]
10005912:	0031      	movs	r1, r6
10005914:	f7fe fd12 	bl	1000433c <irq_set_priority>
10005918:	2001      	movs	r0, #1
1000591a:	bd70      	pop	{r4, r5, r6, pc}
1000591c:	f7fe ffbe 	bl	1000489c <alarm_pool_get_default>
10005920:	6220      	str	r0, [r4, #32]
10005922:	e7d3      	b.n	100058cc <async_context_threadsafe_background_init+0x28>
10005924:	10042154 	.word	0x10042154
10005928:	20001864 	.word	0x20001864
1000592c:	10005721 	.word	0x10005721

10005930 <async_context_base_add_at_time_worker>:
10005930:	0002      	movs	r2, r0
10005932:	6883      	ldr	r3, [r0, #8]
10005934:	3208      	adds	r2, #8
10005936:	2b00      	cmp	r3, #0
10005938:	d104      	bne.n	10005944 <async_context_base_add_at_time_worker+0x14>
1000593a:	e007      	b.n	1000594c <async_context_base_add_at_time_worker+0x1c>
1000593c:	001a      	movs	r2, r3
1000593e:	681b      	ldr	r3, [r3, #0]
10005940:	2b00      	cmp	r3, #0
10005942:	d003      	beq.n	1000594c <async_context_base_add_at_time_worker+0x1c>
10005944:	4299      	cmp	r1, r3
10005946:	d1f9      	bne.n	1000593c <async_context_base_add_at_time_worker+0xc>
10005948:	2000      	movs	r0, #0
1000594a:	e003      	b.n	10005954 <async_context_base_add_at_time_worker+0x24>
1000594c:	2300      	movs	r3, #0
1000594e:	2001      	movs	r0, #1
10005950:	6011      	str	r1, [r2, #0]
10005952:	600b      	str	r3, [r1, #0]
10005954:	4770      	bx	lr
10005956:	46c0      	nop			; (mov r8, r8)

10005958 <async_context_base_remove_at_time_worker>:
10005958:	6883      	ldr	r3, [r0, #8]
1000595a:	2b00      	cmp	r3, #0
1000595c:	d008      	beq.n	10005970 <async_context_base_remove_at_time_worker+0x18>
1000595e:	4299      	cmp	r1, r3
10005960:	d102      	bne.n	10005968 <async_context_base_remove_at_time_worker+0x10>
10005962:	e007      	b.n	10005974 <async_context_base_remove_at_time_worker+0x1c>
10005964:	4299      	cmp	r1, r3
10005966:	d007      	beq.n	10005978 <async_context_base_remove_at_time_worker+0x20>
10005968:	001a      	movs	r2, r3
1000596a:	681b      	ldr	r3, [r3, #0]
1000596c:	2b00      	cmp	r3, #0
1000596e:	d1f9      	bne.n	10005964 <async_context_base_remove_at_time_worker+0xc>
10005970:	2000      	movs	r0, #0
10005972:	4770      	bx	lr
10005974:	0002      	movs	r2, r0
10005976:	3208      	adds	r2, #8
10005978:	680b      	ldr	r3, [r1, #0]
1000597a:	2001      	movs	r0, #1
1000597c:	6013      	str	r3, [r2, #0]
1000597e:	e7f8      	b.n	10005972 <async_context_base_remove_at_time_worker+0x1a>

10005980 <async_context_base_add_when_pending_worker>:
10005980:	6843      	ldr	r3, [r0, #4]
10005982:	1d02      	adds	r2, r0, #4
10005984:	2b00      	cmp	r3, #0
10005986:	d104      	bne.n	10005992 <async_context_base_add_when_pending_worker+0x12>
10005988:	e007      	b.n	1000599a <async_context_base_add_when_pending_worker+0x1a>
1000598a:	001a      	movs	r2, r3
1000598c:	681b      	ldr	r3, [r3, #0]
1000598e:	2b00      	cmp	r3, #0
10005990:	d003      	beq.n	1000599a <async_context_base_add_when_pending_worker+0x1a>
10005992:	4299      	cmp	r1, r3
10005994:	d1f9      	bne.n	1000598a <async_context_base_add_when_pending_worker+0xa>
10005996:	2000      	movs	r0, #0
10005998:	e003      	b.n	100059a2 <async_context_base_add_when_pending_worker+0x22>
1000599a:	2300      	movs	r3, #0
1000599c:	2001      	movs	r0, #1
1000599e:	6011      	str	r1, [r2, #0]
100059a0:	600b      	str	r3, [r1, #0]
100059a2:	4770      	bx	lr

100059a4 <async_context_base_remove_when_pending_worker>:
100059a4:	6843      	ldr	r3, [r0, #4]
100059a6:	2b00      	cmp	r3, #0
100059a8:	d008      	beq.n	100059bc <async_context_base_remove_when_pending_worker+0x18>
100059aa:	4299      	cmp	r1, r3
100059ac:	d102      	bne.n	100059b4 <async_context_base_remove_when_pending_worker+0x10>
100059ae:	e007      	b.n	100059c0 <async_context_base_remove_when_pending_worker+0x1c>
100059b0:	4299      	cmp	r1, r3
100059b2:	d006      	beq.n	100059c2 <async_context_base_remove_when_pending_worker+0x1e>
100059b4:	001a      	movs	r2, r3
100059b6:	681b      	ldr	r3, [r3, #0]
100059b8:	2b00      	cmp	r3, #0
100059ba:	d1f9      	bne.n	100059b0 <async_context_base_remove_when_pending_worker+0xc>
100059bc:	2000      	movs	r0, #0
100059be:	4770      	bx	lr
100059c0:	1d02      	adds	r2, r0, #4
100059c2:	680b      	ldr	r3, [r1, #0]
100059c4:	2001      	movs	r0, #1
100059c6:	6013      	str	r3, [r2, #0]
100059c8:	e7f9      	b.n	100059be <async_context_base_remove_when_pending_worker+0x1a>
100059ca:	46c0      	nop			; (mov r8, r8)

100059cc <async_context_base_execute_once>:
100059cc:	b5f8      	push	{r3, r4, r5, r6, r7, lr}
100059ce:	4647      	mov	r7, r8
100059d0:	46ce      	mov	lr, r9
100059d2:	6883      	ldr	r3, [r0, #8]
100059d4:	4680      	mov	r8, r0
100059d6:	b580      	push	{r7, lr}
100059d8:	2b00      	cmp	r3, #0
100059da:	d029      	beq.n	10005a30 <async_context_base_execute_once+0x64>
100059dc:	2308      	movs	r3, #8
100059de:	4443      	add	r3, r8
100059e0:	4699      	mov	r9, r3
100059e2:	f7ff f97b 	bl	10004cdc <time_us_64>
100059e6:	4643      	mov	r3, r8
100059e8:	689e      	ldr	r6, [r3, #8]
100059ea:	0004      	movs	r4, r0
100059ec:	000d      	movs	r5, r1
100059ee:	2e00      	cmp	r6, #0
100059f0:	d058      	beq.n	10005aa4 <async_context_base_execute_once+0xd8>
100059f2:	2300      	movs	r3, #0
100059f4:	464f      	mov	r7, r9
100059f6:	469c      	mov	ip, r3
100059f8:	68b2      	ldr	r2, [r6, #8]
100059fa:	68f3      	ldr	r3, [r6, #12]
100059fc:	0020      	movs	r0, r4
100059fe:	0029      	movs	r1, r5
10005a00:	1a80      	subs	r0, r0, r2
10005a02:	4199      	sbcs	r1, r3
10005a04:	2900      	cmp	r1, #0
10005a06:	db02      	blt.n	10005a0e <async_context_base_execute_once+0x42>
10005a08:	0014      	movs	r4, r2
10005a0a:	001d      	movs	r5, r3
10005a0c:	46bc      	mov	ip, r7
10005a0e:	0037      	movs	r7, r6
10005a10:	6836      	ldr	r6, [r6, #0]
10005a12:	2e00      	cmp	r6, #0
10005a14:	d1f0      	bne.n	100059f8 <async_context_base_execute_once+0x2c>
10005a16:	4663      	mov	r3, ip
10005a18:	2b00      	cmp	r3, #0
10005a1a:	d043      	beq.n	10005aa4 <async_context_base_execute_once+0xd8>
10005a1c:	6819      	ldr	r1, [r3, #0]
10005a1e:	4640      	mov	r0, r8
10005a20:	680a      	ldr	r2, [r1, #0]
10005a22:	601a      	str	r2, [r3, #0]
10005a24:	684b      	ldr	r3, [r1, #4]
10005a26:	4798      	blx	r3
10005a28:	4643      	mov	r3, r8
10005a2a:	689b      	ldr	r3, [r3, #8]
10005a2c:	2b00      	cmp	r3, #0
10005a2e:	d1d8      	bne.n	100059e2 <async_context_base_execute_once+0x16>
10005a30:	4643      	mov	r3, r8
10005a32:	685c      	ldr	r4, [r3, #4]
10005a34:	2c00      	cmp	r4, #0
10005a36:	d031      	beq.n	10005a9c <async_context_base_execute_once+0xd0>
10005a38:	2500      	movs	r5, #0
10005a3a:	7a23      	ldrb	r3, [r4, #8]
10005a3c:	2b00      	cmp	r3, #0
10005a3e:	d029      	beq.n	10005a94 <async_context_base_execute_once+0xc8>
10005a40:	0021      	movs	r1, r4
10005a42:	6863      	ldr	r3, [r4, #4]
10005a44:	7225      	strb	r5, [r4, #8]
10005a46:	4640      	mov	r0, r8
10005a48:	4798      	blx	r3
10005a4a:	6824      	ldr	r4, [r4, #0]
10005a4c:	2c00      	cmp	r4, #0
10005a4e:	d1f4      	bne.n	10005a3a <async_context_base_execute_once+0x6e>
10005a50:	4b17      	ldr	r3, [pc, #92]	; (10005ab0 <async_context_base_execute_once+0xe4>)
10005a52:	6818      	ldr	r0, [r3, #0]
10005a54:	6859      	ldr	r1, [r3, #4]
10005a56:	4643      	mov	r3, r8
10005a58:	689e      	ldr	r6, [r3, #8]
10005a5a:	2e00      	cmp	r6, #0
10005a5c:	d104      	bne.n	10005a68 <async_context_base_execute_once+0x9c>
10005a5e:	e012      	b.n	10005a86 <async_context_base_execute_once+0xba>
10005a60:	0020      	movs	r0, r4
10005a62:	0029      	movs	r1, r5
10005a64:	2e00      	cmp	r6, #0
10005a66:	d00e      	beq.n	10005a86 <async_context_base_execute_once+0xba>
10005a68:	0033      	movs	r3, r6
10005a6a:	0002      	movs	r2, r0
10005a6c:	689c      	ldr	r4, [r3, #8]
10005a6e:	68dd      	ldr	r5, [r3, #12]
10005a70:	000b      	movs	r3, r1
10005a72:	1b12      	subs	r2, r2, r4
10005a74:	41ab      	sbcs	r3, r5
10005a76:	6836      	ldr	r6, [r6, #0]
10005a78:	2b00      	cmp	r3, #0
10005a7a:	dcf1      	bgt.n	10005a60 <async_context_base_execute_once+0x94>
10005a7c:	d1f2      	bne.n	10005a64 <async_context_base_execute_once+0x98>
10005a7e:	2a00      	cmp	r2, #0
10005a80:	d1ee      	bne.n	10005a60 <async_context_base_execute_once+0x94>
10005a82:	2e00      	cmp	r6, #0
10005a84:	d1f0      	bne.n	10005a68 <async_context_base_execute_once+0x9c>
10005a86:	4643      	mov	r3, r8
10005a88:	6118      	str	r0, [r3, #16]
10005a8a:	6159      	str	r1, [r3, #20]
10005a8c:	bcc0      	pop	{r6, r7}
10005a8e:	46b9      	mov	r9, r7
10005a90:	46b0      	mov	r8, r6
10005a92:	bdf8      	pop	{r3, r4, r5, r6, r7, pc}
10005a94:	6824      	ldr	r4, [r4, #0]
10005a96:	2c00      	cmp	r4, #0
10005a98:	d1cf      	bne.n	10005a3a <async_context_base_execute_once+0x6e>
10005a9a:	e7d9      	b.n	10005a50 <async_context_base_execute_once+0x84>
10005a9c:	4b04      	ldr	r3, [pc, #16]	; (10005ab0 <async_context_base_execute_once+0xe4>)
10005a9e:	6818      	ldr	r0, [r3, #0]
10005aa0:	6859      	ldr	r1, [r3, #4]
10005aa2:	e7f0      	b.n	10005a86 <async_context_base_execute_once+0xba>
10005aa4:	4643      	mov	r3, r8
10005aa6:	685c      	ldr	r4, [r3, #4]
10005aa8:	2c00      	cmp	r4, #0
10005aaa:	d1c5      	bne.n	10005a38 <async_context_base_execute_once+0x6c>
10005aac:	e7d0      	b.n	10005a50 <async_context_base_execute_once+0x84>
10005aae:	46c0      	nop			; (mov r8, r8)
10005ab0:	100420c8 	.word	0x100420c8

10005ab4 <uart_init>:
10005ab4:	b5f8      	push	{r3, r4, r5, r6, r7, lr}
10005ab6:	0004      	movs	r4, r0
10005ab8:	2006      	movs	r0, #6
10005aba:	000d      	movs	r5, r1
10005abc:	f000 f9c8 	bl	10005e50 <clock_get_hz>
10005ac0:	2800      	cmp	r0, #0
10005ac2:	d044      	beq.n	10005b4e <uart_init+0x9a>
10005ac4:	4b2a      	ldr	r3, [pc, #168]	; (10005b70 <uart_init+0xbc>)
10005ac6:	492b      	ldr	r1, [pc, #172]	; (10005b74 <uart_init+0xc0>)
10005ac8:	18e2      	adds	r2, r4, r3
10005aca:	4253      	negs	r3, r2
10005acc:	415a      	adcs	r2, r3
10005ace:	2380      	movs	r3, #128	; 0x80
10005ad0:	03db      	lsls	r3, r3, #15
10005ad2:	469c      	mov	ip, r3
10005ad4:	0592      	lsls	r2, r2, #22
10005ad6:	4b28      	ldr	r3, [pc, #160]	; (10005b78 <uart_init+0xc4>)
10005ad8:	4462      	add	r2, ip
10005ada:	601a      	str	r2, [r3, #0]
10005adc:	4b27      	ldr	r3, [pc, #156]	; (10005b7c <uart_init+0xc8>)
10005ade:	601a      	str	r2, [r3, #0]
10005ae0:	0010      	movs	r0, r2
10005ae2:	688b      	ldr	r3, [r1, #8]
10005ae4:	4398      	bics	r0, r3
10005ae6:	d1fb      	bne.n	10005ae0 <uart_init+0x2c>
10005ae8:	4b21      	ldr	r3, [pc, #132]	; (10005b70 <uart_init+0xbc>)
10005aea:	2180      	movs	r1, #128	; 0x80
10005aec:	18e3      	adds	r3, r4, r3
10005aee:	425a      	negs	r2, r3
10005af0:	4153      	adcs	r3, r2
10005af2:	4a23      	ldr	r2, [pc, #140]	; (10005b80 <uart_init+0xcc>)
10005af4:	005b      	lsls	r3, r3, #1
10005af6:	0049      	lsls	r1, r1, #1
10005af8:	5299      	strh	r1, [r3, r2]
10005afa:	2006      	movs	r0, #6
10005afc:	f000 f9a8 	bl	10005e50 <clock_get_hz>
10005b00:	0029      	movs	r1, r5
10005b02:	00c0      	lsls	r0, r0, #3
10005b04:	f001 fe1e 	bl	10007744 <__wrap___aeabi_uidiv>
10005b08:	09c3      	lsrs	r3, r0, #7
10005b0a:	d121      	bne.n	10005b50 <uart_init+0x9c>
10005b0c:	2740      	movs	r7, #64	; 0x40
10005b0e:	2101      	movs	r1, #1
10005b10:	0026      	movs	r6, r4
10005b12:	2580      	movs	r5, #128	; 0x80
10005b14:	6261      	str	r1, [r4, #36]	; 0x24
10005b16:	62a3      	str	r3, [r4, #40]	; 0x28
10005b18:	2300      	movs	r3, #0
10005b1a:	362c      	adds	r6, #44	; 0x2c
10005b1c:	01ad      	lsls	r5, r5, #6
10005b1e:	4335      	orrs	r5, r6
10005b20:	602b      	str	r3, [r5, #0]
10005b22:	2006      	movs	r0, #6
10005b24:	f000 f994 	bl	10005e50 <clock_get_hz>
10005b28:	0039      	movs	r1, r7
10005b2a:	0080      	lsls	r0, r0, #2
10005b2c:	f001 fe0a 	bl	10007744 <__wrap___aeabi_uidiv>
10005b30:	2360      	movs	r3, #96	; 0x60
10005b32:	6ae2      	ldr	r2, [r4, #44]	; 0x2c
10005b34:	4053      	eors	r3, r2
10005b36:	226e      	movs	r2, #110	; 0x6e
10005b38:	401a      	ands	r2, r3
10005b3a:	2380      	movs	r3, #128	; 0x80
10005b3c:	015b      	lsls	r3, r3, #5
10005b3e:	4333      	orrs	r3, r6
10005b40:	601a      	str	r2, [r3, #0]
10005b42:	4b10      	ldr	r3, [pc, #64]	; (10005b84 <uart_init+0xd0>)
10005b44:	6323      	str	r3, [r4, #48]	; 0x30
10005b46:	2310      	movs	r3, #16
10005b48:	602b      	str	r3, [r5, #0]
10005b4a:	3b0d      	subs	r3, #13
10005b4c:	64a3      	str	r3, [r4, #72]	; 0x48
10005b4e:	bdf8      	pop	{r3, r4, r5, r6, r7, pc}
10005b50:	4a0d      	ldr	r2, [pc, #52]	; (10005b88 <uart_init+0xd4>)
10005b52:	4293      	cmp	r3, r2
10005b54:	d903      	bls.n	10005b5e <uart_init+0xaa>
10005b56:	2300      	movs	r3, #0
10005b58:	4f0c      	ldr	r7, [pc, #48]	; (10005b8c <uart_init+0xd8>)
10005b5a:	490d      	ldr	r1, [pc, #52]	; (10005b90 <uart_init+0xdc>)
10005b5c:	e7d8      	b.n	10005b10 <uart_init+0x5c>
10005b5e:	227f      	movs	r2, #127	; 0x7f
10005b60:	4010      	ands	r0, r2
10005b62:	3001      	adds	r0, #1
10005b64:	0840      	lsrs	r0, r0, #1
10005b66:	019f      	lsls	r7, r3, #6
10005b68:	0019      	movs	r1, r3
10005b6a:	183f      	adds	r7, r7, r0
10005b6c:	0003      	movs	r3, r0
10005b6e:	e7cf      	b.n	10005b10 <uart_init+0x5c>
10005b70:	bffc8000 	.word	0xbffc8000
10005b74:	4000c000 	.word	0x4000c000
10005b78:	4000e000 	.word	0x4000e000
10005b7c:	4000f000 	.word	0x4000f000
10005b80:	20002c60 	.word	0x20002c60
10005b84:	00000301 	.word	0x00000301
10005b88:	0000fffe 	.word	0x0000fffe
10005b8c:	003fffc0 	.word	0x003fffc0
10005b90:	0000ffff 	.word	0x0000ffff

10005b94 <clocks_init>:
10005b94:	b530      	push	{r4, r5, lr}
10005b96:	200c      	movs	r0, #12
10005b98:	b083      	sub	sp, #12
10005b9a:	f000 f9b7 	bl	10005f0c <watchdog_start_tick>
10005b9e:	f7fa fe1d 	bl	100007dc <running_on_fpga>
10005ba2:	2800      	cmp	r0, #0
10005ba4:	d00e      	beq.n	10005bc4 <clocks_init+0x30>
10005ba6:	4b94      	ldr	r3, [pc, #592]	; (10005df8 <clocks_init+0x264>)
10005ba8:	4a94      	ldr	r2, [pc, #592]	; (10005dfc <clocks_init+0x268>)
10005baa:	601a      	str	r2, [r3, #0]
10005bac:	605a      	str	r2, [r3, #4]
10005bae:	609a      	str	r2, [r3, #8]
10005bb0:	60da      	str	r2, [r3, #12]
10005bb2:	611a      	str	r2, [r3, #16]
10005bb4:	615a      	str	r2, [r3, #20]
10005bb6:	619a      	str	r2, [r3, #24]
10005bb8:	61da      	str	r2, [r3, #28]
10005bba:	621a      	str	r2, [r3, #32]
10005bbc:	4a90      	ldr	r2, [pc, #576]	; (10005e00 <clocks_init+0x26c>)
10005bbe:	625a      	str	r2, [r3, #36]	; 0x24
10005bc0:	b003      	add	sp, #12
10005bc2:	bd30      	pop	{r4, r5, pc}
10005bc4:	4c8f      	ldr	r4, [pc, #572]	; (10005e04 <clocks_init+0x270>)
10005bc6:	67a0      	str	r0, [r4, #120]	; 0x78
10005bc8:	f000 f9f4 	bl	10005fb4 <xosc_init>
10005bcc:	2201      	movs	r2, #1
10005bce:	4b8e      	ldr	r3, [pc, #568]	; (10005e08 <clocks_init+0x274>)
10005bd0:	601a      	str	r2, [r3, #0]
10005bd2:	6c63      	ldr	r3, [r4, #68]	; 0x44
10005bd4:	2b01      	cmp	r3, #1
10005bd6:	d1fc      	bne.n	10005bd2 <clocks_init+0x3e>
10005bd8:	2203      	movs	r2, #3
10005bda:	4b8c      	ldr	r3, [pc, #560]	; (10005e0c <clocks_init+0x278>)
10005bdc:	601a      	str	r2, [r3, #0]
10005bde:	4a89      	ldr	r2, [pc, #548]	; (10005e04 <clocks_init+0x270>)
10005be0:	6b93      	ldr	r3, [r2, #56]	; 0x38
10005be2:	2b01      	cmp	r3, #1
10005be4:	d1fc      	bne.n	10005be0 <clocks_init+0x4c>
10005be6:	3301      	adds	r3, #1
10005be8:	2101      	movs	r1, #1
10005bea:	4a89      	ldr	r2, [pc, #548]	; (10005e10 <clocks_init+0x27c>)
10005bec:	4889      	ldr	r0, [pc, #548]	; (10005e14 <clocks_init+0x280>)
10005bee:	9300      	str	r3, [sp, #0]
10005bf0:	3304      	adds	r3, #4
10005bf2:	f000 f933 	bl	10005e5c <pll_init>
10005bf6:	2305      	movs	r3, #5
10005bf8:	4a87      	ldr	r2, [pc, #540]	; (10005e18 <clocks_init+0x284>)
10005bfa:	9300      	str	r3, [sp, #0]
10005bfc:	2101      	movs	r1, #1
10005bfe:	4887      	ldr	r0, [pc, #540]	; (10005e1c <clocks_init+0x288>)
10005c00:	f000 f92c 	bl	10005e5c <pll_init>
10005c04:	4b86      	ldr	r3, [pc, #536]	; (10005e20 <clocks_init+0x28c>)
10005c06:	685a      	ldr	r2, [r3, #4]
10005c08:	2aff      	cmp	r2, #255	; 0xff
10005c0a:	d802      	bhi.n	10005c12 <clocks_init+0x7e>
10005c0c:	2280      	movs	r2, #128	; 0x80
10005c0e:	0052      	lsls	r2, r2, #1
10005c10:	605a      	str	r2, [r3, #4]
10005c12:	2280      	movs	r2, #128	; 0x80
10005c14:	4c78      	ldr	r4, [pc, #480]	; (10005df8 <clocks_init+0x264>)
10005c16:	4b7d      	ldr	r3, [pc, #500]	; (10005e0c <clocks_init+0x278>)
10005c18:	6921      	ldr	r1, [r4, #16]
10005c1a:	0112      	lsls	r2, r2, #4
10005c1c:	4d80      	ldr	r5, [pc, #512]	; (10005e20 <clocks_init+0x28c>)
10005c1e:	601a      	str	r2, [r3, #0]
10005c20:	2900      	cmp	r1, #0
10005c22:	d005      	beq.n	10005c30 <clocks_init+0x9c>
10005c24:	6960      	ldr	r0, [r4, #20]
10005c26:	f001 fd8d 	bl	10007744 <__wrap___aeabi_uidiv>
10005c2a:	3001      	adds	r0, #1
10005c2c:	3801      	subs	r0, #1
10005c2e:	d1fd      	bne.n	10005c2c <clocks_init+0x98>
10005c30:	21e0      	movs	r1, #224	; 0xe0
10005c32:	4b7b      	ldr	r3, [pc, #492]	; (10005e20 <clocks_init+0x28c>)
10005c34:	2002      	movs	r0, #2
10005c36:	681a      	ldr	r2, [r3, #0]
10005c38:	4011      	ands	r1, r2
10005c3a:	2280      	movs	r2, #128	; 0x80
10005c3c:	0152      	lsls	r2, r2, #5
10005c3e:	432a      	orrs	r2, r5
10005c40:	6011      	str	r1, [r2, #0]
10005c42:	6819      	ldr	r1, [r3, #0]
10005c44:	4048      	eors	r0, r1
10005c46:	2103      	movs	r1, #3
10005c48:	4001      	ands	r1, r0
10005c4a:	6011      	str	r1, [r2, #0]
10005c4c:	2104      	movs	r1, #4
10005c4e:	689a      	ldr	r2, [r3, #8]
10005c50:	4211      	tst	r1, r2
10005c52:	d0fc      	beq.n	10005c4e <clocks_init+0xba>
10005c54:	2280      	movs	r2, #128	; 0x80
10005c56:	2180      	movs	r1, #128	; 0x80
10005c58:	0192      	lsls	r2, r2, #6
10005c5a:	432a      	orrs	r2, r5
10005c5c:	0109      	lsls	r1, r1, #4
10005c5e:	6011      	str	r1, [r2, #0]
10005c60:	2280      	movs	r2, #128	; 0x80
10005c62:	0052      	lsls	r2, r2, #1
10005c64:	605a      	str	r2, [r3, #4]
10005c66:	4b6f      	ldr	r3, [pc, #444]	; (10005e24 <clocks_init+0x290>)
10005c68:	6123      	str	r3, [r4, #16]
10005c6a:	4b6f      	ldr	r3, [pc, #444]	; (10005e28 <clocks_init+0x294>)
10005c6c:	6859      	ldr	r1, [r3, #4]
10005c6e:	29ff      	cmp	r1, #255	; 0xff
10005c70:	d800      	bhi.n	10005c74 <clocks_init+0xe0>
10005c72:	605a      	str	r2, [r3, #4]
10005c74:	2103      	movs	r1, #3
10005c76:	4a64      	ldr	r2, [pc, #400]	; (10005e08 <clocks_init+0x274>)
10005c78:	4b6b      	ldr	r3, [pc, #428]	; (10005e28 <clocks_init+0x294>)
10005c7a:	6011      	str	r1, [r2, #0]
10005c7c:	3902      	subs	r1, #2
10005c7e:	689a      	ldr	r2, [r3, #8]
10005c80:	4211      	tst	r1, r2
10005c82:	d0fc      	beq.n	10005c7e <clocks_init+0xea>
10005c84:	20e0      	movs	r0, #224	; 0xe0
10005c86:	681a      	ldr	r2, [r3, #0]
10005c88:	4010      	ands	r0, r2
10005c8a:	2280      	movs	r2, #128	; 0x80
10005c8c:	0152      	lsls	r2, r2, #5
10005c8e:	431a      	orrs	r2, r3
10005c90:	6010      	str	r0, [r2, #0]
10005c92:	6818      	ldr	r0, [r3, #0]
10005c94:	4048      	eors	r0, r1
10005c96:	2103      	movs	r1, #3
10005c98:	4001      	ands	r1, r0
10005c9a:	2002      	movs	r0, #2
10005c9c:	6011      	str	r1, [r2, #0]
10005c9e:	4962      	ldr	r1, [pc, #392]	; (10005e28 <clocks_init+0x294>)
10005ca0:	688a      	ldr	r2, [r1, #8]
10005ca2:	4210      	tst	r0, r2
10005ca4:	d0fc      	beq.n	10005ca0 <clocks_init+0x10c>
10005ca6:	2280      	movs	r2, #128	; 0x80
10005ca8:	0192      	lsls	r2, r2, #6
10005caa:	4313      	orrs	r3, r2
10005cac:	2280      	movs	r2, #128	; 0x80
10005cae:	0112      	lsls	r2, r2, #4
10005cb0:	601a      	str	r2, [r3, #0]
10005cb2:	2280      	movs	r2, #128	; 0x80
10005cb4:	4b5d      	ldr	r3, [pc, #372]	; (10005e2c <clocks_init+0x298>)
10005cb6:	0052      	lsls	r2, r2, #1
10005cb8:	604a      	str	r2, [r1, #4]
10005cba:	6163      	str	r3, [r4, #20]
10005cbc:	4b5c      	ldr	r3, [pc, #368]	; (10005e30 <clocks_init+0x29c>)
10005cbe:	6859      	ldr	r1, [r3, #4]
10005cc0:	29ff      	cmp	r1, #255	; 0xff
10005cc2:	d800      	bhi.n	10005cc6 <clocks_init+0x132>
10005cc4:	605a      	str	r2, [r3, #4]
10005cc6:	2280      	movs	r2, #128	; 0x80
10005cc8:	4b5a      	ldr	r3, [pc, #360]	; (10005e34 <clocks_init+0x2a0>)
10005cca:	69e1      	ldr	r1, [r4, #28]
10005ccc:	0112      	lsls	r2, r2, #4
10005cce:	4d58      	ldr	r5, [pc, #352]	; (10005e30 <clocks_init+0x29c>)
10005cd0:	601a      	str	r2, [r3, #0]
10005cd2:	2900      	cmp	r1, #0
10005cd4:	d005      	beq.n	10005ce2 <clocks_init+0x14e>
10005cd6:	6960      	ldr	r0, [r4, #20]
10005cd8:	f001 fd34 	bl	10007744 <__wrap___aeabi_uidiv>
10005cdc:	3001      	adds	r0, #1
10005cde:	3801      	subs	r0, #1
10005ce0:	d1fd      	bne.n	10005cde <clocks_init+0x14a>
10005ce2:	22e0      	movs	r2, #224	; 0xe0
10005ce4:	4952      	ldr	r1, [pc, #328]	; (10005e30 <clocks_init+0x29c>)
10005ce6:	680b      	ldr	r3, [r1, #0]
10005ce8:	401a      	ands	r2, r3
10005cea:	2380      	movs	r3, #128	; 0x80
10005cec:	015b      	lsls	r3, r3, #5
10005cee:	432b      	orrs	r3, r5
10005cf0:	601a      	str	r2, [r3, #0]
10005cf2:	2380      	movs	r3, #128	; 0x80
10005cf4:	2280      	movs	r2, #128	; 0x80
10005cf6:	019b      	lsls	r3, r3, #6
10005cf8:	432b      	orrs	r3, r5
10005cfa:	0112      	lsls	r2, r2, #4
10005cfc:	601a      	str	r2, [r3, #0]
10005cfe:	2280      	movs	r2, #128	; 0x80
10005d00:	4b3e      	ldr	r3, [pc, #248]	; (10005dfc <clocks_init+0x268>)
10005d02:	0052      	lsls	r2, r2, #1
10005d04:	604a      	str	r2, [r1, #4]
10005d06:	61e3      	str	r3, [r4, #28]
10005d08:	4b4b      	ldr	r3, [pc, #300]	; (10005e38 <clocks_init+0x2a4>)
10005d0a:	6859      	ldr	r1, [r3, #4]
10005d0c:	29ff      	cmp	r1, #255	; 0xff
10005d0e:	d800      	bhi.n	10005d12 <clocks_init+0x17e>
10005d10:	605a      	str	r2, [r3, #4]
10005d12:	2280      	movs	r2, #128	; 0x80
10005d14:	4b49      	ldr	r3, [pc, #292]	; (10005e3c <clocks_init+0x2a8>)
10005d16:	6a21      	ldr	r1, [r4, #32]
10005d18:	0112      	lsls	r2, r2, #4
10005d1a:	4d47      	ldr	r5, [pc, #284]	; (10005e38 <clocks_init+0x2a4>)
10005d1c:	601a      	str	r2, [r3, #0]
10005d1e:	2900      	cmp	r1, #0
10005d20:	d005      	beq.n	10005d2e <clocks_init+0x19a>
10005d22:	6960      	ldr	r0, [r4, #20]
10005d24:	f001 fd0e 	bl	10007744 <__wrap___aeabi_uidiv>
10005d28:	3001      	adds	r0, #1
10005d2a:	3801      	subs	r0, #1
10005d2c:	d1fd      	bne.n	10005d2a <clocks_init+0x196>
10005d2e:	22e0      	movs	r2, #224	; 0xe0
10005d30:	4941      	ldr	r1, [pc, #260]	; (10005e38 <clocks_init+0x2a4>)
10005d32:	680b      	ldr	r3, [r1, #0]
10005d34:	401a      	ands	r2, r3
10005d36:	2380      	movs	r3, #128	; 0x80
10005d38:	015b      	lsls	r3, r3, #5
10005d3a:	432b      	orrs	r3, r5
10005d3c:	601a      	str	r2, [r3, #0]
10005d3e:	2380      	movs	r3, #128	; 0x80
10005d40:	2280      	movs	r2, #128	; 0x80
10005d42:	019b      	lsls	r3, r3, #6
10005d44:	432b      	orrs	r3, r5
10005d46:	0112      	lsls	r2, r2, #4
10005d48:	601a      	str	r2, [r3, #0]
10005d4a:	2380      	movs	r3, #128	; 0x80
10005d4c:	2280      	movs	r2, #128	; 0x80
10005d4e:	005b      	lsls	r3, r3, #1
10005d50:	604b      	str	r3, [r1, #4]
10005d52:	4b2a      	ldr	r3, [pc, #168]	; (10005dfc <clocks_init+0x268>)
10005d54:	02d2      	lsls	r2, r2, #11
10005d56:	6223      	str	r3, [r4, #32]
10005d58:	4b39      	ldr	r3, [pc, #228]	; (10005e40 <clocks_init+0x2ac>)
10005d5a:	6859      	ldr	r1, [r3, #4]
10005d5c:	4291      	cmp	r1, r2
10005d5e:	d200      	bcs.n	10005d62 <clocks_init+0x1ce>
10005d60:	605a      	str	r2, [r3, #4]
10005d62:	2280      	movs	r2, #128	; 0x80
10005d64:	4b37      	ldr	r3, [pc, #220]	; (10005e44 <clocks_init+0x2b0>)
10005d66:	6a61      	ldr	r1, [r4, #36]	; 0x24
10005d68:	0112      	lsls	r2, r2, #4
10005d6a:	4d35      	ldr	r5, [pc, #212]	; (10005e40 <clocks_init+0x2ac>)
10005d6c:	601a      	str	r2, [r3, #0]
10005d6e:	2900      	cmp	r1, #0
10005d70:	d005      	beq.n	10005d7e <clocks_init+0x1ea>
10005d72:	6960      	ldr	r0, [r4, #20]
10005d74:	f001 fce6 	bl	10007744 <__wrap___aeabi_uidiv>
10005d78:	3001      	adds	r0, #1
10005d7a:	3801      	subs	r0, #1
10005d7c:	d1fd      	bne.n	10005d7a <clocks_init+0x1e6>
10005d7e:	22e0      	movs	r2, #224	; 0xe0
10005d80:	492f      	ldr	r1, [pc, #188]	; (10005e40 <clocks_init+0x2ac>)
10005d82:	680b      	ldr	r3, [r1, #0]
10005d84:	401a      	ands	r2, r3
10005d86:	2380      	movs	r3, #128	; 0x80
10005d88:	015b      	lsls	r3, r3, #5
10005d8a:	432b      	orrs	r3, r5
10005d8c:	601a      	str	r2, [r3, #0]
10005d8e:	2380      	movs	r3, #128	; 0x80
10005d90:	2280      	movs	r2, #128	; 0x80
10005d92:	019b      	lsls	r3, r3, #6
10005d94:	432b      	orrs	r3, r5
10005d96:	0112      	lsls	r2, r2, #4
10005d98:	601a      	str	r2, [r3, #0]
10005d9a:	2380      	movs	r3, #128	; 0x80
10005d9c:	02db      	lsls	r3, r3, #11
10005d9e:	604b      	str	r3, [r1, #4]
10005da0:	4b17      	ldr	r3, [pc, #92]	; (10005e00 <clocks_init+0x26c>)
10005da2:	6263      	str	r3, [r4, #36]	; 0x24
10005da4:	4b28      	ldr	r3, [pc, #160]	; (10005e48 <clocks_init+0x2b4>)
10005da6:	685a      	ldr	r2, [r3, #4]
10005da8:	2aff      	cmp	r2, #255	; 0xff
10005daa:	d802      	bhi.n	10005db2 <clocks_init+0x21e>
10005dac:	2280      	movs	r2, #128	; 0x80
10005dae:	0052      	lsls	r2, r2, #1
10005db0:	605a      	str	r2, [r3, #4]
10005db2:	2280      	movs	r2, #128	; 0x80
10005db4:	4b25      	ldr	r3, [pc, #148]	; (10005e4c <clocks_init+0x2b8>)
10005db6:	69a1      	ldr	r1, [r4, #24]
10005db8:	0112      	lsls	r2, r2, #4
10005dba:	4d23      	ldr	r5, [pc, #140]	; (10005e48 <clocks_init+0x2b4>)
10005dbc:	601a      	str	r2, [r3, #0]
10005dbe:	2900      	cmp	r1, #0
10005dc0:	d005      	beq.n	10005dce <clocks_init+0x23a>
10005dc2:	6960      	ldr	r0, [r4, #20]
10005dc4:	f001 fcbe 	bl	10007744 <__wrap___aeabi_uidiv>
10005dc8:	3001      	adds	r0, #1
10005dca:	3801      	subs	r0, #1
10005dcc:	d1fd      	bne.n	10005dca <clocks_init+0x236>
10005dce:	22e0      	movs	r2, #224	; 0xe0
10005dd0:	491d      	ldr	r1, [pc, #116]	; (10005e48 <clocks_init+0x2b4>)
10005dd2:	680b      	ldr	r3, [r1, #0]
10005dd4:	401a      	ands	r2, r3
10005dd6:	2380      	movs	r3, #128	; 0x80
10005dd8:	015b      	lsls	r3, r3, #5
10005dda:	432b      	orrs	r3, r5
10005ddc:	601a      	str	r2, [r3, #0]
10005dde:	2380      	movs	r3, #128	; 0x80
10005de0:	2280      	movs	r2, #128	; 0x80
10005de2:	019b      	lsls	r3, r3, #6
10005de4:	432b      	orrs	r3, r5
10005de6:	0112      	lsls	r2, r2, #4
10005de8:	601a      	str	r2, [r3, #0]
10005dea:	2380      	movs	r3, #128	; 0x80
10005dec:	005b      	lsls	r3, r3, #1
10005dee:	604b      	str	r3, [r1, #4]
10005df0:	4b0e      	ldr	r3, [pc, #56]	; (10005e2c <clocks_init+0x298>)
10005df2:	61a3      	str	r3, [r4, #24]
10005df4:	e6e4      	b.n	10005bc0 <clocks_init+0x2c>
10005df6:	46c0      	nop			; (mov r8, r8)
10005df8:	20001d84 	.word	0x20001d84
10005dfc:	02dc6c00 	.word	0x02dc6c00
10005e00:	0000b71b 	.word	0x0000b71b
10005e04:	40008000 	.word	0x40008000
10005e08:	4000b03c 	.word	0x4000b03c
10005e0c:	4000b030 	.word	0x4000b030
10005e10:	59682f00 	.word	0x59682f00
10005e14:	40028000 	.word	0x40028000
10005e18:	47868c00 	.word	0x47868c00
10005e1c:	4002c000 	.word	0x4002c000
10005e20:	40008030 	.word	0x40008030
10005e24:	00b71b00 	.word	0x00b71b00
10005e28:	4000803c 	.word	0x4000803c
10005e2c:	07735940 	.word	0x07735940
10005e30:	40008054 	.word	0x40008054
10005e34:	4000b054 	.word	0x4000b054
10005e38:	40008060 	.word	0x40008060
10005e3c:	4000b060 	.word	0x4000b060
10005e40:	4000806c 	.word	0x4000806c
10005e44:	4000b06c 	.word	0x4000b06c
10005e48:	40008048 	.word	0x40008048
10005e4c:	4000b048 	.word	0x4000b048

10005e50 <clock_get_hz>:
10005e50:	4b01      	ldr	r3, [pc, #4]	; (10005e58 <clock_get_hz+0x8>)
10005e52:	0080      	lsls	r0, r0, #2
10005e54:	58c0      	ldr	r0, [r0, r3]
10005e56:	4770      	bx	lr
10005e58:	20001d84 	.word	0x20001d84

10005e5c <pll_init>:
10005e5c:	b5f0      	push	{r4, r5, r6, r7, lr}
10005e5e:	46c6      	mov	lr, r8
10005e60:	0004      	movs	r4, r0
10005e62:	b500      	push	{lr}
10005e64:	200c      	movs	r0, #12
10005e66:	4690      	mov	r8, r2
10005e68:	001f      	movs	r7, r3
10005e6a:	000e      	movs	r6, r1
10005e6c:	f001 fc6a 	bl	10007744 <__wrap___aeabi_uidiv>
10005e70:	0141      	lsls	r1, r0, #5
10005e72:	1a09      	subs	r1, r1, r0
10005e74:	018d      	lsls	r5, r1, #6
10005e76:	1a69      	subs	r1, r5, r1
10005e78:	00c9      	lsls	r1, r1, #3
10005e7a:	1809      	adds	r1, r1, r0
10005e7c:	0189      	lsls	r1, r1, #6
10005e7e:	4640      	mov	r0, r8
10005e80:	f001 fc60 	bl	10007744 <__wrap___aeabi_uidiv>
10005e84:	9b06      	ldr	r3, [sp, #24]
10005e86:	043f      	lsls	r7, r7, #16
10005e88:	031a      	lsls	r2, r3, #12
10005e8a:	6823      	ldr	r3, [r4, #0]
10005e8c:	4317      	orrs	r7, r2
10005e8e:	2b00      	cmp	r3, #0
10005e90:	db22      	blt.n	10005ed8 <pll_init+0x7c>
10005e92:	4b1a      	ldr	r3, [pc, #104]	; (10005efc <pll_init+0xa0>)
10005e94:	4d1a      	ldr	r5, [pc, #104]	; (10005f00 <pll_init+0xa4>)
10005e96:	18e2      	adds	r2, r4, r3
10005e98:	4253      	negs	r3, r2
10005e9a:	415a      	adcs	r2, r3
10005e9c:	2380      	movs	r3, #128	; 0x80
10005e9e:	015b      	lsls	r3, r3, #5
10005ea0:	469c      	mov	ip, r3
10005ea2:	0312      	lsls	r2, r2, #12
10005ea4:	4b17      	ldr	r3, [pc, #92]	; (10005f04 <pll_init+0xa8>)
10005ea6:	4462      	add	r2, ip
10005ea8:	601a      	str	r2, [r3, #0]
10005eaa:	4b17      	ldr	r3, [pc, #92]	; (10005f08 <pll_init+0xac>)
10005eac:	601a      	str	r2, [r3, #0]
10005eae:	0011      	movs	r1, r2
10005eb0:	68ab      	ldr	r3, [r5, #8]
10005eb2:	4399      	bics	r1, r3
10005eb4:	d1fb      	bne.n	10005eae <pll_init+0x52>
10005eb6:	22c0      	movs	r2, #192	; 0xc0
10005eb8:	1d23      	adds	r3, r4, #4
10005eba:	0192      	lsls	r2, r2, #6
10005ebc:	431a      	orrs	r2, r3
10005ebe:	2321      	movs	r3, #33	; 0x21
10005ec0:	6026      	str	r6, [r4, #0]
10005ec2:	60a0      	str	r0, [r4, #8]
10005ec4:	6013      	str	r3, [r2, #0]
10005ec6:	6823      	ldr	r3, [r4, #0]
10005ec8:	2b00      	cmp	r3, #0
10005eca:	dafc      	bge.n	10005ec6 <pll_init+0x6a>
10005ecc:	2308      	movs	r3, #8
10005ece:	60e7      	str	r7, [r4, #12]
10005ed0:	6013      	str	r3, [r2, #0]
10005ed2:	bc80      	pop	{r7}
10005ed4:	46b8      	mov	r8, r7
10005ed6:	bdf0      	pop	{r4, r5, r6, r7, pc}
10005ed8:	233f      	movs	r3, #63	; 0x3f
10005eda:	6822      	ldr	r2, [r4, #0]
10005edc:	4013      	ands	r3, r2
10005ede:	42b3      	cmp	r3, r6
10005ee0:	d1d7      	bne.n	10005e92 <pll_init+0x36>
10005ee2:	68a3      	ldr	r3, [r4, #8]
10005ee4:	051b      	lsls	r3, r3, #20
10005ee6:	0d1b      	lsrs	r3, r3, #20
10005ee8:	4283      	cmp	r3, r0
10005eea:	d1d2      	bne.n	10005e92 <pll_init+0x36>
10005eec:	22ee      	movs	r2, #238	; 0xee
10005eee:	68e3      	ldr	r3, [r4, #12]
10005ef0:	02d2      	lsls	r2, r2, #11
10005ef2:	4013      	ands	r3, r2
10005ef4:	42bb      	cmp	r3, r7
10005ef6:	d1cc      	bne.n	10005e92 <pll_init+0x36>
10005ef8:	e7eb      	b.n	10005ed2 <pll_init+0x76>
10005efa:	46c0      	nop			; (mov r8, r8)
10005efc:	bffd4000 	.word	0xbffd4000
10005f00:	4000c000 	.word	0x4000c000
10005f04:	4000e000 	.word	0x4000e000
10005f08:	4000f000 	.word	0x4000f000

10005f0c <watchdog_start_tick>:
10005f0c:	2380      	movs	r3, #128	; 0x80
10005f0e:	4a02      	ldr	r2, [pc, #8]	; (10005f18 <watchdog_start_tick+0xc>)
10005f10:	009b      	lsls	r3, r3, #2
10005f12:	4303      	orrs	r3, r0
10005f14:	62d3      	str	r3, [r2, #44]	; 0x2c
10005f16:	4770      	bx	lr
10005f18:	40058000 	.word	0x40058000

10005f1c <watchdog_reboot>:
10005f1c:	b510      	push	{r4, lr}
10005f1e:	0014      	movs	r4, r2
10005f20:	2280      	movs	r2, #128	; 0x80
10005f22:	4b1b      	ldr	r3, [pc, #108]	; (10005f90 <watchdog_reboot+0x74>)
10005f24:	05d2      	lsls	r2, r2, #23
10005f26:	601a      	str	r2, [r3, #0]
10005f28:	2800      	cmp	r0, #0
10005f2a:	d01a      	beq.n	10005f62 <watchdog_reboot+0x46>
10005f2c:	2301      	movs	r3, #1
10005f2e:	4a19      	ldr	r2, [pc, #100]	; (10005f94 <watchdog_reboot+0x78>)
10005f30:	4318      	orrs	r0, r3
10005f32:	4b19      	ldr	r3, [pc, #100]	; (10005f98 <watchdog_reboot+0x7c>)
10005f34:	61da      	str	r2, [r3, #28]
10005f36:	4a19      	ldr	r2, [pc, #100]	; (10005f9c <watchdog_reboot+0x80>)
10005f38:	4042      	eors	r2, r0
10005f3a:	621a      	str	r2, [r3, #32]
10005f3c:	6259      	str	r1, [r3, #36]	; 0x24
10005f3e:	6298      	str	r0, [r3, #40]	; 0x28
10005f40:	2280      	movs	r2, #128	; 0x80
10005f42:	4b13      	ldr	r3, [pc, #76]	; (10005f90 <watchdog_reboot+0x74>)
10005f44:	05d2      	lsls	r2, r2, #23
10005f46:	601a      	str	r2, [r3, #0]
10005f48:	4915      	ldr	r1, [pc, #84]	; (10005fa0 <watchdog_reboot+0x84>)
10005f4a:	4a16      	ldr	r2, [pc, #88]	; (10005fa4 <watchdog_reboot+0x88>)
10005f4c:	6011      	str	r1, [r2, #0]
10005f4e:	22e0      	movs	r2, #224	; 0xe0
10005f50:	04d2      	lsls	r2, r2, #19
10005f52:	601a      	str	r2, [r3, #0]
10005f54:	2c00      	cmp	r4, #0
10005f56:	d107      	bne.n	10005f68 <watchdog_reboot+0x4c>
10005f58:	2280      	movs	r2, #128	; 0x80
10005f5a:	4b13      	ldr	r3, [pc, #76]	; (10005fa8 <watchdog_reboot+0x8c>)
10005f5c:	0612      	lsls	r2, r2, #24
10005f5e:	601a      	str	r2, [r3, #0]
10005f60:	bd10      	pop	{r4, pc}
10005f62:	4b0d      	ldr	r3, [pc, #52]	; (10005f98 <watchdog_reboot+0x7c>)
10005f64:	61d8      	str	r0, [r3, #28]
10005f66:	e7eb      	b.n	10005f40 <watchdog_reboot+0x24>
10005f68:	0163      	lsls	r3, r4, #5
10005f6a:	1b1b      	subs	r3, r3, r4
10005f6c:	009a      	lsls	r2, r3, #2
10005f6e:	2380      	movs	r3, #128	; 0x80
10005f70:	1912      	adds	r2, r2, r4
10005f72:	0112      	lsls	r2, r2, #4
10005f74:	045b      	lsls	r3, r3, #17
10005f76:	429a      	cmp	r2, r3
10005f78:	d300      	bcc.n	10005f7c <watchdog_reboot+0x60>
10005f7a:	4a0c      	ldr	r2, [pc, #48]	; (10005fac <watchdog_reboot+0x90>)
10005f7c:	4b0c      	ldr	r3, [pc, #48]	; (10005fb0 <watchdog_reboot+0x94>)
10005f7e:	601a      	str	r2, [r3, #0]
10005f80:	4b05      	ldr	r3, [pc, #20]	; (10005f98 <watchdog_reboot+0x7c>)
10005f82:	605a      	str	r2, [r3, #4]
10005f84:	2280      	movs	r2, #128	; 0x80
10005f86:	4b08      	ldr	r3, [pc, #32]	; (10005fa8 <watchdog_reboot+0x8c>)
10005f88:	05d2      	lsls	r2, r2, #23
10005f8a:	601a      	str	r2, [r3, #0]
10005f8c:	e7e8      	b.n	10005f60 <watchdog_reboot+0x44>
10005f8e:	46c0      	nop			; (mov r8, r8)
10005f90:	4005b000 	.word	0x4005b000
10005f94:	b007c0d3 	.word	0xb007c0d3
10005f98:	40058000 	.word	0x40058000
10005f9c:	4ff83f2d 	.word	0x4ff83f2d
10005fa0:	0001fffc 	.word	0x0001fffc
10005fa4:	40012008 	.word	0x40012008
10005fa8:	4005a000 	.word	0x4005a000
10005fac:	00ffffff 	.word	0x00ffffff
10005fb0:	20002b10 	.word	0x20002b10

10005fb4 <xosc_init>:
10005fb4:	23aa      	movs	r3, #170	; 0xaa
10005fb6:	4a06      	ldr	r2, [pc, #24]	; (10005fd0 <xosc_init+0x1c>)
10005fb8:	011b      	lsls	r3, r3, #4
10005fba:	6013      	str	r3, [r2, #0]
10005fbc:	232f      	movs	r3, #47	; 0x2f
10005fbe:	4905      	ldr	r1, [pc, #20]	; (10005fd4 <xosc_init+0x20>)
10005fc0:	60d3      	str	r3, [r2, #12]
10005fc2:	4b05      	ldr	r3, [pc, #20]	; (10005fd8 <xosc_init+0x24>)
10005fc4:	6019      	str	r1, [r3, #0]
10005fc6:	6853      	ldr	r3, [r2, #4]
10005fc8:	2b00      	cmp	r3, #0
10005fca:	dafc      	bge.n	10005fc6 <xosc_init+0x12>
10005fcc:	4770      	bx	lr
10005fce:	46c0      	nop			; (mov r8, r8)
10005fd0:	40024000 	.word	0x40024000
10005fd4:	00fab000 	.word	0x00fab000
10005fd8:	40026000 	.word	0x40026000

10005fdc <runtime_init>:
10005fdc:	4b2c      	ldr	r3, [pc, #176]	; (10006090 <runtime_init+0xb4>)
10005fde:	4a2d      	ldr	r2, [pc, #180]	; (10006094 <runtime_init+0xb8>)
10005fe0:	b570      	push	{r4, r5, r6, lr}
10005fe2:	601a      	str	r2, [r3, #0]
10005fe4:	4a2c      	ldr	r2, [pc, #176]	; (10006098 <runtime_init+0xbc>)
10005fe6:	4b2d      	ldr	r3, [pc, #180]	; (1000609c <runtime_init+0xc0>)
10005fe8:	492d      	ldr	r1, [pc, #180]	; (100060a0 <runtime_init+0xc4>)
10005fea:	601a      	str	r2, [r3, #0]
10005fec:	0014      	movs	r4, r2
10005fee:	688b      	ldr	r3, [r1, #8]
10005ff0:	439c      	bics	r4, r3
10005ff2:	d1fb      	bne.n	10005fec <runtime_init+0x10>
10005ff4:	4d2b      	ldr	r5, [pc, #172]	; (100060a4 <runtime_init+0xc8>)
10005ff6:	4e2c      	ldr	r6, [pc, #176]	; (100060a8 <runtime_init+0xcc>)
10005ff8:	42b5      	cmp	r5, r6
10005ffa:	d208      	bcs.n	1000600e <runtime_init+0x32>
10005ffc:	3e01      	subs	r6, #1
10005ffe:	1b76      	subs	r6, r6, r5
10006000:	08b6      	lsrs	r6, r6, #2
10006002:	cd08      	ldmia	r5!, {r3}
10006004:	4798      	blx	r3
10006006:	0023      	movs	r3, r4
10006008:	3401      	adds	r4, #1
1000600a:	42b3      	cmp	r3, r6
1000600c:	d1f9      	bne.n	10006002 <runtime_init+0x26>
1000600e:	f7ff fdc1 	bl	10005b94 <clocks_init>
10006012:	4a26      	ldr	r2, [pc, #152]	; (100060ac <runtime_init+0xd0>)
10006014:	4b21      	ldr	r3, [pc, #132]	; (1000609c <runtime_init+0xc0>)
10006016:	601a      	str	r2, [r3, #0]
10006018:	4a21      	ldr	r2, [pc, #132]	; (100060a0 <runtime_init+0xc4>)
1000601a:	6893      	ldr	r3, [r2, #8]
1000601c:	43db      	mvns	r3, r3
1000601e:	01db      	lsls	r3, r3, #7
10006020:	09dd      	lsrs	r5, r3, #7
10006022:	2b00      	cmp	r3, #0
10006024:	d1f9      	bne.n	1000601a <runtime_init+0x3e>
10006026:	2240      	movs	r2, #64	; 0x40
10006028:	4b21      	ldr	r3, [pc, #132]	; (100060b0 <runtime_init+0xd4>)
1000602a:	4c22      	ldr	r4, [pc, #136]	; (100060b4 <runtime_init+0xd8>)
1000602c:	4e22      	ldr	r6, [pc, #136]	; (100060b8 <runtime_init+0xdc>)
1000602e:	679a      	str	r2, [r3, #120]	; 0x78
10006030:	675a      	str	r2, [r3, #116]	; 0x74
10006032:	671a      	str	r2, [r3, #112]	; 0x70
10006034:	66da      	str	r2, [r3, #108]	; 0x6c
10006036:	42b4      	cmp	r4, r6
10006038:	d208      	bcs.n	1000604c <runtime_init+0x70>
1000603a:	6823      	ldr	r3, [r4, #0]
1000603c:	0020      	movs	r0, r4
1000603e:	2b00      	cmp	r3, #0
10006040:	d020      	beq.n	10006084 <runtime_init+0xa8>
10006042:	3408      	adds	r4, #8
10006044:	f7fe fa3e 	bl	100044c4 <recursive_mutex_init>
10006048:	42b4      	cmp	r4, r6
1000604a:	d3f6      	bcc.n	1000603a <runtime_init+0x5e>
1000604c:	4e1b      	ldr	r6, [pc, #108]	; (100060bc <runtime_init+0xe0>)
1000604e:	4c1c      	ldr	r4, [pc, #112]	; (100060c0 <runtime_init+0xe4>)
10006050:	22c0      	movs	r2, #192	; 0xc0
10006052:	68a1      	ldr	r1, [r4, #8]
10006054:	0030      	movs	r0, r6
10006056:	f001 ff49 	bl	10007eec <__wrap___aeabi_memcpy>
1000605a:	60a6      	str	r6, [r4, #8]
1000605c:	f7fa fc68 	bl	10000930 <spin_locks_reset>
10006060:	f7fe f9da 	bl	10004418 <irq_init_priorities>
10006064:	f7fe fbe4 	bl	10004830 <alarm_pool_init_default>
10006068:	4c16      	ldr	r4, [pc, #88]	; (100060c4 <runtime_init+0xe8>)
1000606a:	4e17      	ldr	r6, [pc, #92]	; (100060c8 <runtime_init+0xec>)
1000606c:	42b4      	cmp	r4, r6
1000606e:	d208      	bcs.n	10006082 <runtime_init+0xa6>
10006070:	3e01      	subs	r6, #1
10006072:	1b36      	subs	r6, r6, r4
10006074:	08b6      	lsrs	r6, r6, #2
10006076:	cc08      	ldmia	r4!, {r3}
10006078:	4798      	blx	r3
1000607a:	002b      	movs	r3, r5
1000607c:	3501      	adds	r5, #1
1000607e:	429e      	cmp	r6, r3
10006080:	d1f9      	bne.n	10006076 <runtime_init+0x9a>
10006082:	bd70      	pop	{r4, r5, r6, pc}
10006084:	3408      	adds	r4, #8
10006086:	f7fe fa0f 	bl	100044a8 <mutex_init>
1000608a:	42b4      	cmp	r4, r6
1000608c:	d3d5      	bcc.n	1000603a <runtime_init+0x5e>
1000608e:	e7dd      	b.n	1000604c <runtime_init+0x70>
10006090:	4000e000 	.word	0x4000e000
10006094:	fefbcdbf 	.word	0xfefbcdbf
10006098:	003c7ffe 	.word	0x003c7ffe
1000609c:	4000f000 	.word	0x4000f000
100060a0:	4000c000 	.word	0x4000c000
100060a4:	20001180 	.word	0x20001180
100060a8:	20001190 	.word	0x20001190
100060ac:	01ffffff 	.word	0x01ffffff
100060b0:	4001f000 	.word	0x4001f000
100060b4:	20001178 	.word	0x20001178
100060b8:	20001180 	.word	0x20001180
100060bc:	20000000 	.word	0x20000000
100060c0:	e000ed00 	.word	0xe000ed00
100060c4:	20001190 	.word	0x20001190
100060c8:	20001198 	.word	0x20001198

100060cc <_exit>:
100060cc:	be00      	bkpt	0x0000
100060ce:	e7fd      	b.n	100060cc <_exit>

100060d0 <exit>:
100060d0:	b510      	push	{r4, lr}
100060d2:	f7ff fffb 	bl	100060cc <_exit>
100060d6:	46c0      	nop			; (mov r8, r8)

100060d8 <panic>:
100060d8:	b40f      	push	{r0, r1, r2, r3}
100060da:	b500      	push	{lr}
100060dc:	4808      	ldr	r0, [pc, #32]	; (10006100 <panic+0x28>)
100060de:	b083      	sub	sp, #12
100060e0:	f002 f868 	bl	100081b4 <__wrap_puts>
100060e4:	9b04      	ldr	r3, [sp, #16]
100060e6:	2b00      	cmp	r3, #0
100060e8:	d007      	beq.n	100060fa <panic+0x22>
100060ea:	a905      	add	r1, sp, #20
100060ec:	0018      	movs	r0, r3
100060ee:	9101      	str	r1, [sp, #4]
100060f0:	f001 fada 	bl	100076a8 <weak_raw_vprintf>
100060f4:	4803      	ldr	r0, [pc, #12]	; (10006104 <panic+0x2c>)
100060f6:	f002 f85d 	bl	100081b4 <__wrap_puts>
100060fa:	2001      	movs	r0, #1
100060fc:	f7ff ffe6 	bl	100060cc <_exit>
10006100:	1004218c 	.word	0x1004218c
10006104:	1000aa04 	.word	0x1000aa04

10006108 <hard_assertion_failure>:
10006108:	b510      	push	{r4, lr}
1000610a:	4801      	ldr	r0, [pc, #4]	; (10006110 <hard_assertion_failure+0x8>)
1000610c:	f7ff ffe4 	bl	100060d8 <panic>
10006110:	1004219c 	.word	0x1004219c

10006114 <_out_null>:
10006114:	4770      	bx	lr
10006116:	46c0      	nop			; (mov r8, r8)

10006118 <_out_rev>:
10006118:	b5f8      	push	{r3, r4, r5, r6, r7, lr}
1000611a:	4657      	mov	r7, sl
1000611c:	464e      	mov	r6, r9
1000611e:	4645      	mov	r5, r8
10006120:	46de      	mov	lr, fp
10006122:	b5e0      	push	{r5, r6, r7, lr}
10006124:	4699      	mov	r9, r3
10006126:	9b0a      	ldr	r3, [sp, #40]	; 0x28
10006128:	0007      	movs	r7, r0
1000612a:	469a      	mov	sl, r3
1000612c:	9b0d      	ldr	r3, [sp, #52]	; 0x34
1000612e:	4688      	mov	r8, r1
10006130:	4693      	mov	fp, r2
10006132:	0015      	movs	r5, r2
10006134:	9e0b      	ldr	r6, [sp, #44]	; 0x2c
10006136:	079b      	lsls	r3, r3, #30
10006138:	d110      	bne.n	1000615c <_out_rev+0x44>
1000613a:	9b0c      	ldr	r3, [sp, #48]	; 0x30
1000613c:	429e      	cmp	r6, r3
1000613e:	d20d      	bcs.n	1000615c <_out_rev+0x44>
10006140:	1b9d      	subs	r5, r3, r6
10006142:	0014      	movs	r4, r2
10006144:	000e      	movs	r6, r1
10006146:	445d      	add	r5, fp
10006148:	0022      	movs	r2, r4
1000614a:	464b      	mov	r3, r9
1000614c:	3401      	adds	r4, #1
1000614e:	0031      	movs	r1, r6
10006150:	2020      	movs	r0, #32
10006152:	47b8      	blx	r7
10006154:	42a5      	cmp	r5, r4
10006156:	d1f7      	bne.n	10006148 <_out_rev+0x30>
10006158:	46b0      	mov	r8, r6
1000615a:	9e0b      	ldr	r6, [sp, #44]	; 0x2c
1000615c:	2e00      	cmp	r6, #0
1000615e:	d027      	beq.n	100061b0 <_out_rev+0x98>
10006160:	4644      	mov	r4, r8
10006162:	1975      	adds	r5, r6, r5
10006164:	4653      	mov	r3, sl
10006166:	1baa      	subs	r2, r5, r6
10006168:	3e01      	subs	r6, #1
1000616a:	5d98      	ldrb	r0, [r3, r6]
1000616c:	0021      	movs	r1, r4
1000616e:	464b      	mov	r3, r9
10006170:	47b8      	blx	r7
10006172:	2e00      	cmp	r6, #0
10006174:	d1f6      	bne.n	10006164 <_out_rev+0x4c>
10006176:	0023      	movs	r3, r4
10006178:	002c      	movs	r4, r5
1000617a:	4698      	mov	r8, r3
1000617c:	9b0d      	ldr	r3, [sp, #52]	; 0x34
1000617e:	079b      	lsls	r3, r3, #30
10006180:	d50f      	bpl.n	100061a2 <_out_rev+0x8a>
10006182:	465b      	mov	r3, fp
10006184:	1ae5      	subs	r5, r4, r3
10006186:	9b0c      	ldr	r3, [sp, #48]	; 0x30
10006188:	42ab      	cmp	r3, r5
1000618a:	d90a      	bls.n	100061a2 <_out_rev+0x8a>
1000618c:	4646      	mov	r6, r8
1000618e:	4698      	mov	r8, r3
10006190:	0022      	movs	r2, r4
10006192:	464b      	mov	r3, r9
10006194:	0031      	movs	r1, r6
10006196:	2020      	movs	r0, #32
10006198:	3501      	adds	r5, #1
1000619a:	47b8      	blx	r7
1000619c:	3401      	adds	r4, #1
1000619e:	45a8      	cmp	r8, r5
100061a0:	d8f6      	bhi.n	10006190 <_out_rev+0x78>
100061a2:	0020      	movs	r0, r4
100061a4:	bcf0      	pop	{r4, r5, r6, r7}
100061a6:	46bb      	mov	fp, r7
100061a8:	46b2      	mov	sl, r6
100061aa:	46a9      	mov	r9, r5
100061ac:	46a0      	mov	r8, r4
100061ae:	bdf8      	pop	{r3, r4, r5, r6, r7, pc}
100061b0:	002c      	movs	r4, r5
100061b2:	e7e3      	b.n	1000617c <_out_rev+0x64>

100061b4 <_ntoa_format>:
100061b4:	b5f0      	push	{r4, r5, r6, r7, lr}
100061b6:	464f      	mov	r7, r9
100061b8:	4646      	mov	r6, r8
100061ba:	46d6      	mov	lr, sl
100061bc:	b5c0      	push	{r6, r7, lr}
100061be:	b084      	sub	sp, #16
100061c0:	4698      	mov	r8, r3
100061c2:	ab0e      	add	r3, sp, #56	; 0x38
100061c4:	781b      	ldrb	r3, [r3, #0]
100061c6:	9f12      	ldr	r7, [sp, #72]	; 0x48
100061c8:	4699      	mov	r9, r3
100061ca:	4694      	mov	ip, r2
100061cc:	9c0d      	ldr	r4, [sp, #52]	; 0x34
100061ce:	9b10      	ldr	r3, [sp, #64]	; 0x40
100061d0:	9e11      	ldr	r6, [sp, #68]	; 0x44
100061d2:	07ba      	lsls	r2, r7, #30
100061d4:	d425      	bmi.n	10006222 <_ntoa_format+0x6e>
100061d6:	2e00      	cmp	r6, #0
100061d8:	d14b      	bne.n	10006272 <_ntoa_format+0xbe>
100061da:	429c      	cmp	r4, r3
100061dc:	d300      	bcc.n	100061e0 <_ntoa_format+0x2c>
100061de:	e0bf      	b.n	10006360 <_ntoa_format+0x1ac>
100061e0:	2201      	movs	r2, #1
100061e2:	403a      	ands	r2, r7
100061e4:	4692      	mov	sl, r2
100061e6:	2c1f      	cmp	r4, #31
100061e8:	d900      	bls.n	100061ec <_ntoa_format+0x38>
100061ea:	e0b8      	b.n	1000635e <_ntoa_format+0x1aa>
100061ec:	9a0c      	ldr	r2, [sp, #48]	; 0x30
100061ee:	1e55      	subs	r5, r2, #1
100061f0:	2230      	movs	r2, #48	; 0x30
100061f2:	e001      	b.n	100061f8 <_ntoa_format+0x44>
100061f4:	2c20      	cmp	r4, #32
100061f6:	d003      	beq.n	10006200 <_ntoa_format+0x4c>
100061f8:	3401      	adds	r4, #1
100061fa:	552a      	strb	r2, [r5, r4]
100061fc:	42a3      	cmp	r3, r4
100061fe:	d8f9      	bhi.n	100061f4 <_ntoa_format+0x40>
10006200:	4652      	mov	r2, sl
10006202:	2a00      	cmp	r2, #0
10006204:	d00d      	beq.n	10006222 <_ntoa_format+0x6e>
10006206:	42a6      	cmp	r6, r4
10006208:	d90b      	bls.n	10006222 <_ntoa_format+0x6e>
1000620a:	2c20      	cmp	r4, #32
1000620c:	d044      	beq.n	10006298 <_ntoa_format+0xe4>
1000620e:	9a0c      	ldr	r2, [sp, #48]	; 0x30
10006210:	1e55      	subs	r5, r2, #1
10006212:	2230      	movs	r2, #48	; 0x30
10006214:	e001      	b.n	1000621a <_ntoa_format+0x66>
10006216:	2c20      	cmp	r4, #32
10006218:	d03e      	beq.n	10006298 <_ntoa_format+0xe4>
1000621a:	3401      	adds	r4, #1
1000621c:	552a      	strb	r2, [r5, r4]
1000621e:	42b4      	cmp	r4, r6
10006220:	d1f9      	bne.n	10006216 <_ntoa_format+0x62>
10006222:	06fa      	lsls	r2, r7, #27
10006224:	d54d      	bpl.n	100062c2 <_ntoa_format+0x10e>
10006226:	057a      	lsls	r2, r7, #21
10006228:	d43f      	bmi.n	100062aa <_ntoa_format+0xf6>
1000622a:	2c00      	cmp	r4, #0
1000622c:	d139      	bne.n	100062a2 <_ntoa_format+0xee>
1000622e:	9b0f      	ldr	r3, [sp, #60]	; 0x3c
10006230:	2b10      	cmp	r3, #16
10006232:	d100      	bne.n	10006236 <_ntoa_format+0x82>
10006234:	e079      	b.n	1000632a <_ntoa_format+0x176>
10006236:	9b0f      	ldr	r3, [sp, #60]	; 0x3c
10006238:	2b02      	cmp	r3, #2
1000623a:	d100      	bne.n	1000623e <_ntoa_format+0x8a>
1000623c:	e08a      	b.n	10006354 <_ntoa_format+0x1a0>
1000623e:	2330      	movs	r3, #48	; 0x30
10006240:	9a0c      	ldr	r2, [sp, #48]	; 0x30
10006242:	2401      	movs	r4, #1
10006244:	7013      	strb	r3, [r2, #0]
10006246:	464b      	mov	r3, r9
10006248:	2b00      	cmp	r3, #0
1000624a:	d03f      	beq.n	100062cc <_ntoa_format+0x118>
1000624c:	232d      	movs	r3, #45	; 0x2d
1000624e:	9a0c      	ldr	r2, [sp, #48]	; 0x30
10006250:	5513      	strb	r3, [r2, r4]
10006252:	3401      	adds	r4, #1
10006254:	9b0c      	ldr	r3, [sp, #48]	; 0x30
10006256:	4662      	mov	r2, ip
10006258:	9300      	str	r3, [sp, #0]
1000625a:	9703      	str	r7, [sp, #12]
1000625c:	4643      	mov	r3, r8
1000625e:	9602      	str	r6, [sp, #8]
10006260:	9401      	str	r4, [sp, #4]
10006262:	f7ff ff59 	bl	10006118 <_out_rev>
10006266:	b004      	add	sp, #16
10006268:	bce0      	pop	{r5, r6, r7}
1000626a:	46ba      	mov	sl, r7
1000626c:	46b1      	mov	r9, r6
1000626e:	46a8      	mov	r8, r5
10006270:	bdf0      	pop	{r4, r5, r6, r7, pc}
10006272:	2201      	movs	r2, #1
10006274:	0015      	movs	r5, r2
10006276:	403d      	ands	r5, r7
10006278:	46aa      	mov	sl, r5
1000627a:	423a      	tst	r2, r7
1000627c:	d02f      	beq.n	100062de <_ntoa_format+0x12a>
1000627e:	464a      	mov	r2, r9
10006280:	2a00      	cmp	r2, #0
10006282:	d102      	bne.n	1000628a <_ntoa_format+0xd6>
10006284:	320c      	adds	r2, #12
10006286:	423a      	tst	r2, r7
10006288:	d000      	beq.n	1000628c <_ntoa_format+0xd8>
1000628a:	3e01      	subs	r6, #1
1000628c:	429c      	cmp	r4, r3
1000628e:	d2ba      	bcs.n	10006206 <_ntoa_format+0x52>
10006290:	2c1f      	cmp	r4, #31
10006292:	d9ab      	bls.n	100061ec <_ntoa_format+0x38>
10006294:	2e20      	cmp	r6, #32
10006296:	d927      	bls.n	100062e8 <_ntoa_format+0x134>
10006298:	2420      	movs	r4, #32
1000629a:	06fa      	lsls	r2, r7, #27
1000629c:	d5da      	bpl.n	10006254 <_ntoa_format+0xa0>
1000629e:	057a      	lsls	r2, r7, #21
100062a0:	d403      	bmi.n	100062aa <_ntoa_format+0xf6>
100062a2:	42a3      	cmp	r3, r4
100062a4:	d02d      	beq.n	10006302 <_ntoa_format+0x14e>
100062a6:	42a6      	cmp	r6, r4
100062a8:	d02b      	beq.n	10006302 <_ntoa_format+0x14e>
100062aa:	9b0f      	ldr	r3, [sp, #60]	; 0x3c
100062ac:	2b10      	cmp	r3, #16
100062ae:	d032      	beq.n	10006316 <_ntoa_format+0x162>
100062b0:	2b02      	cmp	r3, #2
100062b2:	d020      	beq.n	100062f6 <_ntoa_format+0x142>
100062b4:	2c20      	cmp	r4, #32
100062b6:	d0cd      	beq.n	10006254 <_ntoa_format+0xa0>
100062b8:	2230      	movs	r2, #48	; 0x30
100062ba:	9b0c      	ldr	r3, [sp, #48]	; 0x30
100062bc:	191b      	adds	r3, r3, r4
100062be:	701a      	strb	r2, [r3, #0]
100062c0:	3401      	adds	r4, #1
100062c2:	2c20      	cmp	r4, #32
100062c4:	d0c6      	beq.n	10006254 <_ntoa_format+0xa0>
100062c6:	464b      	mov	r3, r9
100062c8:	2b00      	cmp	r3, #0
100062ca:	d1bf      	bne.n	1000624c <_ntoa_format+0x98>
100062cc:	077b      	lsls	r3, r7, #29
100062ce:	d40d      	bmi.n	100062ec <_ntoa_format+0x138>
100062d0:	073b      	lsls	r3, r7, #28
100062d2:	d5bf      	bpl.n	10006254 <_ntoa_format+0xa0>
100062d4:	2320      	movs	r3, #32
100062d6:	9a0c      	ldr	r2, [sp, #48]	; 0x30
100062d8:	5513      	strb	r3, [r2, r4]
100062da:	3401      	adds	r4, #1
100062dc:	e7ba      	b.n	10006254 <_ntoa_format+0xa0>
100062de:	429c      	cmp	r4, r3
100062e0:	d29f      	bcs.n	10006222 <_ntoa_format+0x6e>
100062e2:	2c1f      	cmp	r4, #31
100062e4:	d800      	bhi.n	100062e8 <_ntoa_format+0x134>
100062e6:	e781      	b.n	100061ec <_ntoa_format+0x38>
100062e8:	2420      	movs	r4, #32
100062ea:	e79a      	b.n	10006222 <_ntoa_format+0x6e>
100062ec:	232b      	movs	r3, #43	; 0x2b
100062ee:	9a0c      	ldr	r2, [sp, #48]	; 0x30
100062f0:	5513      	strb	r3, [r2, r4]
100062f2:	3401      	adds	r4, #1
100062f4:	e7ae      	b.n	10006254 <_ntoa_format+0xa0>
100062f6:	2c20      	cmp	r4, #32
100062f8:	d0ac      	beq.n	10006254 <_ntoa_format+0xa0>
100062fa:	9b0c      	ldr	r3, [sp, #48]	; 0x30
100062fc:	191b      	adds	r3, r3, r4
100062fe:	3401      	adds	r4, #1
10006300:	e03a      	b.n	10006378 <_ntoa_format+0x1c4>
10006302:	1e63      	subs	r3, r4, #1
10006304:	2c01      	cmp	r4, #1
10006306:	d092      	beq.n	1000622e <_ntoa_format+0x7a>
10006308:	9a0f      	ldr	r2, [sp, #60]	; 0x3c
1000630a:	2a10      	cmp	r2, #16
1000630c:	d02a      	beq.n	10006364 <_ntoa_format+0x1b0>
1000630e:	2a02      	cmp	r2, #2
10006310:	d02f      	beq.n	10006372 <_ntoa_format+0x1be>
10006312:	001c      	movs	r4, r3
10006314:	e7d0      	b.n	100062b8 <_ntoa_format+0x104>
10006316:	06bb      	lsls	r3, r7, #26
10006318:	d40e      	bmi.n	10006338 <_ntoa_format+0x184>
1000631a:	2c20      	cmp	r4, #32
1000631c:	d09a      	beq.n	10006254 <_ntoa_format+0xa0>
1000631e:	9b0c      	ldr	r3, [sp, #48]	; 0x30
10006320:	191a      	adds	r2, r3, r4
10006322:	3401      	adds	r4, #1
10006324:	2378      	movs	r3, #120	; 0x78
10006326:	7013      	strb	r3, [r2, #0]
10006328:	e7c4      	b.n	100062b4 <_ntoa_format+0x100>
1000632a:	06bb      	lsls	r3, r7, #26
1000632c:	d40d      	bmi.n	1000634a <_ntoa_format+0x196>
1000632e:	2378      	movs	r3, #120	; 0x78
10006330:	9a0c      	ldr	r2, [sp, #48]	; 0x30
10006332:	2401      	movs	r4, #1
10006334:	7013      	strb	r3, [r2, #0]
10006336:	e7bf      	b.n	100062b8 <_ntoa_format+0x104>
10006338:	2c20      	cmp	r4, #32
1000633a:	d100      	bne.n	1000633e <_ntoa_format+0x18a>
1000633c:	e78a      	b.n	10006254 <_ntoa_format+0xa0>
1000633e:	2258      	movs	r2, #88	; 0x58
10006340:	9b0c      	ldr	r3, [sp, #48]	; 0x30
10006342:	191b      	adds	r3, r3, r4
10006344:	701a      	strb	r2, [r3, #0]
10006346:	3401      	adds	r4, #1
10006348:	e7b4      	b.n	100062b4 <_ntoa_format+0x100>
1000634a:	2358      	movs	r3, #88	; 0x58
1000634c:	9a0c      	ldr	r2, [sp, #48]	; 0x30
1000634e:	2401      	movs	r4, #1
10006350:	7013      	strb	r3, [r2, #0]
10006352:	e7b1      	b.n	100062b8 <_ntoa_format+0x104>
10006354:	9a0c      	ldr	r2, [sp, #48]	; 0x30
10006356:	3360      	adds	r3, #96	; 0x60
10006358:	2401      	movs	r4, #1
1000635a:	7013      	strb	r3, [r2, #0]
1000635c:	e7ac      	b.n	100062b8 <_ntoa_format+0x104>
1000635e:	2420      	movs	r4, #32
10006360:	2600      	movs	r6, #0
10006362:	e75e      	b.n	10006222 <_ntoa_format+0x6e>
10006364:	3c02      	subs	r4, #2
10006366:	06ba      	lsls	r2, r7, #26
10006368:	d4e9      	bmi.n	1000633e <_ntoa_format+0x18a>
1000636a:	9a0c      	ldr	r2, [sp, #48]	; 0x30
1000636c:	1912      	adds	r2, r2, r4
1000636e:	001c      	movs	r4, r3
10006370:	e7d8      	b.n	10006324 <_ntoa_format+0x170>
10006372:	9a0c      	ldr	r2, [sp, #48]	; 0x30
10006374:	4692      	mov	sl, r2
10006376:	4453      	add	r3, sl
10006378:	2262      	movs	r2, #98	; 0x62
1000637a:	701a      	strb	r2, [r3, #0]
1000637c:	e79a      	b.n	100062b4 <_ntoa_format+0x100>
1000637e:	46c0      	nop			; (mov r8, r8)

10006380 <_out_char>:
10006380:	b510      	push	{r4, lr}
10006382:	2800      	cmp	r0, #0
10006384:	d100      	bne.n	10006388 <_out_char+0x8>
10006386:	bd10      	pop	{r4, pc}
10006388:	f001 fec8 	bl	1000811c <__wrap_putchar>
1000638c:	e7fb      	b.n	10006386 <_out_char+0x6>
1000638e:	46c0      	nop			; (mov r8, r8)

10006390 <_out_fct>:
10006390:	000b      	movs	r3, r1
10006392:	b510      	push	{r4, lr}
10006394:	2800      	cmp	r0, #0
10006396:	d002      	beq.n	1000639e <_out_fct+0xe>
10006398:	6849      	ldr	r1, [r1, #4]
1000639a:	681b      	ldr	r3, [r3, #0]
1000639c:	4798      	blx	r3
1000639e:	bd10      	pop	{r4, pc}

100063a0 <_etoa>:
100063a0:	b5f0      	push	{r4, r5, r6, r7, lr}
100063a2:	46de      	mov	lr, fp
100063a4:	4657      	mov	r7, sl
100063a6:	464e      	mov	r6, r9
100063a8:	4645      	mov	r5, r8
100063aa:	b5e0      	push	{r5, r6, r7, lr}
100063ac:	b09b      	sub	sp, #108	; 0x6c
100063ae:	469b      	mov	fp, r3
100063b0:	9b24      	ldr	r3, [sp, #144]	; 0x90
100063b2:	4689      	mov	r9, r1
100063b4:	4698      	mov	r8, r3
100063b6:	9b25      	ldr	r3, [sp, #148]	; 0x94
100063b8:	900b      	str	r0, [sp, #44]	; 0x2c
100063ba:	920c      	str	r2, [sp, #48]	; 0x30
100063bc:	4640      	mov	r0, r8
100063be:	4642      	mov	r2, r8
100063c0:	0019      	movs	r1, r3
100063c2:	469a      	mov	sl, r3
100063c4:	f001 fc77 	bl	10007cb6 <__wrap___aeabi_dcmpun>
100063c8:	2800      	cmp	r0, #0
100063ca:	d000      	beq.n	100063ce <_etoa+0x2e>
100063cc:	e0d8      	b.n	10006580 <_etoa+0x1e0>
100063ce:	2201      	movs	r2, #1
100063d0:	4640      	mov	r0, r8
100063d2:	4651      	mov	r1, sl
100063d4:	4b77      	ldr	r3, [pc, #476]	; (100065b4 <_etoa+0x214>)
100063d6:	4252      	negs	r2, r2
100063d8:	f001 fc68 	bl	10007cac <__wrap___aeabi_dcmpgt>
100063dc:	2800      	cmp	r0, #0
100063de:	d000      	beq.n	100063e2 <_etoa+0x42>
100063e0:	e0ce      	b.n	10006580 <_etoa+0x1e0>
100063e2:	2201      	movs	r2, #1
100063e4:	4640      	mov	r0, r8
100063e6:	4651      	mov	r1, sl
100063e8:	4b73      	ldr	r3, [pc, #460]	; (100065b8 <_etoa+0x218>)
100063ea:	4252      	negs	r2, r2
100063ec:	f001 fc48 	bl	10007c80 <__wrap___aeabi_dcmplt>
100063f0:	2800      	cmp	r0, #0
100063f2:	d000      	beq.n	100063f6 <_etoa+0x56>
100063f4:	e0c4      	b.n	10006580 <_etoa+0x1e0>
100063f6:	2200      	movs	r2, #0
100063f8:	2300      	movs	r3, #0
100063fa:	4640      	mov	r0, r8
100063fc:	4651      	mov	r1, sl
100063fe:	f001 fc3f 	bl	10007c80 <__wrap___aeabi_dcmplt>
10006402:	2800      	cmp	r0, #0
10006404:	d000      	beq.n	10006408 <_etoa+0x68>
10006406:	e1b9      	b.n	1000677c <_etoa+0x3dc>
10006408:	4642      	mov	r2, r8
1000640a:	4653      	mov	r3, sl
1000640c:	920a      	str	r2, [sp, #40]	; 0x28
1000640e:	9309      	str	r3, [sp, #36]	; 0x24
10006410:	2380      	movs	r3, #128	; 0x80
10006412:	9a28      	ldr	r2, [sp, #160]	; 0xa0
10006414:	00db      	lsls	r3, r3, #3
10006416:	401a      	ands	r2, r3
10006418:	920e      	str	r2, [sp, #56]	; 0x38
1000641a:	9a28      	ldr	r2, [sp, #160]	; 0xa0
1000641c:	421a      	tst	r2, r3
1000641e:	d101      	bne.n	10006424 <_etoa+0x84>
10006420:	2306      	movs	r3, #6
10006422:	9326      	str	r3, [sp, #152]	; 0x98
10006424:	9a0a      	ldr	r2, [sp, #40]	; 0x28
10006426:	9b09      	ldr	r3, [sp, #36]	; 0x24
10006428:	0016      	movs	r6, r2
1000642a:	4313      	orrs	r3, r2
1000642c:	d000      	beq.n	10006430 <_etoa+0x90>
1000642e:	e0c7      	b.n	100065c0 <_etoa+0x220>
10006430:	9b28      	ldr	r3, [sp, #160]	; 0xa0
10006432:	2500      	movs	r5, #0
10006434:	2600      	movs	r6, #0
10006436:	051b      	lsls	r3, r3, #20
10006438:	d400      	bmi.n	1000643c <_etoa+0x9c>
1000643a:	e19b      	b.n	10006774 <_etoa+0x3d4>
1000643c:	2300      	movs	r3, #0
1000643e:	930d      	str	r3, [sp, #52]	; 0x34
10006440:	9a26      	ldr	r2, [sp, #152]	; 0x98
10006442:	9b0d      	ldr	r3, [sp, #52]	; 0x34
10006444:	429a      	cmp	r2, r3
10006446:	dc00      	bgt.n	1000644a <_etoa+0xaa>
10006448:	e19f      	b.n	1000678a <_etoa+0x3ea>
1000644a:	1ad0      	subs	r0, r2, r3
1000644c:	1e43      	subs	r3, r0, #1
1000644e:	9326      	str	r3, [sp, #152]	; 0x98
10006450:	2380      	movs	r3, #128	; 0x80
10006452:	9a28      	ldr	r2, [sp, #160]	; 0xa0
10006454:	00db      	lsls	r3, r3, #3
10006456:	431a      	orrs	r2, r3
10006458:	2300      	movs	r3, #0
1000645a:	2700      	movs	r7, #0
1000645c:	9228      	str	r2, [sp, #160]	; 0xa0
1000645e:	930d      	str	r3, [sp, #52]	; 0x34
10006460:	9b27      	ldr	r3, [sp, #156]	; 0x9c
10006462:	2400      	movs	r4, #0
10006464:	42bb      	cmp	r3, r7
10006466:	d900      	bls.n	1000646a <_etoa+0xca>
10006468:	1bdc      	subs	r4, r3, r7
1000646a:	2302      	movs	r3, #2
1000646c:	9a28      	ldr	r2, [sp, #160]	; 0xa0
1000646e:	401a      	ands	r2, r3
10006470:	920e      	str	r2, [sp, #56]	; 0x38
10006472:	9a28      	ldr	r2, [sp, #160]	; 0xa0
10006474:	4213      	tst	r3, r2
10006476:	d003      	beq.n	10006480 <_etoa+0xe0>
10006478:	427b      	negs	r3, r7
1000647a:	417b      	adcs	r3, r7
1000647c:	425b      	negs	r3, r3
1000647e:	401c      	ands	r4, r3
10006480:	9b0d      	ldr	r3, [sp, #52]	; 0x34
10006482:	2b00      	cmp	r3, #0
10006484:	d007      	beq.n	10006496 <_etoa+0xf6>
10006486:	980a      	ldr	r0, [sp, #40]	; 0x28
10006488:	9909      	ldr	r1, [sp, #36]	; 0x24
1000648a:	002a      	movs	r2, r5
1000648c:	0033      	movs	r3, r6
1000648e:	f001 fb9e 	bl	10007bce <__wrap___aeabi_ddiv>
10006492:	900a      	str	r0, [sp, #40]	; 0x28
10006494:	9109      	str	r1, [sp, #36]	; 0x24
10006496:	2200      	movs	r2, #0
10006498:	2300      	movs	r3, #0
1000649a:	4640      	mov	r0, r8
1000649c:	4651      	mov	r1, sl
1000649e:	f001 fbef 	bl	10007c80 <__wrap___aeabi_dcmplt>
100064a2:	2800      	cmp	r0, #0
100064a4:	d005      	beq.n	100064b2 <_etoa+0x112>
100064a6:	2080      	movs	r0, #128	; 0x80
100064a8:	0600      	lsls	r0, r0, #24
100064aa:	4684      	mov	ip, r0
100064ac:	9909      	ldr	r1, [sp, #36]	; 0x24
100064ae:	4461      	add	r1, ip
100064b0:	9109      	str	r1, [sp, #36]	; 0x24
100064b2:	9a28      	ldr	r2, [sp, #160]	; 0xa0
100064b4:	4b41      	ldr	r3, [pc, #260]	; (100065bc <_etoa+0x21c>)
100064b6:	9d0b      	ldr	r5, [sp, #44]	; 0x2c
100064b8:	4013      	ands	r3, r2
100064ba:	9304      	str	r3, [sp, #16]
100064bc:	9b26      	ldr	r3, [sp, #152]	; 0x98
100064be:	9a0a      	ldr	r2, [sp, #40]	; 0x28
100064c0:	9302      	str	r3, [sp, #8]
100064c2:	9b09      	ldr	r3, [sp, #36]	; 0x24
100064c4:	9403      	str	r4, [sp, #12]
100064c6:	9200      	str	r2, [sp, #0]
100064c8:	9301      	str	r3, [sp, #4]
100064ca:	4649      	mov	r1, r9
100064cc:	465b      	mov	r3, fp
100064ce:	0028      	movs	r0, r5
100064d0:	9a0c      	ldr	r2, [sp, #48]	; 0x30
100064d2:	f000 f98b 	bl	100067ec <_ftoa>
100064d6:	0004      	movs	r4, r0
100064d8:	2f00      	cmp	r7, #0
100064da:	d062      	beq.n	100065a2 <_etoa+0x202>
100064dc:	9b28      	ldr	r3, [sp, #160]	; 0xa0
100064de:	0022      	movs	r2, r4
100064e0:	0698      	lsls	r0, r3, #26
100064e2:	231f      	movs	r3, #31
100064e4:	17c0      	asrs	r0, r0, #31
100064e6:	4398      	bics	r0, r3
100064e8:	1c63      	adds	r3, r4, #1
100064ea:	4698      	mov	r8, r3
100064ec:	4649      	mov	r1, r9
100064ee:	465b      	mov	r3, fp
100064f0:	3065      	adds	r0, #101	; 0x65
100064f2:	47a8      	blx	r5
100064f4:	9b0d      	ldr	r3, [sp, #52]	; 0x34
100064f6:	2500      	movs	r5, #0
100064f8:	17da      	asrs	r2, r3, #31
100064fa:	189c      	adds	r4, r3, r2
100064fc:	0fdb      	lsrs	r3, r3, #31
100064fe:	469a      	mov	sl, r3
10006500:	4054      	eors	r4, r2
10006502:	3f01      	subs	r7, #1
10006504:	e001      	b.n	1000650a <_etoa+0x16a>
10006506:	2d20      	cmp	r5, #32
10006508:	d013      	beq.n	10006532 <_etoa+0x192>
1000650a:	aa0a      	add	r2, sp, #40	; 0x28
1000650c:	4694      	mov	ip, r2
1000650e:	231f      	movs	r3, #31
10006510:	0020      	movs	r0, r4
10006512:	4463      	add	r3, ip
10006514:	210a      	movs	r1, #10
10006516:	3501      	adds	r5, #1
10006518:	195e      	adds	r6, r3, r5
1000651a:	f001 f913 	bl	10007744 <__wrap___aeabi_uidiv>
1000651e:	3130      	adds	r1, #48	; 0x30
10006520:	7031      	strb	r1, [r6, #0]
10006522:	0020      	movs	r0, r4
10006524:	210a      	movs	r1, #10
10006526:	f001 f90d 	bl	10007744 <__wrap___aeabi_uidiv>
1000652a:	0026      	movs	r6, r4
1000652c:	0004      	movs	r4, r0
1000652e:	2e09      	cmp	r6, #9
10006530:	d8e9      	bhi.n	10006506 <_etoa+0x166>
10006532:	2305      	movs	r3, #5
10006534:	9306      	str	r3, [sp, #24]
10006536:	2300      	movs	r3, #0
10006538:	9304      	str	r3, [sp, #16]
1000653a:	330a      	adds	r3, #10
1000653c:	9303      	str	r3, [sp, #12]
1000653e:	4653      	mov	r3, sl
10006540:	9705      	str	r7, [sp, #20]
10006542:	9f0b      	ldr	r7, [sp, #44]	; 0x2c
10006544:	9302      	str	r3, [sp, #8]
10006546:	ab12      	add	r3, sp, #72	; 0x48
10006548:	9300      	str	r3, [sp, #0]
1000654a:	4642      	mov	r2, r8
1000654c:	465b      	mov	r3, fp
1000654e:	4649      	mov	r1, r9
10006550:	0038      	movs	r0, r7
10006552:	9501      	str	r5, [sp, #4]
10006554:	f7ff fe2e 	bl	100061b4 <_ntoa_format>
10006558:	9b0e      	ldr	r3, [sp, #56]	; 0x38
1000655a:	0004      	movs	r4, r0
1000655c:	2b00      	cmp	r3, #0
1000655e:	d020      	beq.n	100065a2 <_etoa+0x202>
10006560:	9b0c      	ldr	r3, [sp, #48]	; 0x30
10006562:	1ac5      	subs	r5, r0, r3
10006564:	9b27      	ldr	r3, [sp, #156]	; 0x9c
10006566:	42ab      	cmp	r3, r5
10006568:	d91b      	bls.n	100065a2 <_etoa+0x202>
1000656a:	001e      	movs	r6, r3
1000656c:	0022      	movs	r2, r4
1000656e:	465b      	mov	r3, fp
10006570:	4649      	mov	r1, r9
10006572:	2020      	movs	r0, #32
10006574:	3501      	adds	r5, #1
10006576:	47b8      	blx	r7
10006578:	3401      	adds	r4, #1
1000657a:	42ae      	cmp	r6, r5
1000657c:	d8f6      	bhi.n	1000656c <_etoa+0x1cc>
1000657e:	e010      	b.n	100065a2 <_etoa+0x202>
10006580:	9b28      	ldr	r3, [sp, #160]	; 0xa0
10006582:	4642      	mov	r2, r8
10006584:	9304      	str	r3, [sp, #16]
10006586:	9b27      	ldr	r3, [sp, #156]	; 0x9c
10006588:	4649      	mov	r1, r9
1000658a:	9303      	str	r3, [sp, #12]
1000658c:	9b26      	ldr	r3, [sp, #152]	; 0x98
1000658e:	980b      	ldr	r0, [sp, #44]	; 0x2c
10006590:	9302      	str	r3, [sp, #8]
10006592:	4653      	mov	r3, sl
10006594:	9200      	str	r2, [sp, #0]
10006596:	9301      	str	r3, [sp, #4]
10006598:	465b      	mov	r3, fp
1000659a:	9a0c      	ldr	r2, [sp, #48]	; 0x30
1000659c:	f000 f926 	bl	100067ec <_ftoa>
100065a0:	0004      	movs	r4, r0
100065a2:	0020      	movs	r0, r4
100065a4:	b01b      	add	sp, #108	; 0x6c
100065a6:	bcf0      	pop	{r4, r5, r6, r7}
100065a8:	46bb      	mov	fp, r7
100065aa:	46b2      	mov	sl, r6
100065ac:	46a9      	mov	r9, r5
100065ae:	46a0      	mov	r8, r4
100065b0:	bdf0      	pop	{r4, r5, r6, r7, pc}
100065b2:	46c0      	nop			; (mov r8, r8)
100065b4:	7fefffff 	.word	0x7fefffff
100065b8:	ffefffff 	.word	0xffefffff
100065bc:	fffff7ff 	.word	0xfffff7ff
100065c0:	4b73      	ldr	r3, [pc, #460]	; (10006790 <_etoa+0x3f0>)
100065c2:	9f09      	ldr	r7, [sp, #36]	; 0x24
100065c4:	469c      	mov	ip, r3
100065c6:	0078      	lsls	r0, r7, #1
100065c8:	0d40      	lsrs	r0, r0, #21
100065ca:	4460      	add	r0, ip
100065cc:	f001 fb86 	bl	10007cdc <__wrap___aeabi_i2d>
100065d0:	4a70      	ldr	r2, [pc, #448]	; (10006794 <_etoa+0x3f4>)
100065d2:	4b71      	ldr	r3, [pc, #452]	; (10006798 <_etoa+0x3f8>)
100065d4:	f001 fb15 	bl	10007c02 <__wrap___aeabi_dmul>
100065d8:	4a70      	ldr	r2, [pc, #448]	; (1000679c <_etoa+0x3fc>)
100065da:	4b71      	ldr	r3, [pc, #452]	; (100067a0 <_etoa+0x400>)
100065dc:	f001 faf2 	bl	10007bc4 <__wrap___aeabi_dadd>
100065e0:	033b      	lsls	r3, r7, #12
100065e2:	4a70      	ldr	r2, [pc, #448]	; (100067a4 <_etoa+0x404>)
100065e4:	0b1b      	lsrs	r3, r3, #12
100065e6:	431a      	orrs	r2, r3
100065e8:	0004      	movs	r4, r0
100065ea:	000d      	movs	r5, r1
100065ec:	0030      	movs	r0, r6
100065ee:	0011      	movs	r1, r2
100065f0:	4b6d      	ldr	r3, [pc, #436]	; (100067a8 <_etoa+0x408>)
100065f2:	2200      	movs	r2, #0
100065f4:	f001 fae1 	bl	10007bba <__wrap___aeabi_dsub>
100065f8:	4a6c      	ldr	r2, [pc, #432]	; (100067ac <_etoa+0x40c>)
100065fa:	4b6d      	ldr	r3, [pc, #436]	; (100067b0 <_etoa+0x410>)
100065fc:	f001 fb01 	bl	10007c02 <__wrap___aeabi_dmul>
10006600:	0002      	movs	r2, r0
10006602:	000b      	movs	r3, r1
10006604:	0020      	movs	r0, r4
10006606:	0029      	movs	r1, r5
10006608:	f001 fadc 	bl	10007bc4 <__wrap___aeabi_dadd>
1000660c:	f001 fb7e 	bl	10007d0c <__wrap___aeabi_d2iz>
10006610:	900d      	str	r0, [sp, #52]	; 0x34
10006612:	f001 fb63 	bl	10007cdc <__wrap___aeabi_i2d>
10006616:	4a67      	ldr	r2, [pc, #412]	; (100067b4 <_etoa+0x414>)
10006618:	4b67      	ldr	r3, [pc, #412]	; (100067b8 <_etoa+0x418>)
1000661a:	0004      	movs	r4, r0
1000661c:	000d      	movs	r5, r1
1000661e:	f001 faf0 	bl	10007c02 <__wrap___aeabi_dmul>
10006622:	2200      	movs	r2, #0
10006624:	4b65      	ldr	r3, [pc, #404]	; (100067bc <_etoa+0x41c>)
10006626:	f001 facd 	bl	10007bc4 <__wrap___aeabi_dadd>
1000662a:	f001 fb6f 	bl	10007d0c <__wrap___aeabi_d2iz>
1000662e:	4a64      	ldr	r2, [pc, #400]	; (100067c0 <_etoa+0x420>)
10006630:	0006      	movs	r6, r0
10006632:	4b64      	ldr	r3, [pc, #400]	; (100067c4 <_etoa+0x424>)
10006634:	0020      	movs	r0, r4
10006636:	0029      	movs	r1, r5
10006638:	f001 fae3 	bl	10007c02 <__wrap___aeabi_dmul>
1000663c:	0004      	movs	r4, r0
1000663e:	0030      	movs	r0, r6
10006640:	000d      	movs	r5, r1
10006642:	960f      	str	r6, [sp, #60]	; 0x3c
10006644:	f001 fb4a 	bl	10007cdc <__wrap___aeabi_i2d>
10006648:	4a5f      	ldr	r2, [pc, #380]	; (100067c8 <_etoa+0x428>)
1000664a:	4b60      	ldr	r3, [pc, #384]	; (100067cc <_etoa+0x42c>)
1000664c:	f001 fad9 	bl	10007c02 <__wrap___aeabi_dmul>
10006650:	0002      	movs	r2, r0
10006652:	000b      	movs	r3, r1
10006654:	0020      	movs	r0, r4
10006656:	0029      	movs	r1, r5
10006658:	f001 faaf 	bl	10007bba <__wrap___aeabi_dsub>
1000665c:	0002      	movs	r2, r0
1000665e:	000b      	movs	r3, r1
10006660:	0006      	movs	r6, r0
10006662:	000f      	movs	r7, r1
10006664:	f001 facd 	bl	10007c02 <__wrap___aeabi_dmul>
10006668:	0032      	movs	r2, r6
1000666a:	0004      	movs	r4, r0
1000666c:	000d      	movs	r5, r1
1000666e:	003b      	movs	r3, r7
10006670:	0030      	movs	r0, r6
10006672:	0039      	movs	r1, r7
10006674:	f001 faa6 	bl	10007bc4 <__wrap___aeabi_dadd>
10006678:	2200      	movs	r2, #0
1000667a:	9010      	str	r0, [sp, #64]	; 0x40
1000667c:	9111      	str	r1, [sp, #68]	; 0x44
1000667e:	4b54      	ldr	r3, [pc, #336]	; (100067d0 <_etoa+0x430>)
10006680:	0020      	movs	r0, r4
10006682:	0029      	movs	r1, r5
10006684:	f001 faa3 	bl	10007bce <__wrap___aeabi_ddiv>
10006688:	2200      	movs	r2, #0
1000668a:	4b52      	ldr	r3, [pc, #328]	; (100067d4 <_etoa+0x434>)
1000668c:	f001 fa9a 	bl	10007bc4 <__wrap___aeabi_dadd>
10006690:	0002      	movs	r2, r0
10006692:	000b      	movs	r3, r1
10006694:	0020      	movs	r0, r4
10006696:	0029      	movs	r1, r5
10006698:	f001 fa99 	bl	10007bce <__wrap___aeabi_ddiv>
1000669c:	2200      	movs	r2, #0
1000669e:	4b4e      	ldr	r3, [pc, #312]	; (100067d8 <_etoa+0x438>)
100066a0:	f001 fa90 	bl	10007bc4 <__wrap___aeabi_dadd>
100066a4:	0002      	movs	r2, r0
100066a6:	000b      	movs	r3, r1
100066a8:	0020      	movs	r0, r4
100066aa:	0029      	movs	r1, r5
100066ac:	f001 fa8f 	bl	10007bce <__wrap___aeabi_ddiv>
100066b0:	000d      	movs	r5, r1
100066b2:	2180      	movs	r1, #128	; 0x80
100066b4:	0004      	movs	r4, r0
100066b6:	0032      	movs	r2, r6
100066b8:	003b      	movs	r3, r7
100066ba:	2000      	movs	r0, #0
100066bc:	05c9      	lsls	r1, r1, #23
100066be:	f001 fa7c 	bl	10007bba <__wrap___aeabi_dsub>
100066c2:	0002      	movs	r2, r0
100066c4:	000b      	movs	r3, r1
100066c6:	0020      	movs	r0, r4
100066c8:	0029      	movs	r1, r5
100066ca:	f001 fa7b 	bl	10007bc4 <__wrap___aeabi_dadd>
100066ce:	0002      	movs	r2, r0
100066d0:	000b      	movs	r3, r1
100066d2:	9810      	ldr	r0, [sp, #64]	; 0x40
100066d4:	9911      	ldr	r1, [sp, #68]	; 0x44
100066d6:	f001 fa7a 	bl	10007bce <__wrap___aeabi_ddiv>
100066da:	2200      	movs	r2, #0
100066dc:	4b31      	ldr	r3, [pc, #196]	; (100067a4 <_etoa+0x404>)
100066de:	f001 fa71 	bl	10007bc4 <__wrap___aeabi_dadd>
100066e2:	4b3e      	ldr	r3, [pc, #248]	; (100067dc <_etoa+0x43c>)
100066e4:	9c0f      	ldr	r4, [sp, #60]	; 0x3c
100066e6:	469c      	mov	ip, r3
100066e8:	4464      	add	r4, ip
100066ea:	2200      	movs	r2, #0
100066ec:	0523      	lsls	r3, r4, #20
100066ee:	f001 fa88 	bl	10007c02 <__wrap___aeabi_dmul>
100066f2:	0005      	movs	r5, r0
100066f4:	000e      	movs	r6, r1
100066f6:	0002      	movs	r2, r0
100066f8:	000b      	movs	r3, r1
100066fa:	980a      	ldr	r0, [sp, #40]	; 0x28
100066fc:	9909      	ldr	r1, [sp, #36]	; 0x24
100066fe:	f001 fabf 	bl	10007c80 <__wrap___aeabi_dcmplt>
10006702:	2800      	cmp	r0, #0
10006704:	d00a      	beq.n	1000671c <_etoa+0x37c>
10006706:	9b0d      	ldr	r3, [sp, #52]	; 0x34
10006708:	0028      	movs	r0, r5
1000670a:	3b01      	subs	r3, #1
1000670c:	0031      	movs	r1, r6
1000670e:	930d      	str	r3, [sp, #52]	; 0x34
10006710:	2200      	movs	r2, #0
10006712:	4b30      	ldr	r3, [pc, #192]	; (100067d4 <_etoa+0x434>)
10006714:	f001 fa5b 	bl	10007bce <__wrap___aeabi_ddiv>
10006718:	0005      	movs	r5, r0
1000671a:	000e      	movs	r6, r1
1000671c:	27c6      	movs	r7, #198	; 0xc6
1000671e:	990d      	ldr	r1, [sp, #52]	; 0x34
10006720:	002b      	movs	r3, r5
10006722:	3163      	adds	r1, #99	; 0x63
10006724:	428f      	cmp	r7, r1
10006726:	41bf      	sbcs	r7, r7
10006728:	9928      	ldr	r1, [sp, #160]	; 0xa0
1000672a:	427f      	negs	r7, r7
1000672c:	3704      	adds	r7, #4
1000672e:	0509      	lsls	r1, r1, #20
10006730:	d400      	bmi.n	10006734 <_etoa+0x394>
10006732:	e695      	b.n	10006460 <_etoa+0xc0>
10006734:	4333      	orrs	r3, r6
10006736:	d100      	bne.n	1000673a <_etoa+0x39a>
10006738:	e682      	b.n	10006440 <_etoa+0xa0>
1000673a:	9c09      	ldr	r4, [sp, #36]	; 0x24
1000673c:	4a28      	ldr	r2, [pc, #160]	; (100067e0 <_etoa+0x440>)
1000673e:	0021      	movs	r1, r4
10006740:	4b28      	ldr	r3, [pc, #160]	; (100067e4 <_etoa+0x444>)
10006742:	980a      	ldr	r0, [sp, #40]	; 0x28
10006744:	f001 faaa 	bl	10007c9c <__wrap___aeabi_dcmpge>
10006748:	2800      	cmp	r0, #0
1000674a:	d008      	beq.n	1000675e <_etoa+0x3be>
1000674c:	2200      	movs	r2, #0
1000674e:	0021      	movs	r1, r4
10006750:	4b25      	ldr	r3, [pc, #148]	; (100067e8 <_etoa+0x448>)
10006752:	980a      	ldr	r0, [sp, #40]	; 0x28
10006754:	f001 fa94 	bl	10007c80 <__wrap___aeabi_dcmplt>
10006758:	2800      	cmp	r0, #0
1000675a:	d000      	beq.n	1000675e <_etoa+0x3be>
1000675c:	e670      	b.n	10006440 <_etoa+0xa0>
1000675e:	9b26      	ldr	r3, [sp, #152]	; 0x98
10006760:	2b00      	cmp	r3, #0
10006762:	d100      	bne.n	10006766 <_etoa+0x3c6>
10006764:	e67c      	b.n	10006460 <_etoa+0xc0>
10006766:	9b0e      	ldr	r3, [sp, #56]	; 0x38
10006768:	1e5a      	subs	r2, r3, #1
1000676a:	4193      	sbcs	r3, r2
1000676c:	9a26      	ldr	r2, [sp, #152]	; 0x98
1000676e:	1ad3      	subs	r3, r2, r3
10006770:	9326      	str	r3, [sp, #152]	; 0x98
10006772:	e675      	b.n	10006460 <_etoa+0xc0>
10006774:	2300      	movs	r3, #0
10006776:	2704      	movs	r7, #4
10006778:	930d      	str	r3, [sp, #52]	; 0x34
1000677a:	e671      	b.n	10006460 <_etoa+0xc0>
1000677c:	4643      	mov	r3, r8
1000677e:	930a      	str	r3, [sp, #40]	; 0x28
10006780:	2380      	movs	r3, #128	; 0x80
10006782:	061b      	lsls	r3, r3, #24
10006784:	4453      	add	r3, sl
10006786:	9309      	str	r3, [sp, #36]	; 0x24
10006788:	e642      	b.n	10006410 <_etoa+0x70>
1000678a:	2300      	movs	r3, #0
1000678c:	9326      	str	r3, [sp, #152]	; 0x98
1000678e:	e65f      	b.n	10006450 <_etoa+0xb0>
10006790:	fffffc01 	.word	0xfffffc01
10006794:	509f79fb 	.word	0x509f79fb
10006798:	3fd34413 	.word	0x3fd34413
1000679c:	8b60c8b3 	.word	0x8b60c8b3
100067a0:	3fc68a28 	.word	0x3fc68a28
100067a4:	3ff00000 	.word	0x3ff00000
100067a8:	3ff80000 	.word	0x3ff80000
100067ac:	636f4361 	.word	0x636f4361
100067b0:	3fd287a7 	.word	0x3fd287a7
100067b4:	0979a371 	.word	0x0979a371
100067b8:	400a934f 	.word	0x400a934f
100067bc:	3fe00000 	.word	0x3fe00000
100067c0:	bbb55516 	.word	0xbbb55516
100067c4:	40026bb1 	.word	0x40026bb1
100067c8:	fefa39ef 	.word	0xfefa39ef
100067cc:	3fe62e42 	.word	0x3fe62e42
100067d0:	402c0000 	.word	0x402c0000
100067d4:	40240000 	.word	0x40240000
100067d8:	40180000 	.word	0x40180000
100067dc:	000003ff 	.word	0x000003ff
100067e0:	eb1c432d 	.word	0xeb1c432d
100067e4:	3f1a36e2 	.word	0x3f1a36e2
100067e8:	412e8480 	.word	0x412e8480

100067ec <_ftoa>:
100067ec:	b5f0      	push	{r4, r5, r6, r7, lr}
100067ee:	464e      	mov	r6, r9
100067f0:	46de      	mov	lr, fp
100067f2:	4657      	mov	r7, sl
100067f4:	4645      	mov	r5, r8
100067f6:	b5e0      	push	{r5, r6, r7, lr}
100067f8:	b097      	sub	sp, #92	; 0x5c
100067fa:	4699      	mov	r9, r3
100067fc:	9e20      	ldr	r6, [sp, #128]	; 0x80
100067fe:	9f21      	ldr	r7, [sp, #132]	; 0x84
10006800:	9b22      	ldr	r3, [sp, #136]	; 0x88
10006802:	4683      	mov	fp, r0
10006804:	4698      	mov	r8, r3
10006806:	9107      	str	r1, [sp, #28]
10006808:	920c      	str	r2, [sp, #48]	; 0x30
1000680a:	003b      	movs	r3, r7
1000680c:	0032      	movs	r2, r6
1000680e:	0030      	movs	r0, r6
10006810:	0039      	movs	r1, r7
10006812:	f001 fa50 	bl	10007cb6 <__wrap___aeabi_dcmpun>
10006816:	2800      	cmp	r0, #0
10006818:	d000      	beq.n	1000681c <_ftoa+0x30>
1000681a:	e1a9      	b.n	10006b70 <_ftoa+0x384>
1000681c:	2201      	movs	r2, #1
1000681e:	0030      	movs	r0, r6
10006820:	0039      	movs	r1, r7
10006822:	4bca      	ldr	r3, [pc, #808]	; (10006b4c <_ftoa+0x360>)
10006824:	4252      	negs	r2, r2
10006826:	f001 fa2b 	bl	10007c80 <__wrap___aeabi_dcmplt>
1000682a:	2800      	cmp	r0, #0
1000682c:	d000      	beq.n	10006830 <_ftoa+0x44>
1000682e:	e0e1      	b.n	100069f4 <_ftoa+0x208>
10006830:	2201      	movs	r2, #1
10006832:	0030      	movs	r0, r6
10006834:	0039      	movs	r1, r7
10006836:	4bc6      	ldr	r3, [pc, #792]	; (10006b50 <_ftoa+0x364>)
10006838:	4252      	negs	r2, r2
1000683a:	f001 fa37 	bl	10007cac <__wrap___aeabi_dcmpgt>
1000683e:	2800      	cmp	r0, #0
10006840:	d000      	beq.n	10006844 <_ftoa+0x58>
10006842:	e0b7      	b.n	100069b4 <_ftoa+0x1c8>
10006844:	2200      	movs	r2, #0
10006846:	0030      	movs	r0, r6
10006848:	0039      	movs	r1, r7
1000684a:	4bc2      	ldr	r3, [pc, #776]	; (10006b54 <_ftoa+0x368>)
1000684c:	f001 fa2e 	bl	10007cac <__wrap___aeabi_dcmpgt>
10006850:	2800      	cmp	r0, #0
10006852:	d000      	beq.n	10006856 <_ftoa+0x6a>
10006854:	e099      	b.n	1000698a <_ftoa+0x19e>
10006856:	2200      	movs	r2, #0
10006858:	0030      	movs	r0, r6
1000685a:	0039      	movs	r1, r7
1000685c:	4bbe      	ldr	r3, [pc, #760]	; (10006b58 <_ftoa+0x36c>)
1000685e:	f001 fa0f 	bl	10007c80 <__wrap___aeabi_dcmplt>
10006862:	2800      	cmp	r0, #0
10006864:	d000      	beq.n	10006868 <_ftoa+0x7c>
10006866:	e090      	b.n	1000698a <_ftoa+0x19e>
10006868:	2200      	movs	r2, #0
1000686a:	2300      	movs	r3, #0
1000686c:	0030      	movs	r0, r6
1000686e:	0039      	movs	r1, r7
10006870:	f001 fa06 	bl	10007c80 <__wrap___aeabi_dcmplt>
10006874:	2800      	cmp	r0, #0
10006876:	d000      	beq.n	1000687a <_ftoa+0x8e>
10006878:	e0b1      	b.n	100069de <_ftoa+0x1f2>
1000687a:	2300      	movs	r3, #0
1000687c:	930d      	str	r3, [sp, #52]	; 0x34
1000687e:	9b24      	ldr	r3, [sp, #144]	; 0x90
10006880:	055b      	lsls	r3, r3, #21
10006882:	d401      	bmi.n	10006888 <_ftoa+0x9c>
10006884:	2306      	movs	r3, #6
10006886:	4698      	mov	r8, r3
10006888:	ab08      	add	r3, sp, #32
1000688a:	469c      	mov	ip, r3
1000688c:	2217      	movs	r2, #23
1000688e:	2400      	movs	r4, #0
10006890:	2330      	movs	r3, #48	; 0x30
10006892:	4641      	mov	r1, r8
10006894:	4462      	add	r2, ip
10006896:	e004      	b.n	100068a2 <_ftoa+0xb6>
10006898:	3401      	adds	r4, #1
1000689a:	5513      	strb	r3, [r2, r4]
1000689c:	3901      	subs	r1, #1
1000689e:	2c20      	cmp	r4, #32
100068a0:	d001      	beq.n	100068a6 <_ftoa+0xba>
100068a2:	2909      	cmp	r1, #9
100068a4:	d8f8      	bhi.n	10006898 <_ftoa+0xac>
100068a6:	4688      	mov	r8, r1
100068a8:	0030      	movs	r0, r6
100068aa:	0039      	movs	r1, r7
100068ac:	f001 fa2e 	bl	10007d0c <__wrap___aeabi_d2iz>
100068b0:	4643      	mov	r3, r8
100068b2:	00da      	lsls	r2, r3, #3
100068b4:	4ba9      	ldr	r3, [pc, #676]	; (10006b5c <_ftoa+0x370>)
100068b6:	0005      	movs	r5, r0
100068b8:	189b      	adds	r3, r3, r2
100068ba:	681a      	ldr	r2, [r3, #0]
100068bc:	685b      	ldr	r3, [r3, #4]
100068be:	9208      	str	r2, [sp, #32]
100068c0:	9309      	str	r3, [sp, #36]	; 0x24
100068c2:	f001 fa0b 	bl	10007cdc <__wrap___aeabi_i2d>
100068c6:	0002      	movs	r2, r0
100068c8:	000b      	movs	r3, r1
100068ca:	0030      	movs	r0, r6
100068cc:	0039      	movs	r1, r7
100068ce:	f001 f974 	bl	10007bba <__wrap___aeabi_dsub>
100068d2:	9a08      	ldr	r2, [sp, #32]
100068d4:	9b09      	ldr	r3, [sp, #36]	; 0x24
100068d6:	f001 f994 	bl	10007c02 <__wrap___aeabi_dmul>
100068da:	900a      	str	r0, [sp, #40]	; 0x28
100068dc:	910b      	str	r1, [sp, #44]	; 0x2c
100068de:	f001 fa39 	bl	10007d54 <__wrap___aeabi_d2uiz>
100068e2:	4682      	mov	sl, r0
100068e4:	f001 f9f6 	bl	10007cd4 <__wrap___aeabi_ui2d>
100068e8:	0002      	movs	r2, r0
100068ea:	000b      	movs	r3, r1
100068ec:	980a      	ldr	r0, [sp, #40]	; 0x28
100068ee:	990b      	ldr	r1, [sp, #44]	; 0x2c
100068f0:	f001 f963 	bl	10007bba <__wrap___aeabi_dsub>
100068f4:	2200      	movs	r2, #0
100068f6:	4b9a      	ldr	r3, [pc, #616]	; (10006b60 <_ftoa+0x374>)
100068f8:	900a      	str	r0, [sp, #40]	; 0x28
100068fa:	910b      	str	r1, [sp, #44]	; 0x2c
100068fc:	f001 f9d6 	bl	10007cac <__wrap___aeabi_dcmpgt>
10006900:	2800      	cmp	r0, #0
10006902:	d100      	bne.n	10006906 <_ftoa+0x11a>
10006904:	e0c0      	b.n	10006a88 <_ftoa+0x29c>
10006906:	2301      	movs	r3, #1
10006908:	469c      	mov	ip, r3
1000690a:	44e2      	add	sl, ip
1000690c:	4650      	mov	r0, sl
1000690e:	f001 f9e1 	bl	10007cd4 <__wrap___aeabi_ui2d>
10006912:	0002      	movs	r2, r0
10006914:	000b      	movs	r3, r1
10006916:	9808      	ldr	r0, [sp, #32]
10006918:	9909      	ldr	r1, [sp, #36]	; 0x24
1000691a:	f001 f9b7 	bl	10007c8c <__wrap___aeabi_dcmple>
1000691e:	2800      	cmp	r0, #0
10006920:	d002      	beq.n	10006928 <_ftoa+0x13c>
10006922:	2300      	movs	r3, #0
10006924:	469a      	mov	sl, r3
10006926:	3501      	adds	r5, #1
10006928:	4643      	mov	r3, r8
1000692a:	2b00      	cmp	r3, #0
1000692c:	d06a      	beq.n	10006a04 <_ftoa+0x218>
1000692e:	ab08      	add	r3, sp, #32
10006930:	2617      	movs	r6, #23
10006932:	469c      	mov	ip, r3
10006934:	9508      	str	r5, [sp, #32]
10006936:	4466      	add	r6, ip
10006938:	4655      	mov	r5, sl
1000693a:	e014      	b.n	10006966 <_ftoa+0x17a>
1000693c:	2301      	movs	r3, #1
1000693e:	425b      	negs	r3, r3
10006940:	4443      	add	r3, r8
10006942:	210a      	movs	r1, #10
10006944:	0028      	movs	r0, r5
10006946:	469a      	mov	sl, r3
10006948:	f000 fefc 	bl	10007744 <__wrap___aeabi_uidiv>
1000694c:	3401      	adds	r4, #1
1000694e:	3130      	adds	r1, #48	; 0x30
10006950:	1937      	adds	r7, r6, r4
10006952:	7039      	strb	r1, [r7, #0]
10006954:	0028      	movs	r0, r5
10006956:	210a      	movs	r1, #10
10006958:	f000 fef4 	bl	10007744 <__wrap___aeabi_uidiv>
1000695c:	2d09      	cmp	r5, #9
1000695e:	d800      	bhi.n	10006962 <_ftoa+0x176>
10006960:	e0d0      	b.n	10006b04 <_ftoa+0x318>
10006962:	46d0      	mov	r8, sl
10006964:	0005      	movs	r5, r0
10006966:	2c20      	cmp	r4, #32
10006968:	d1e8      	bne.n	1000693c <_ftoa+0x150>
1000696a:	ab0e      	add	r3, sp, #56	; 0x38
1000696c:	4698      	mov	r8, r3
1000696e:	2303      	movs	r3, #3
10006970:	9a24      	ldr	r2, [sp, #144]	; 0x90
10006972:	4013      	ands	r3, r2
10006974:	2b01      	cmp	r3, #1
10006976:	d100      	bne.n	1000697a <_ftoa+0x18e>
10006978:	e096      	b.n	10006aa8 <_ftoa+0x2bc>
1000697a:	2320      	movs	r3, #32
1000697c:	9a24      	ldr	r2, [sp, #144]	; 0x90
1000697e:	9301      	str	r3, [sp, #4]
10006980:	9203      	str	r2, [sp, #12]
10006982:	9a23      	ldr	r2, [sp, #140]	; 0x8c
10006984:	4643      	mov	r3, r8
10006986:	9202      	str	r2, [sp, #8]
10006988:	e01e      	b.n	100069c8 <_ftoa+0x1dc>
1000698a:	9b24      	ldr	r3, [sp, #144]	; 0x90
1000698c:	4658      	mov	r0, fp
1000698e:	9304      	str	r3, [sp, #16]
10006990:	9b23      	ldr	r3, [sp, #140]	; 0x8c
10006992:	9600      	str	r6, [sp, #0]
10006994:	9701      	str	r7, [sp, #4]
10006996:	9303      	str	r3, [sp, #12]
10006998:	4643      	mov	r3, r8
1000699a:	9a0c      	ldr	r2, [sp, #48]	; 0x30
1000699c:	9302      	str	r3, [sp, #8]
1000699e:	9907      	ldr	r1, [sp, #28]
100069a0:	464b      	mov	r3, r9
100069a2:	f7ff fcfd 	bl	100063a0 <_etoa>
100069a6:	b017      	add	sp, #92	; 0x5c
100069a8:	bcf0      	pop	{r4, r5, r6, r7}
100069aa:	46bb      	mov	fp, r7
100069ac:	46b2      	mov	sl, r6
100069ae:	46a9      	mov	r9, r5
100069b0:	46a0      	mov	r8, r4
100069b2:	bdf0      	pop	{r4, r5, r6, r7, pc}
100069b4:	9b24      	ldr	r3, [sp, #144]	; 0x90
100069b6:	075b      	lsls	r3, r3, #29
100069b8:	d40e      	bmi.n	100069d8 <_ftoa+0x1ec>
100069ba:	2203      	movs	r2, #3
100069bc:	4b69      	ldr	r3, [pc, #420]	; (10006b64 <_ftoa+0x378>)
100069be:	9924      	ldr	r1, [sp, #144]	; 0x90
100069c0:	9201      	str	r2, [sp, #4]
100069c2:	9103      	str	r1, [sp, #12]
100069c4:	9923      	ldr	r1, [sp, #140]	; 0x8c
100069c6:	9102      	str	r1, [sp, #8]
100069c8:	9300      	str	r3, [sp, #0]
100069ca:	4658      	mov	r0, fp
100069cc:	464b      	mov	r3, r9
100069ce:	9a0c      	ldr	r2, [sp, #48]	; 0x30
100069d0:	9907      	ldr	r1, [sp, #28]
100069d2:	f7ff fba1 	bl	10006118 <_out_rev>
100069d6:	e7e6      	b.n	100069a6 <_ftoa+0x1ba>
100069d8:	2204      	movs	r2, #4
100069da:	4b63      	ldr	r3, [pc, #396]	; (10006b68 <_ftoa+0x37c>)
100069dc:	e7ef      	b.n	100069be <_ftoa+0x1d2>
100069de:	003b      	movs	r3, r7
100069e0:	0032      	movs	r2, r6
100069e2:	2000      	movs	r0, #0
100069e4:	2100      	movs	r1, #0
100069e6:	f001 f8e8 	bl	10007bba <__wrap___aeabi_dsub>
100069ea:	2301      	movs	r3, #1
100069ec:	0006      	movs	r6, r0
100069ee:	000f      	movs	r7, r1
100069f0:	930d      	str	r3, [sp, #52]	; 0x34
100069f2:	e744      	b.n	1000687e <_ftoa+0x92>
100069f4:	9b24      	ldr	r3, [sp, #144]	; 0x90
100069f6:	9303      	str	r3, [sp, #12]
100069f8:	9b23      	ldr	r3, [sp, #140]	; 0x8c
100069fa:	9302      	str	r3, [sp, #8]
100069fc:	2304      	movs	r3, #4
100069fe:	9301      	str	r3, [sp, #4]
10006a00:	4b5a      	ldr	r3, [pc, #360]	; (10006b6c <_ftoa+0x380>)
10006a02:	e7e1      	b.n	100069c8 <_ftoa+0x1dc>
10006a04:	0028      	movs	r0, r5
10006a06:	f001 f969 	bl	10007cdc <__wrap___aeabi_i2d>
10006a0a:	0002      	movs	r2, r0
10006a0c:	000b      	movs	r3, r1
10006a0e:	0030      	movs	r0, r6
10006a10:	0039      	movs	r1, r7
10006a12:	f001 f8d2 	bl	10007bba <__wrap___aeabi_dsub>
10006a16:	4b52      	ldr	r3, [pc, #328]	; (10006b60 <_ftoa+0x374>)
10006a18:	2200      	movs	r2, #0
10006a1a:	0006      	movs	r6, r0
10006a1c:	000f      	movs	r7, r1
10006a1e:	f001 f92f 	bl	10007c80 <__wrap___aeabi_dcmplt>
10006a22:	ab0e      	add	r3, sp, #56	; 0x38
10006a24:	4698      	mov	r8, r3
10006a26:	2800      	cmp	r0, #0
10006a28:	d10a      	bne.n	10006a40 <_ftoa+0x254>
10006a2a:	2200      	movs	r2, #0
10006a2c:	0030      	movs	r0, r6
10006a2e:	0039      	movs	r1, r7
10006a30:	4b4b      	ldr	r3, [pc, #300]	; (10006b60 <_ftoa+0x374>)
10006a32:	f001 f93b 	bl	10007cac <__wrap___aeabi_dcmpgt>
10006a36:	2800      	cmp	r0, #0
10006a38:	d102      	bne.n	10006a40 <_ftoa+0x254>
10006a3a:	07eb      	lsls	r3, r5, #31
10006a3c:	d500      	bpl.n	10006a40 <_ftoa+0x254>
10006a3e:	3501      	adds	r5, #1
10006a40:	2c20      	cmp	r4, #32
10006a42:	d094      	beq.n	1000696e <_ftoa+0x182>
10006a44:	aa08      	add	r2, sp, #32
10006a46:	4694      	mov	ip, r2
10006a48:	2317      	movs	r3, #23
10006a4a:	0028      	movs	r0, r5
10006a4c:	4463      	add	r3, ip
10006a4e:	210a      	movs	r1, #10
10006a50:	3401      	adds	r4, #1
10006a52:	191e      	adds	r6, r3, r4
10006a54:	f000 fe4e 	bl	100076f4 <__wrap___aeabi_idiv>
10006a58:	3130      	adds	r1, #48	; 0x30
10006a5a:	0028      	movs	r0, r5
10006a5c:	7031      	strb	r1, [r6, #0]
10006a5e:	210a      	movs	r1, #10
10006a60:	f000 fe48 	bl	100076f4 <__wrap___aeabi_idiv>
10006a64:	1e05      	subs	r5, r0, #0
10006a66:	d1eb      	bne.n	10006a40 <_ftoa+0x254>
10006a68:	2303      	movs	r3, #3
10006a6a:	9a24      	ldr	r2, [sp, #144]	; 0x90
10006a6c:	4013      	ands	r3, r2
10006a6e:	2b01      	cmp	r3, #1
10006a70:	d01b      	beq.n	10006aaa <_ftoa+0x2be>
10006a72:	2c20      	cmp	r4, #32
10006a74:	d100      	bne.n	10006a78 <_ftoa+0x28c>
10006a76:	e780      	b.n	1000697a <_ftoa+0x18e>
10006a78:	9b0d      	ldr	r3, [sp, #52]	; 0x34
10006a7a:	2b00      	cmp	r3, #0
10006a7c:	d035      	beq.n	10006aea <_ftoa+0x2fe>
10006a7e:	222d      	movs	r2, #45	; 0x2d
10006a80:	4641      	mov	r1, r8
10006a82:	1c63      	adds	r3, r4, #1
10006a84:	550a      	strb	r2, [r1, r4]
10006a86:	e779      	b.n	1000697c <_ftoa+0x190>
10006a88:	2200      	movs	r2, #0
10006a8a:	980a      	ldr	r0, [sp, #40]	; 0x28
10006a8c:	990b      	ldr	r1, [sp, #44]	; 0x2c
10006a8e:	4b34      	ldr	r3, [pc, #208]	; (10006b60 <_ftoa+0x374>)
10006a90:	f001 f8f6 	bl	10007c80 <__wrap___aeabi_dcmplt>
10006a94:	2800      	cmp	r0, #0
10006a96:	d000      	beq.n	10006a9a <_ftoa+0x2ae>
10006a98:	e746      	b.n	10006928 <_ftoa+0x13c>
10006a9a:	4653      	mov	r3, sl
10006a9c:	2b00      	cmp	r3, #0
10006a9e:	d151      	bne.n	10006b44 <_ftoa+0x358>
10006aa0:	2301      	movs	r3, #1
10006aa2:	469c      	mov	ip, r3
10006aa4:	44e2      	add	sl, ip
10006aa6:	e73f      	b.n	10006928 <_ftoa+0x13c>
10006aa8:	2420      	movs	r4, #32
10006aaa:	9b23      	ldr	r3, [sp, #140]	; 0x8c
10006aac:	2b00      	cmp	r3, #0
10006aae:	d0e0      	beq.n	10006a72 <_ftoa+0x286>
10006ab0:	9b0d      	ldr	r3, [sp, #52]	; 0x34
10006ab2:	2b00      	cmp	r3, #0
10006ab4:	d103      	bne.n	10006abe <_ftoa+0x2d2>
10006ab6:	9a24      	ldr	r2, [sp, #144]	; 0x90
10006ab8:	330c      	adds	r3, #12
10006aba:	4213      	tst	r3, r2
10006abc:	d002      	beq.n	10006ac4 <_ftoa+0x2d8>
10006abe:	9b23      	ldr	r3, [sp, #140]	; 0x8c
10006ac0:	3b01      	subs	r3, #1
10006ac2:	9323      	str	r3, [sp, #140]	; 0x8c
10006ac4:	9b23      	ldr	r3, [sp, #140]	; 0x8c
10006ac6:	42a3      	cmp	r3, r4
10006ac8:	d9d3      	bls.n	10006a72 <_ftoa+0x286>
10006aca:	ab08      	add	r3, sp, #32
10006acc:	469c      	mov	ip, r3
10006ace:	2217      	movs	r2, #23
10006ad0:	2330      	movs	r3, #48	; 0x30
10006ad2:	4462      	add	r2, ip
10006ad4:	2c20      	cmp	r4, #32
10006ad6:	d100      	bne.n	10006ada <_ftoa+0x2ee>
10006ad8:	e74f      	b.n	1000697a <_ftoa+0x18e>
10006ada:	9923      	ldr	r1, [sp, #140]	; 0x8c
10006adc:	3401      	adds	r4, #1
10006ade:	5513      	strb	r3, [r2, r4]
10006ae0:	428c      	cmp	r4, r1
10006ae2:	d0c6      	beq.n	10006a72 <_ftoa+0x286>
10006ae4:	2c20      	cmp	r4, #32
10006ae6:	d1f8      	bne.n	10006ada <_ftoa+0x2ee>
10006ae8:	e747      	b.n	1000697a <_ftoa+0x18e>
10006aea:	9b24      	ldr	r3, [sp, #144]	; 0x90
10006aec:	075b      	lsls	r3, r3, #29
10006aee:	d424      	bmi.n	10006b3a <_ftoa+0x34e>
10006af0:	9a24      	ldr	r2, [sp, #144]	; 0x90
10006af2:	0023      	movs	r3, r4
10006af4:	0712      	lsls	r2, r2, #28
10006af6:	d400      	bmi.n	10006afa <_ftoa+0x30e>
10006af8:	e740      	b.n	1000697c <_ftoa+0x190>
10006afa:	2220      	movs	r2, #32
10006afc:	4641      	mov	r1, r8
10006afe:	3301      	adds	r3, #1
10006b00:	550a      	strb	r2, [r1, r4]
10006b02:	e73b      	b.n	1000697c <_ftoa+0x190>
10006b04:	4657      	mov	r7, sl
10006b06:	9d08      	ldr	r5, [sp, #32]
10006b08:	2c20      	cmp	r4, #32
10006b0a:	d100      	bne.n	10006b0e <_ftoa+0x322>
10006b0c:	e72d      	b.n	1000696a <_ftoa+0x17e>
10006b0e:	0022      	movs	r2, r4
10006b10:	2130      	movs	r1, #48	; 0x30
10006b12:	4640      	mov	r0, r8
10006b14:	2f00      	cmp	r7, #0
10006b16:	d009      	beq.n	10006b2c <_ftoa+0x340>
10006b18:	3201      	adds	r2, #1
10006b1a:	54b1      	strb	r1, [r6, r2]
10006b1c:	2a20      	cmp	r2, #32
10006b1e:	d100      	bne.n	10006b22 <_ftoa+0x336>
10006b20:	e723      	b.n	1000696a <_ftoa+0x17e>
10006b22:	43d3      	mvns	r3, r2
10006b24:	191b      	adds	r3, r3, r4
10006b26:	181b      	adds	r3, r3, r0
10006b28:	2b00      	cmp	r3, #0
10006b2a:	d1f5      	bne.n	10006b18 <_ftoa+0x32c>
10006b2c:	ab0e      	add	r3, sp, #56	; 0x38
10006b2e:	4698      	mov	r8, r3
10006b30:	232e      	movs	r3, #46	; 0x2e
10006b32:	4641      	mov	r1, r8
10006b34:	1c54      	adds	r4, r2, #1
10006b36:	548b      	strb	r3, [r1, r2]
10006b38:	e782      	b.n	10006a40 <_ftoa+0x254>
10006b3a:	222b      	movs	r2, #43	; 0x2b
10006b3c:	4641      	mov	r1, r8
10006b3e:	1c63      	adds	r3, r4, #1
10006b40:	550a      	strb	r2, [r1, r4]
10006b42:	e71b      	b.n	1000697c <_ftoa+0x190>
10006b44:	07db      	lsls	r3, r3, #31
10006b46:	d400      	bmi.n	10006b4a <_ftoa+0x35e>
10006b48:	e6ee      	b.n	10006928 <_ftoa+0x13c>
10006b4a:	e7a9      	b.n	10006aa0 <_ftoa+0x2b4>
10006b4c:	ffefffff 	.word	0xffefffff
10006b50:	7fefffff 	.word	0x7fefffff
10006b54:	41cdcd65 	.word	0x41cdcd65
10006b58:	c1cdcd65 	.word	0xc1cdcd65
10006b5c:	100423a0 	.word	0x100423a0
10006b60:	3fe00000 	.word	0x3fe00000
10006b64:	100421a8 	.word	0x100421a8
10006b68:	100421ac 	.word	0x100421ac
10006b6c:	100421b8 	.word	0x100421b8
10006b70:	9b24      	ldr	r3, [sp, #144]	; 0x90
10006b72:	9303      	str	r3, [sp, #12]
10006b74:	9b23      	ldr	r3, [sp, #140]	; 0x8c
10006b76:	9302      	str	r3, [sp, #8]
10006b78:	2303      	movs	r3, #3
10006b7a:	9301      	str	r3, [sp, #4]
10006b7c:	4b00      	ldr	r3, [pc, #0]	; (10006b80 <_ftoa+0x394>)
10006b7e:	e723      	b.n	100069c8 <_ftoa+0x1dc>
10006b80:	100421b4 	.word	0x100421b4

10006b84 <_vsnprintf>:
10006b84:	b5f0      	push	{r4, r5, r6, r7, lr}
10006b86:	46de      	mov	lr, fp
10006b88:	464e      	mov	r6, r9
10006b8a:	4657      	mov	r7, sl
10006b8c:	4645      	mov	r5, r8
10006b8e:	b5e0      	push	{r5, r6, r7, lr}
10006b90:	b09f      	sub	sp, #124	; 0x7c
10006b92:	001c      	movs	r4, r3
10006b94:	9b28      	ldr	r3, [sp, #160]	; 0xa0
10006b96:	4691      	mov	r9, r2
10006b98:	9309      	str	r3, [sp, #36]	; 0x24
10006b9a:	4ac9      	ldr	r2, [pc, #804]	; (10006ec0 <_vsnprintf+0x33c>)
10006b9c:	4bc9      	ldr	r3, [pc, #804]	; (10006ec4 <_vsnprintf+0x340>)
10006b9e:	468b      	mov	fp, r1
10006ba0:	9008      	str	r0, [sp, #32]
10006ba2:	601a      	str	r2, [r3, #0]
10006ba4:	2900      	cmp	r1, #0
10006ba6:	d100      	bne.n	10006baa <_vsnprintf+0x26>
10006ba8:	e218      	b.n	10006fdc <_vsnprintf+0x458>
10006baa:	2300      	movs	r3, #0
10006bac:	7820      	ldrb	r0, [r4, #0]
10006bae:	469a      	mov	sl, r3
10006bb0:	2800      	cmp	r0, #0
10006bb2:	d100      	bne.n	10006bb6 <_vsnprintf+0x32>
10006bb4:	e21a      	b.n	10006fec <_vsnprintf+0x468>
10006bb6:	0026      	movs	r6, r4
10006bb8:	001d      	movs	r5, r3
10006bba:	465c      	mov	r4, fp
10006bbc:	e00a      	b.n	10006bd4 <_vsnprintf+0x50>
10006bbe:	002a      	movs	r2, r5
10006bc0:	1c6f      	adds	r7, r5, #1
10006bc2:	464b      	mov	r3, r9
10006bc4:	9d08      	ldr	r5, [sp, #32]
10006bc6:	0021      	movs	r1, r4
10006bc8:	47a8      	blx	r5
10006bca:	003d      	movs	r5, r7
10006bcc:	3601      	adds	r6, #1
10006bce:	7830      	ldrb	r0, [r6, #0]
10006bd0:	2800      	cmp	r0, #0
10006bd2:	d070      	beq.n	10006cb6 <_vsnprintf+0x132>
10006bd4:	2825      	cmp	r0, #37	; 0x25
10006bd6:	d1f2      	bne.n	10006bbe <_vsnprintf+0x3a>
10006bd8:	2310      	movs	r3, #16
10006bda:	469b      	mov	fp, r3
10006bdc:	3b08      	subs	r3, #8
10006bde:	469a      	mov	sl, r3
10006be0:	3b04      	subs	r3, #4
10006be2:	4698      	mov	r8, r3
10006be4:	3b02      	subs	r3, #2
10006be6:	2100      	movs	r1, #0
10006be8:	469c      	mov	ip, r3
10006bea:	1c72      	adds	r2, r6, #1
10006bec:	7810      	ldrb	r0, [r2, #0]
10006bee:	0016      	movs	r6, r2
10006bf0:	0003      	movs	r3, r0
10006bf2:	3b20      	subs	r3, #32
10006bf4:	b2db      	uxtb	r3, r3
10006bf6:	2b10      	cmp	r3, #16
10006bf8:	d803      	bhi.n	10006c02 <_vsnprintf+0x7e>
10006bfa:	4fb3      	ldr	r7, [pc, #716]	; (10006ec8 <_vsnprintf+0x344>)
10006bfc:	009b      	lsls	r3, r3, #2
10006bfe:	58fb      	ldr	r3, [r7, r3]
10006c00:	469f      	mov	pc, r3
10006c02:	0003      	movs	r3, r0
10006c04:	3b30      	subs	r3, #48	; 0x30
10006c06:	2b09      	cmp	r3, #9
10006c08:	d932      	bls.n	10006c70 <_vsnprintf+0xec>
10006c0a:	2300      	movs	r3, #0
10006c0c:	930a      	str	r3, [sp, #40]	; 0x28
10006c0e:	282a      	cmp	r0, #42	; 0x2a
10006c10:	d068      	beq.n	10006ce4 <_vsnprintf+0x160>
10006c12:	2300      	movs	r3, #0
10006c14:	4698      	mov	r8, r3
10006c16:	282e      	cmp	r0, #46	; 0x2e
10006c18:	d03e      	beq.n	10006c98 <_vsnprintf+0x114>
10006c1a:	0003      	movs	r3, r0
10006c1c:	3b68      	subs	r3, #104	; 0x68
10006c1e:	b2db      	uxtb	r3, r3
10006c20:	2b12      	cmp	r3, #18
10006c22:	d81c      	bhi.n	10006c5e <_vsnprintf+0xda>
10006c24:	4aa9      	ldr	r2, [pc, #676]	; (10006ecc <_vsnprintf+0x348>)
10006c26:	009b      	lsls	r3, r3, #2
10006c28:	58d3      	ldr	r3, [r2, r3]
10006c2a:	469f      	mov	pc, r3
10006c2c:	2301      	movs	r3, #1
10006c2e:	3201      	adds	r2, #1
10006c30:	4319      	orrs	r1, r3
10006c32:	e7db      	b.n	10006bec <_vsnprintf+0x68>
10006c34:	4663      	mov	r3, ip
10006c36:	3201      	adds	r2, #1
10006c38:	4319      	orrs	r1, r3
10006c3a:	e7d7      	b.n	10006bec <_vsnprintf+0x68>
10006c3c:	4643      	mov	r3, r8
10006c3e:	3201      	adds	r2, #1
10006c40:	4319      	orrs	r1, r3
10006c42:	e7d3      	b.n	10006bec <_vsnprintf+0x68>
10006c44:	465b      	mov	r3, fp
10006c46:	3201      	adds	r2, #1
10006c48:	4319      	orrs	r1, r3
10006c4a:	e7cf      	b.n	10006bec <_vsnprintf+0x68>
10006c4c:	4653      	mov	r3, sl
10006c4e:	3201      	adds	r2, #1
10006c50:	4319      	orrs	r1, r3
10006c52:	e7cb      	b.n	10006bec <_vsnprintf+0x68>
10006c54:	2380      	movs	r3, #128	; 0x80
10006c56:	005b      	lsls	r3, r3, #1
10006c58:	7870      	ldrb	r0, [r6, #1]
10006c5a:	4319      	orrs	r1, r3
10006c5c:	3601      	adds	r6, #1
10006c5e:	0003      	movs	r3, r0
10006c60:	3b25      	subs	r3, #37	; 0x25
10006c62:	b2db      	uxtb	r3, r3
10006c64:	2b53      	cmp	r3, #83	; 0x53
10006c66:	d8aa      	bhi.n	10006bbe <_vsnprintf+0x3a>
10006c68:	4a99      	ldr	r2, [pc, #612]	; (10006ed0 <_vsnprintf+0x34c>)
10006c6a:	009b      	lsls	r3, r3, #2
10006c6c:	58d3      	ldr	r3, [r2, r3]
10006c6e:	469f      	mov	pc, r3
10006c70:	2700      	movs	r7, #0
10006c72:	0003      	movs	r3, r0
10006c74:	00b8      	lsls	r0, r7, #2
10006c76:	19c0      	adds	r0, r0, r7
10006c78:	3601      	adds	r6, #1
10006c7a:	0040      	lsls	r0, r0, #1
10006c7c:	18c0      	adds	r0, r0, r3
10006c7e:	7833      	ldrb	r3, [r6, #0]
10006c80:	3830      	subs	r0, #48	; 0x30
10006c82:	001a      	movs	r2, r3
10006c84:	3a30      	subs	r2, #48	; 0x30
10006c86:	0007      	movs	r7, r0
10006c88:	2a09      	cmp	r2, #9
10006c8a:	d9f3      	bls.n	10006c74 <_vsnprintf+0xf0>
10006c8c:	900a      	str	r0, [sp, #40]	; 0x28
10006c8e:	0018      	movs	r0, r3
10006c90:	2300      	movs	r3, #0
10006c92:	4698      	mov	r8, r3
10006c94:	282e      	cmp	r0, #46	; 0x2e
10006c96:	d1c0      	bne.n	10006c1a <_vsnprintf+0x96>
10006c98:	2380      	movs	r3, #128	; 0x80
10006c9a:	7870      	ldrb	r0, [r6, #1]
10006c9c:	00db      	lsls	r3, r3, #3
10006c9e:	4319      	orrs	r1, r3
10006ca0:	0003      	movs	r3, r0
10006ca2:	3b30      	subs	r3, #48	; 0x30
10006ca4:	1c72      	adds	r2, r6, #1
10006ca6:	2b09      	cmp	r3, #9
10006ca8:	d800      	bhi.n	10006cac <_vsnprintf+0x128>
10006caa:	e1a1      	b.n	10006ff0 <_vsnprintf+0x46c>
10006cac:	282a      	cmp	r0, #42	; 0x2a
10006cae:	d100      	bne.n	10006cb2 <_vsnprintf+0x12e>
10006cb0:	e1b2      	b.n	10007018 <_vsnprintf+0x494>
10006cb2:	0016      	movs	r6, r2
10006cb4:	e7b1      	b.n	10006c1a <_vsnprintf+0x96>
10006cb6:	46a3      	mov	fp, r4
10006cb8:	46aa      	mov	sl, r5
10006cba:	002c      	movs	r4, r5
10006cbc:	45d1      	cmp	r9, sl
10006cbe:	d803      	bhi.n	10006cc8 <_vsnprintf+0x144>
10006cc0:	2301      	movs	r3, #1
10006cc2:	425b      	negs	r3, r3
10006cc4:	444b      	add	r3, r9
10006cc6:	469a      	mov	sl, r3
10006cc8:	464b      	mov	r3, r9
10006cca:	4652      	mov	r2, sl
10006ccc:	4659      	mov	r1, fp
10006cce:	2000      	movs	r0, #0
10006cd0:	9d08      	ldr	r5, [sp, #32]
10006cd2:	47a8      	blx	r5
10006cd4:	0020      	movs	r0, r4
10006cd6:	b01f      	add	sp, #124	; 0x7c
10006cd8:	bcf0      	pop	{r4, r5, r6, r7}
10006cda:	46bb      	mov	fp, r7
10006cdc:	46b2      	mov	sl, r6
10006cde:	46a9      	mov	r9, r5
10006ce0:	46a0      	mov	r8, r4
10006ce2:	bdf0      	pop	{r4, r5, r6, r7, pc}
10006ce4:	9b09      	ldr	r3, [sp, #36]	; 0x24
10006ce6:	cb40      	ldmia	r3!, {r6}
10006ce8:	960a      	str	r6, [sp, #40]	; 0x28
10006cea:	2e00      	cmp	r6, #0
10006cec:	db03      	blt.n	10006cf6 <_vsnprintf+0x172>
10006cee:	7850      	ldrb	r0, [r2, #1]
10006cf0:	9309      	str	r3, [sp, #36]	; 0x24
10006cf2:	1c56      	adds	r6, r2, #1
10006cf4:	e78d      	b.n	10006c12 <_vsnprintf+0x8e>
10006cf6:	3828      	subs	r0, #40	; 0x28
10006cf8:	4301      	orrs	r1, r0
10006cfa:	4270      	negs	r0, r6
10006cfc:	900a      	str	r0, [sp, #40]	; 0x28
10006cfe:	9309      	str	r3, [sp, #36]	; 0x24
10006d00:	7850      	ldrb	r0, [r2, #1]
10006d02:	1c56      	adds	r6, r2, #1
10006d04:	e785      	b.n	10006c12 <_vsnprintf+0x8e>
10006d06:	2878      	cmp	r0, #120	; 0x78
10006d08:	d100      	bne.n	10006d0c <_vsnprintf+0x188>
10006d0a:	e1df      	b.n	100070cc <_vsnprintf+0x548>
10006d0c:	2858      	cmp	r0, #88	; 0x58
10006d0e:	d100      	bne.n	10006d12 <_vsnprintf+0x18e>
10006d10:	e24c      	b.n	100071ac <_vsnprintf+0x628>
10006d12:	286f      	cmp	r0, #111	; 0x6f
10006d14:	d100      	bne.n	10006d18 <_vsnprintf+0x194>
10006d16:	e34f      	b.n	100073b8 <_vsnprintf+0x834>
10006d18:	2862      	cmp	r0, #98	; 0x62
10006d1a:	d101      	bne.n	10006d20 <_vsnprintf+0x19c>
10006d1c:	f000 fc30 	bl	10007580 <_vsnprintf+0x9fc>
10006d20:	2310      	movs	r3, #16
10006d22:	000a      	movs	r2, r1
10006d24:	439a      	bics	r2, r3
10006d26:	920b      	str	r2, [sp, #44]	; 0x2c
10006d28:	2869      	cmp	r0, #105	; 0x69
10006d2a:	d001      	beq.n	10006d30 <_vsnprintf+0x1ac>
10006d2c:	f000 fca9 	bl	10007682 <_vsnprintf+0xafe>
10006d30:	230a      	movs	r3, #10
10006d32:	930c      	str	r3, [sp, #48]	; 0x30
10006d34:	054b      	lsls	r3, r1, #21
10006d36:	d500      	bpl.n	10006d3a <_vsnprintf+0x1b6>
10006d38:	e1d0      	b.n	100070dc <_vsnprintf+0x558>
10006d3a:	9a0b      	ldr	r2, [sp, #44]	; 0x2c
10006d3c:	2380      	movs	r3, #128	; 0x80
10006d3e:	0011      	movs	r1, r2
10006d40:	009b      	lsls	r3, r3, #2
10006d42:	4019      	ands	r1, r3
10006d44:	468b      	mov	fp, r1
10006d46:	421a      	tst	r2, r3
10006d48:	d000      	beq.n	10006d4c <_vsnprintf+0x1c8>
10006d4a:	e2a1      	b.n	10007290 <_vsnprintf+0x70c>
10006d4c:	2380      	movs	r3, #128	; 0x80
10006d4e:	0011      	movs	r1, r2
10006d50:	005b      	lsls	r3, r3, #1
10006d52:	4019      	ands	r1, r3
10006d54:	468a      	mov	sl, r1
10006d56:	421a      	tst	r2, r3
10006d58:	d000      	beq.n	10006d5c <_vsnprintf+0x1d8>
10006d5a:	e3b6      	b.n	100074ca <_vsnprintf+0x946>
10006d5c:	0013      	movs	r3, r2
10006d5e:	065b      	lsls	r3, r3, #25
10006d60:	d500      	bpl.n	10006d64 <_vsnprintf+0x1e0>
10006d62:	e2ed      	b.n	10007340 <_vsnprintf+0x7bc>
10006d64:	0013      	movs	r3, r2
10006d66:	9909      	ldr	r1, [sp, #36]	; 0x24
10006d68:	061b      	lsls	r3, r3, #24
10006d6a:	d401      	bmi.n	10006d70 <_vsnprintf+0x1ec>
10006d6c:	f000 fc76 	bl	1000765c <_vsnprintf+0xad8>
10006d70:	c908      	ldmia	r1!, {r3}
10006d72:	b21b      	sxth	r3, r3
10006d74:	17d8      	asrs	r0, r3, #31
10006d76:	181a      	adds	r2, r3, r0
10006d78:	4042      	eors	r2, r0
10006d7a:	b292      	uxth	r2, r2
10006d7c:	9109      	str	r1, [sp, #36]	; 0x24
10006d7e:	4693      	mov	fp, r2
10006d80:	0fda      	lsrs	r2, r3, #31
10006d82:	9212      	str	r2, [sp, #72]	; 0x48
10006d84:	2b00      	cmp	r3, #0
10006d86:	d109      	bne.n	10006d9c <_vsnprintf+0x218>
10006d88:	2380      	movs	r3, #128	; 0x80
10006d8a:	2210      	movs	r2, #16
10006d8c:	990b      	ldr	r1, [sp, #44]	; 0x2c
10006d8e:	00db      	lsls	r3, r3, #3
10006d90:	400b      	ands	r3, r1
10006d92:	4391      	bics	r1, r2
10006d94:	910b      	str	r1, [sp, #44]	; 0x2c
10006d96:	2b00      	cmp	r3, #0
10006d98:	d000      	beq.n	10006d9c <_vsnprintf+0x218>
10006d9a:	e2e4      	b.n	10007366 <_vsnprintf+0x7e2>
10006d9c:	9a0b      	ldr	r2, [sp, #44]	; 0x2c
10006d9e:	2361      	movs	r3, #97	; 0x61
10006da0:	0692      	lsls	r2, r2, #26
10006da2:	d500      	bpl.n	10006da6 <_vsnprintf+0x222>
10006da4:	2341      	movs	r3, #65	; 0x41
10006da6:	a90e      	add	r1, sp, #56	; 0x38
10006da8:	221f      	movs	r2, #31
10006daa:	468c      	mov	ip, r1
10006dac:	b2db      	uxtb	r3, r3
10006dae:	4462      	add	r2, ip
10006db0:	3b0a      	subs	r3, #10
10006db2:	465f      	mov	r7, fp
10006db4:	9513      	str	r5, [sp, #76]	; 0x4c
10006db6:	46a3      	mov	fp, r4
10006db8:	4655      	mov	r5, sl
10006dba:	9c0c      	ldr	r4, [sp, #48]	; 0x30
10006dbc:	46b2      	mov	sl, r6
10006dbe:	930d      	str	r3, [sp, #52]	; 0x34
10006dc0:	0016      	movs	r6, r2
10006dc2:	e00a      	b.n	10006dda <_vsnprintf+0x256>
10006dc4:	3330      	adds	r3, #48	; 0x30
10006dc6:	b2db      	uxtb	r3, r3
10006dc8:	3501      	adds	r5, #1
10006dca:	5573      	strb	r3, [r6, r5]
10006dcc:	42a7      	cmp	r7, r4
10006dce:	d200      	bcs.n	10006dd2 <_vsnprintf+0x24e>
10006dd0:	e2ed      	b.n	100073ae <_vsnprintf+0x82a>
10006dd2:	2d20      	cmp	r5, #32
10006dd4:	d100      	bne.n	10006dd8 <_vsnprintf+0x254>
10006dd6:	e2ea      	b.n	100073ae <_vsnprintf+0x82a>
10006dd8:	0007      	movs	r7, r0
10006dda:	0021      	movs	r1, r4
10006ddc:	0038      	movs	r0, r7
10006dde:	f000 fcb1 	bl	10007744 <__wrap___aeabi_uidiv>
10006de2:	b2cb      	uxtb	r3, r1
10006de4:	2909      	cmp	r1, #9
10006de6:	d9ed      	bls.n	10006dc4 <_vsnprintf+0x240>
10006de8:	9a0d      	ldr	r2, [sp, #52]	; 0x34
10006dea:	4694      	mov	ip, r2
10006dec:	4463      	add	r3, ip
10006dee:	b2db      	uxtb	r3, r3
10006df0:	e7ea      	b.n	10006dc8 <_vsnprintf+0x244>
10006df2:	2380      	movs	r3, #128	; 0x80
10006df4:	009b      	lsls	r3, r3, #2
10006df6:	7870      	ldrb	r0, [r6, #1]
10006df8:	4319      	orrs	r1, r3
10006dfa:	3601      	adds	r6, #1
10006dfc:	e72f      	b.n	10006c5e <_vsnprintf+0xda>
10006dfe:	7870      	ldrb	r0, [r6, #1]
10006e00:	2868      	cmp	r0, #104	; 0x68
10006e02:	d100      	bne.n	10006e06 <_vsnprintf+0x282>
10006e04:	e1cd      	b.n	100071a2 <_vsnprintf+0x61e>
10006e06:	2380      	movs	r3, #128	; 0x80
10006e08:	3601      	adds	r6, #1
10006e0a:	4319      	orrs	r1, r3
10006e0c:	e727      	b.n	10006c5e <_vsnprintf+0xda>
10006e0e:	7870      	ldrb	r0, [r6, #1]
10006e10:	286c      	cmp	r0, #108	; 0x6c
10006e12:	d100      	bne.n	10006e16 <_vsnprintf+0x292>
10006e14:	e1bf      	b.n	10007196 <_vsnprintf+0x612>
10006e16:	2380      	movs	r3, #128	; 0x80
10006e18:	005b      	lsls	r3, r3, #1
10006e1a:	4319      	orrs	r1, r3
10006e1c:	3601      	adds	r6, #1
10006e1e:	e71e      	b.n	10006c5e <_vsnprintf+0xda>
10006e20:	2846      	cmp	r0, #70	; 0x46
10006e22:	d100      	bne.n	10006e26 <_vsnprintf+0x2a2>
10006e24:	e19b      	b.n	1000715e <_vsnprintf+0x5da>
10006e26:	2207      	movs	r2, #7
10006e28:	9b09      	ldr	r3, [sp, #36]	; 0x24
10006e2a:	9104      	str	r1, [sp, #16]
10006e2c:	3307      	adds	r3, #7
10006e2e:	4393      	bics	r3, r2
10006e30:	9a0a      	ldr	r2, [sp, #40]	; 0x28
10006e32:	0019      	movs	r1, r3
10006e34:	9203      	str	r2, [sp, #12]
10006e36:	4642      	mov	r2, r8
10006e38:	9202      	str	r2, [sp, #8]
10006e3a:	c90c      	ldmia	r1!, {r2, r3}
10006e3c:	9808      	ldr	r0, [sp, #32]
10006e3e:	9200      	str	r2, [sp, #0]
10006e40:	9301      	str	r3, [sp, #4]
10006e42:	9109      	str	r1, [sp, #36]	; 0x24
10006e44:	002a      	movs	r2, r5
10006e46:	464b      	mov	r3, r9
10006e48:	0021      	movs	r1, r4
10006e4a:	f7ff fccf 	bl	100067ec <_ftoa>
10006e4e:	3601      	adds	r6, #1
10006e50:	0005      	movs	r5, r0
10006e52:	e6bc      	b.n	10006bce <_vsnprintf+0x4a>
10006e54:	002a      	movs	r2, r5
10006e56:	1c6f      	adds	r7, r5, #1
10006e58:	464b      	mov	r3, r9
10006e5a:	9d08      	ldr	r5, [sp, #32]
10006e5c:	0021      	movs	r1, r4
10006e5e:	2025      	movs	r0, #37	; 0x25
10006e60:	47a8      	blx	r5
10006e62:	3601      	adds	r6, #1
10006e64:	003d      	movs	r5, r7
10006e66:	e6b2      	b.n	10006bce <_vsnprintf+0x4a>
10006e68:	078b      	lsls	r3, r1, #30
10006e6a:	d400      	bmi.n	10006e6e <_vsnprintf+0x2ea>
10006e6c:	e1ad      	b.n	100071ca <_vsnprintf+0x646>
10006e6e:	9b09      	ldr	r3, [sp, #36]	; 0x24
10006e70:	002a      	movs	r2, r5
10006e72:	469a      	mov	sl, r3
10006e74:	1c6b      	adds	r3, r5, #1
10006e76:	4698      	mov	r8, r3
10006e78:	4653      	mov	r3, sl
10006e7a:	cb01      	ldmia	r3!, {r0}
10006e7c:	0021      	movs	r1, r4
10006e7e:	469a      	mov	sl, r3
10006e80:	9f08      	ldr	r7, [sp, #32]
10006e82:	464b      	mov	r3, r9
10006e84:	b2c0      	uxtb	r0, r0
10006e86:	47b8      	blx	r7
10006e88:	9b0a      	ldr	r3, [sp, #40]	; 0x28
10006e8a:	469c      	mov	ip, r3
10006e8c:	4465      	add	r5, ip
10006e8e:	2b01      	cmp	r3, #1
10006e90:	d800      	bhi.n	10006e94 <_vsnprintf+0x310>
10006e92:	e286      	b.n	100073a2 <_vsnprintf+0x81e>
10006e94:	9b08      	ldr	r3, [sp, #32]
10006e96:	4647      	mov	r7, r8
10006e98:	46b0      	mov	r8, r6
10006e9a:	0026      	movs	r6, r4
10006e9c:	464c      	mov	r4, r9
10006e9e:	4699      	mov	r9, r3
10006ea0:	003a      	movs	r2, r7
10006ea2:	0023      	movs	r3, r4
10006ea4:	3701      	adds	r7, #1
10006ea6:	0031      	movs	r1, r6
10006ea8:	2020      	movs	r0, #32
10006eaa:	47c8      	blx	r9
10006eac:	42af      	cmp	r7, r5
10006eae:	d1f7      	bne.n	10006ea0 <_vsnprintf+0x31c>
10006eb0:	46a1      	mov	r9, r4
10006eb2:	4653      	mov	r3, sl
10006eb4:	0034      	movs	r4, r6
10006eb6:	4646      	mov	r6, r8
10006eb8:	9309      	str	r3, [sp, #36]	; 0x24
10006eba:	3601      	adds	r6, #1
10006ebc:	e687      	b.n	10006bce <_vsnprintf+0x4a>
10006ebe:	46c0      	nop			; (mov r8, r8)
10006ec0:	10006b85 	.word	0x10006b85
10006ec4:	20002b0c 	.word	0x20002b0c
10006ec8:	100421c0 	.word	0x100421c0
10006ecc:	10042204 	.word	0x10042204
10006ed0:	10042250 	.word	0x10042250
10006ed4:	9b09      	ldr	r3, [sp, #36]	; 0x24
10006ed6:	cb04      	ldmia	r3!, {r2}
10006ed8:	469b      	mov	fp, r3
10006eda:	4643      	mov	r3, r8
10006edc:	9209      	str	r2, [sp, #36]	; 0x24
10006ede:	2b00      	cmp	r3, #0
10006ee0:	d100      	bne.n	10006ee4 <_vsnprintf+0x360>
10006ee2:	e0c6      	b.n	10007072 <_vsnprintf+0x4ee>
10006ee4:	7813      	ldrb	r3, [r2, #0]
10006ee6:	469c      	mov	ip, r3
10006ee8:	2b00      	cmp	r3, #0
10006eea:	d100      	bne.n	10006eee <_vsnprintf+0x36a>
10006eec:	e3bd      	b.n	1000766a <_vsnprintf+0xae6>
10006eee:	4643      	mov	r3, r8
10006ef0:	3b01      	subs	r3, #1
10006ef2:	9a09      	ldr	r2, [sp, #36]	; 0x24
10006ef4:	3301      	adds	r3, #1
10006ef6:	18d0      	adds	r0, r2, r3
10006ef8:	9f0a      	ldr	r7, [sp, #40]	; 0x28
10006efa:	0013      	movs	r3, r2
10006efc:	e001      	b.n	10006f02 <_vsnprintf+0x37e>
10006efe:	4283      	cmp	r3, r0
10006f00:	d003      	beq.n	10006f0a <_vsnprintf+0x386>
10006f02:	785a      	ldrb	r2, [r3, #1]
10006f04:	3301      	adds	r3, #1
10006f06:	2a00      	cmp	r2, #0
10006f08:	d1f9      	bne.n	10006efe <_vsnprintf+0x37a>
10006f0a:	9a09      	ldr	r2, [sp, #36]	; 0x24
10006f0c:	970a      	str	r7, [sp, #40]	; 0x28
10006f0e:	1a9b      	subs	r3, r3, r2
10006f10:	930b      	str	r3, [sp, #44]	; 0x2c
10006f12:	2380      	movs	r3, #128	; 0x80
10006f14:	000a      	movs	r2, r1
10006f16:	00db      	lsls	r3, r3, #3
10006f18:	401a      	ands	r2, r3
10006f1a:	920c      	str	r2, [sp, #48]	; 0x30
10006f1c:	4219      	tst	r1, r3
10006f1e:	d004      	beq.n	10006f2a <_vsnprintf+0x3a6>
10006f20:	9b0b      	ldr	r3, [sp, #44]	; 0x2c
10006f22:	4543      	cmp	r3, r8
10006f24:	d901      	bls.n	10006f2a <_vsnprintf+0x3a6>
10006f26:	4643      	mov	r3, r8
10006f28:	930b      	str	r3, [sp, #44]	; 0x2c
10006f2a:	2302      	movs	r3, #2
10006f2c:	001a      	movs	r2, r3
10006f2e:	400a      	ands	r2, r1
10006f30:	920d      	str	r2, [sp, #52]	; 0x34
10006f32:	420b      	tst	r3, r1
10006f34:	d100      	bne.n	10006f38 <_vsnprintf+0x3b4>
10006f36:	e187      	b.n	10007248 <_vsnprintf+0x6c4>
10006f38:	4660      	mov	r0, ip
10006f3a:	2800      	cmp	r0, #0
10006f3c:	d100      	bne.n	10006f40 <_vsnprintf+0x3bc>
10006f3e:	e168      	b.n	10007212 <_vsnprintf+0x68e>
10006f40:	9b0c      	ldr	r3, [sp, #48]	; 0x30
10006f42:	2b00      	cmp	r3, #0
10006f44:	d100      	bne.n	10006f48 <_vsnprintf+0x3c4>
10006f46:	e10d      	b.n	10007164 <_vsnprintf+0x5e0>
10006f48:	44a8      	add	r8, r5
10006f4a:	46c2      	mov	sl, r8
10006f4c:	9b09      	ldr	r3, [sp, #36]	; 0x24
10006f4e:	4657      	mov	r7, sl
10006f50:	1b5b      	subs	r3, r3, r5
10006f52:	4698      	mov	r8, r3
10006f54:	9b08      	ldr	r3, [sp, #32]
10006f56:	46b2      	mov	sl, r6
10006f58:	002a      	movs	r2, r5
10006f5a:	0026      	movs	r6, r4
10006f5c:	464c      	mov	r4, r9
10006f5e:	4699      	mov	r9, r3
10006f60:	e009      	b.n	10006f76 <_vsnprintf+0x3f2>
10006f62:	0023      	movs	r3, r4
10006f64:	0031      	movs	r1, r6
10006f66:	1c55      	adds	r5, r2, #1
10006f68:	47c8      	blx	r9
10006f6a:	4643      	mov	r3, r8
10006f6c:	5d58      	ldrb	r0, [r3, r5]
10006f6e:	2800      	cmp	r0, #0
10006f70:	d100      	bne.n	10006f74 <_vsnprintf+0x3f0>
10006f72:	e126      	b.n	100071c2 <_vsnprintf+0x63e>
10006f74:	002a      	movs	r2, r5
10006f76:	4297      	cmp	r7, r2
10006f78:	d1f3      	bne.n	10006f62 <_vsnprintf+0x3de>
10006f7a:	46a1      	mov	r9, r4
10006f7c:	003d      	movs	r5, r7
10006f7e:	0034      	movs	r4, r6
10006f80:	4656      	mov	r6, sl
10006f82:	9b0d      	ldr	r3, [sp, #52]	; 0x34
10006f84:	2b00      	cmp	r3, #0
10006f86:	d000      	beq.n	10006f8a <_vsnprintf+0x406>
10006f88:	e143      	b.n	10007212 <_vsnprintf+0x68e>
10006f8a:	465b      	mov	r3, fp
10006f8c:	3601      	adds	r6, #1
10006f8e:	9309      	str	r3, [sp, #36]	; 0x24
10006f90:	e61d      	b.n	10006bce <_vsnprintf+0x4a>
10006f92:	9b09      	ldr	r3, [sp, #36]	; 0x24
10006f94:	001a      	movs	r2, r3
10006f96:	ca08      	ldmia	r2!, {r3}
10006f98:	4692      	mov	sl, r2
10006f9a:	2b00      	cmp	r3, #0
10006f9c:	d048      	beq.n	10007030 <_vsnprintf+0x4ac>
10006f9e:	2221      	movs	r2, #33	; 0x21
10006fa0:	4311      	orrs	r1, r2
10006fa2:	468b      	mov	fp, r1
10006fa4:	a80e      	add	r0, sp, #56	; 0x38
10006fa6:	4684      	mov	ip, r0
10006fa8:	211f      	movs	r1, #31
10006faa:	4461      	add	r1, ip
10006fac:	9509      	str	r5, [sp, #36]	; 0x24
10006fae:	2200      	movs	r2, #0
10006fb0:	270f      	movs	r7, #15
10006fb2:	46a4      	mov	ip, r4
10006fb4:	000d      	movs	r5, r1
10006fb6:	e002      	b.n	10006fbe <_vsnprintf+0x43a>
10006fb8:	2a20      	cmp	r2, #32
10006fba:	d00c      	beq.n	10006fd6 <_vsnprintf+0x452>
10006fbc:	000b      	movs	r3, r1
10006fbe:	003c      	movs	r4, r7
10006fc0:	401c      	ands	r4, r3
10006fc2:	0020      	movs	r0, r4
10006fc4:	3037      	adds	r0, #55	; 0x37
10006fc6:	2c09      	cmp	r4, #9
10006fc8:	d800      	bhi.n	10006fcc <_vsnprintf+0x448>
10006fca:	3807      	subs	r0, #7
10006fcc:	3201      	adds	r2, #1
10006fce:	54a8      	strb	r0, [r5, r2]
10006fd0:	0919      	lsrs	r1, r3, #4
10006fd2:	2b0f      	cmp	r3, #15
10006fd4:	d8f0      	bhi.n	10006fb8 <_vsnprintf+0x434>
10006fd6:	4664      	mov	r4, ip
10006fd8:	9d09      	ldr	r5, [sp, #36]	; 0x24
10006fda:	e032      	b.n	10007042 <_vsnprintf+0x4be>
10006fdc:	4bdc      	ldr	r3, [pc, #880]	; (10007350 <_vsnprintf+0x7cc>)
10006fde:	7820      	ldrb	r0, [r4, #0]
10006fe0:	9308      	str	r3, [sp, #32]
10006fe2:	2300      	movs	r3, #0
10006fe4:	469a      	mov	sl, r3
10006fe6:	2800      	cmp	r0, #0
10006fe8:	d000      	beq.n	10006fec <_vsnprintf+0x468>
10006fea:	e5e4      	b.n	10006bb6 <_vsnprintf+0x32>
10006fec:	2400      	movs	r4, #0
10006fee:	e665      	b.n	10006cbc <_vsnprintf+0x138>
10006ff0:	4643      	mov	r3, r8
10006ff2:	0006      	movs	r6, r0
10006ff4:	9f0a      	ldr	r7, [sp, #40]	; 0x28
10006ff6:	0098      	lsls	r0, r3, #2
10006ff8:	18c0      	adds	r0, r0, r3
10006ffa:	3201      	adds	r2, #1
10006ffc:	0040      	lsls	r0, r0, #1
10006ffe:	1980      	adds	r0, r0, r6
10007000:	7816      	ldrb	r6, [r2, #0]
10007002:	0003      	movs	r3, r0
10007004:	0030      	movs	r0, r6
10007006:	3830      	subs	r0, #48	; 0x30
10007008:	3b30      	subs	r3, #48	; 0x30
1000700a:	2809      	cmp	r0, #9
1000700c:	d9f3      	bls.n	10006ff6 <_vsnprintf+0x472>
1000700e:	0030      	movs	r0, r6
10007010:	4698      	mov	r8, r3
10007012:	0016      	movs	r6, r2
10007014:	970a      	str	r7, [sp, #40]	; 0x28
10007016:	e600      	b.n	10006c1a <_vsnprintf+0x96>
10007018:	9b09      	ldr	r3, [sp, #36]	; 0x24
1000701a:	3602      	adds	r6, #2
1000701c:	cb04      	ldmia	r3!, {r2}
1000701e:	4690      	mov	r8, r2
10007020:	43d2      	mvns	r2, r2
10007022:	4640      	mov	r0, r8
10007024:	17d2      	asrs	r2, r2, #31
10007026:	4010      	ands	r0, r2
10007028:	4680      	mov	r8, r0
1000702a:	9309      	str	r3, [sp, #36]	; 0x24
1000702c:	7830      	ldrb	r0, [r6, #0]
1000702e:	e5f4      	b.n	10006c1a <_vsnprintf+0x96>
10007030:	2210      	movs	r2, #16
10007032:	0008      	movs	r0, r1
10007034:	4390      	bics	r0, r2
10007036:	3211      	adds	r2, #17
10007038:	4310      	orrs	r0, r2
1000703a:	4683      	mov	fp, r0
1000703c:	2200      	movs	r2, #0
1000703e:	0549      	lsls	r1, r1, #21
10007040:	d5b0      	bpl.n	10006fa4 <_vsnprintf+0x420>
10007042:	465b      	mov	r3, fp
10007044:	9306      	str	r3, [sp, #24]
10007046:	2308      	movs	r3, #8
10007048:	9305      	str	r3, [sp, #20]
1000704a:	4643      	mov	r3, r8
1000704c:	9304      	str	r3, [sp, #16]
1000704e:	2310      	movs	r3, #16
10007050:	9303      	str	r3, [sp, #12]
10007052:	2300      	movs	r3, #0
10007054:	9302      	str	r3, [sp, #8]
10007056:	ab16      	add	r3, sp, #88	; 0x58
10007058:	9201      	str	r2, [sp, #4]
1000705a:	9300      	str	r3, [sp, #0]
1000705c:	002a      	movs	r2, r5
1000705e:	464b      	mov	r3, r9
10007060:	0021      	movs	r1, r4
10007062:	9808      	ldr	r0, [sp, #32]
10007064:	f7ff f8a6 	bl	100061b4 <_ntoa_format>
10007068:	4653      	mov	r3, sl
1000706a:	0005      	movs	r5, r0
1000706c:	3601      	adds	r6, #1
1000706e:	9309      	str	r3, [sp, #36]	; 0x24
10007070:	e5ad      	b.n	10006bce <_vsnprintf+0x4a>
10007072:	7813      	ldrb	r3, [r2, #0]
10007074:	469c      	mov	ip, r3
10007076:	2b00      	cmp	r3, #0
10007078:	d100      	bne.n	1000707c <_vsnprintf+0x4f8>
1000707a:	e2f7      	b.n	1000766c <_vsnprintf+0xae8>
1000707c:	2302      	movs	r3, #2
1000707e:	425b      	negs	r3, r3
10007080:	e737      	b.n	10006ef2 <_vsnprintf+0x36e>
10007082:	2320      	movs	r3, #32
10007084:	0002      	movs	r2, r0
10007086:	439a      	bics	r2, r3
10007088:	2a47      	cmp	r2, #71	; 0x47
1000708a:	d104      	bne.n	10007096 <_vsnprintf+0x512>
1000708c:	2380      	movs	r3, #128	; 0x80
1000708e:	011b      	lsls	r3, r3, #4
10007090:	4319      	orrs	r1, r3
10007092:	2302      	movs	r3, #2
10007094:	4398      	bics	r0, r3
10007096:	2845      	cmp	r0, #69	; 0x45
10007098:	d101      	bne.n	1000709e <_vsnprintf+0x51a>
1000709a:	2320      	movs	r3, #32
1000709c:	4319      	orrs	r1, r3
1000709e:	2207      	movs	r2, #7
100070a0:	9b09      	ldr	r3, [sp, #36]	; 0x24
100070a2:	9104      	str	r1, [sp, #16]
100070a4:	3307      	adds	r3, #7
100070a6:	4393      	bics	r3, r2
100070a8:	9a0a      	ldr	r2, [sp, #40]	; 0x28
100070aa:	0019      	movs	r1, r3
100070ac:	9203      	str	r2, [sp, #12]
100070ae:	4642      	mov	r2, r8
100070b0:	9202      	str	r2, [sp, #8]
100070b2:	c90c      	ldmia	r1!, {r2, r3}
100070b4:	9808      	ldr	r0, [sp, #32]
100070b6:	9200      	str	r2, [sp, #0]
100070b8:	9301      	str	r3, [sp, #4]
100070ba:	9109      	str	r1, [sp, #36]	; 0x24
100070bc:	002a      	movs	r2, r5
100070be:	464b      	mov	r3, r9
100070c0:	0021      	movs	r1, r4
100070c2:	f7ff f96d 	bl	100063a0 <_etoa>
100070c6:	3601      	adds	r6, #1
100070c8:	0005      	movs	r5, r0
100070ca:	e580      	b.n	10006bce <_vsnprintf+0x4a>
100070cc:	2310      	movs	r3, #16
100070ce:	930c      	str	r3, [sp, #48]	; 0x30
100070d0:	230c      	movs	r3, #12
100070d2:	000a      	movs	r2, r1
100070d4:	439a      	bics	r2, r3
100070d6:	920b      	str	r2, [sp, #44]	; 0x2c
100070d8:	054b      	lsls	r3, r1, #21
100070da:	d503      	bpl.n	100070e4 <_vsnprintf+0x560>
100070dc:	2301      	movs	r3, #1
100070de:	9a0b      	ldr	r2, [sp, #44]	; 0x2c
100070e0:	439a      	bics	r2, r3
100070e2:	920b      	str	r2, [sp, #44]	; 0x2c
100070e4:	2869      	cmp	r0, #105	; 0x69
100070e6:	d100      	bne.n	100070ea <_vsnprintf+0x566>
100070e8:	e627      	b.n	10006d3a <_vsnprintf+0x1b6>
100070ea:	2864      	cmp	r0, #100	; 0x64
100070ec:	d100      	bne.n	100070f0 <_vsnprintf+0x56c>
100070ee:	e624      	b.n	10006d3a <_vsnprintf+0x1b6>
100070f0:	9a0b      	ldr	r2, [sp, #44]	; 0x2c
100070f2:	2380      	movs	r3, #128	; 0x80
100070f4:	0011      	movs	r1, r2
100070f6:	009b      	lsls	r3, r3, #2
100070f8:	4019      	ands	r1, r3
100070fa:	468b      	mov	fp, r1
100070fc:	421a      	tst	r2, r3
100070fe:	d000      	beq.n	10007102 <_vsnprintf+0x57e>
10007100:	e166      	b.n	100073d0 <_vsnprintf+0x84c>
10007102:	2380      	movs	r3, #128	; 0x80
10007104:	0011      	movs	r1, r2
10007106:	005b      	lsls	r3, r3, #1
10007108:	4019      	ands	r1, r3
1000710a:	468a      	mov	sl, r1
1000710c:	421a      	tst	r2, r3
1000710e:	d000      	beq.n	10007112 <_vsnprintf+0x58e>
10007110:	e239      	b.n	10007586 <_vsnprintf+0xa02>
10007112:	0013      	movs	r3, r2
10007114:	065b      	lsls	r3, r3, #25
10007116:	d500      	bpl.n	1000711a <_vsnprintf+0x596>
10007118:	e13c      	b.n	10007394 <_vsnprintf+0x810>
1000711a:	0013      	movs	r3, r2
1000711c:	061b      	lsls	r3, r3, #24
1000711e:	d400      	bmi.n	10007122 <_vsnprintf+0x59e>
10007120:	e2a6      	b.n	10007670 <_vsnprintf+0xaec>
10007122:	9b09      	ldr	r3, [sp, #36]	; 0x24
10007124:	cb04      	ldmia	r3!, {r2}
10007126:	0412      	lsls	r2, r2, #16
10007128:	0c12      	lsrs	r2, r2, #16
1000712a:	4693      	mov	fp, r2
1000712c:	9309      	str	r3, [sp, #36]	; 0x24
1000712e:	465b      	mov	r3, fp
10007130:	2b00      	cmp	r3, #0
10007132:	d000      	beq.n	10007136 <_vsnprintf+0x5b2>
10007134:	e19a      	b.n	1000746c <_vsnprintf+0x8e8>
10007136:	9a0b      	ldr	r2, [sp, #44]	; 0x2c
10007138:	3310      	adds	r3, #16
1000713a:	0011      	movs	r1, r2
1000713c:	4399      	bics	r1, r3
1000713e:	910b      	str	r1, [sp, #44]	; 0x2c
10007140:	0552      	lsls	r2, r2, #21
10007142:	d400      	bmi.n	10007146 <_vsnprintf+0x5c2>
10007144:	e192      	b.n	1000746c <_vsnprintf+0x8e8>
10007146:	2300      	movs	r3, #0
10007148:	469a      	mov	sl, r3
1000714a:	9b0b      	ldr	r3, [sp, #44]	; 0x2c
1000714c:	9306      	str	r3, [sp, #24]
1000714e:	9b0a      	ldr	r3, [sp, #40]	; 0x28
10007150:	9305      	str	r3, [sp, #20]
10007152:	4643      	mov	r3, r8
10007154:	9304      	str	r3, [sp, #16]
10007156:	9b0c      	ldr	r3, [sp, #48]	; 0x30
10007158:	9303      	str	r3, [sp, #12]
1000715a:	2300      	movs	r3, #0
1000715c:	e10c      	b.n	10007378 <_vsnprintf+0x7f4>
1000715e:	2320      	movs	r3, #32
10007160:	4319      	orrs	r1, r3
10007162:	e660      	b.n	10006e26 <_vsnprintf+0x2a2>
10007164:	9b09      	ldr	r3, [sp, #36]	; 0x24
10007166:	9a0a      	ldr	r2, [sp, #40]	; 0x28
10007168:	1b5b      	subs	r3, r3, r5
1000716a:	4698      	mov	r8, r3
1000716c:	464b      	mov	r3, r9
1000716e:	4691      	mov	r9, r2
10007170:	001f      	movs	r7, r3
10007172:	46b2      	mov	sl, r6
10007174:	0026      	movs	r6, r4
10007176:	9c08      	ldr	r4, [sp, #32]
10007178:	002a      	movs	r2, r5
1000717a:	003b      	movs	r3, r7
1000717c:	0031      	movs	r1, r6
1000717e:	47a0      	blx	r4
10007180:	4643      	mov	r3, r8
10007182:	3501      	adds	r5, #1
10007184:	5d58      	ldrb	r0, [r3, r5]
10007186:	2800      	cmp	r0, #0
10007188:	d1f6      	bne.n	10007178 <_vsnprintf+0x5f4>
1000718a:	464a      	mov	r2, r9
1000718c:	0034      	movs	r4, r6
1000718e:	46b9      	mov	r9, r7
10007190:	4656      	mov	r6, sl
10007192:	920a      	str	r2, [sp, #40]	; 0x28
10007194:	e6f5      	b.n	10006f82 <_vsnprintf+0x3fe>
10007196:	23c0      	movs	r3, #192	; 0xc0
10007198:	009b      	lsls	r3, r3, #2
1000719a:	78b0      	ldrb	r0, [r6, #2]
1000719c:	4319      	orrs	r1, r3
1000719e:	3602      	adds	r6, #2
100071a0:	e55d      	b.n	10006c5e <_vsnprintf+0xda>
100071a2:	23c0      	movs	r3, #192	; 0xc0
100071a4:	78b0      	ldrb	r0, [r6, #2]
100071a6:	4319      	orrs	r1, r3
100071a8:	3602      	adds	r6, #2
100071aa:	e558      	b.n	10006c5e <_vsnprintf+0xda>
100071ac:	230c      	movs	r3, #12
100071ae:	000a      	movs	r2, r1
100071b0:	439a      	bics	r2, r3
100071b2:	3314      	adds	r3, #20
100071b4:	431a      	orrs	r2, r3
100071b6:	3b10      	subs	r3, #16
100071b8:	920b      	str	r2, [sp, #44]	; 0x2c
100071ba:	930c      	str	r3, [sp, #48]	; 0x30
100071bc:	054b      	lsls	r3, r1, #21
100071be:	d48d      	bmi.n	100070dc <_vsnprintf+0x558>
100071c0:	e796      	b.n	100070f0 <_vsnprintf+0x56c>
100071c2:	46a1      	mov	r9, r4
100071c4:	0034      	movs	r4, r6
100071c6:	4656      	mov	r6, sl
100071c8:	e6db      	b.n	10006f82 <_vsnprintf+0x3fe>
100071ca:	9a0a      	ldr	r2, [sp, #40]	; 0x28
100071cc:	2a01      	cmp	r2, #1
100071ce:	d800      	bhi.n	100071d2 <_vsnprintf+0x64e>
100071d0:	e253      	b.n	1000767a <_vsnprintf+0xaf6>
100071d2:	1e6b      	subs	r3, r5, #1
100071d4:	189f      	adds	r7, r3, r2
100071d6:	9b08      	ldr	r3, [sp, #32]
100071d8:	46b0      	mov	r8, r6
100071da:	0026      	movs	r6, r4
100071dc:	464c      	mov	r4, r9
100071de:	4699      	mov	r9, r3
100071e0:	002a      	movs	r2, r5
100071e2:	0023      	movs	r3, r4
100071e4:	3501      	adds	r5, #1
100071e6:	0031      	movs	r1, r6
100071e8:	2020      	movs	r0, #32
100071ea:	47c8      	blx	r9
100071ec:	42bd      	cmp	r5, r7
100071ee:	d1f7      	bne.n	100071e0 <_vsnprintf+0x65c>
100071f0:	46a1      	mov	r9, r4
100071f2:	0034      	movs	r4, r6
100071f4:	4646      	mov	r6, r8
100071f6:	9b09      	ldr	r3, [sp, #36]	; 0x24
100071f8:	003a      	movs	r2, r7
100071fa:	cb01      	ldmia	r3!, {r0}
100071fc:	0021      	movs	r1, r4
100071fe:	4698      	mov	r8, r3
10007200:	1c7d      	adds	r5, r7, #1
10007202:	464b      	mov	r3, r9
10007204:	9f08      	ldr	r7, [sp, #32]
10007206:	b2c0      	uxtb	r0, r0
10007208:	47b8      	blx	r7
1000720a:	4643      	mov	r3, r8
1000720c:	3601      	adds	r6, #1
1000720e:	9309      	str	r3, [sp, #36]	; 0x24
10007210:	e4dd      	b.n	10006bce <_vsnprintf+0x4a>
10007212:	9b0b      	ldr	r3, [sp, #44]	; 0x2c
10007214:	9a0a      	ldr	r2, [sp, #40]	; 0x28
10007216:	46a8      	mov	r8, r5
10007218:	429a      	cmp	r2, r3
1000721a:	d800      	bhi.n	1000721e <_vsnprintf+0x69a>
1000721c:	e6b5      	b.n	10006f8a <_vsnprintf+0x406>
1000721e:	4694      	mov	ip, r2
10007220:	4465      	add	r5, ip
10007222:	1aed      	subs	r5, r5, r3
10007224:	9b08      	ldr	r3, [sp, #32]
10007226:	4647      	mov	r7, r8
10007228:	46b0      	mov	r8, r6
1000722a:	0026      	movs	r6, r4
1000722c:	464c      	mov	r4, r9
1000722e:	4699      	mov	r9, r3
10007230:	003a      	movs	r2, r7
10007232:	0023      	movs	r3, r4
10007234:	3701      	adds	r7, #1
10007236:	0031      	movs	r1, r6
10007238:	2020      	movs	r0, #32
1000723a:	47c8      	blx	r9
1000723c:	42af      	cmp	r7, r5
1000723e:	d1f7      	bne.n	10007230 <_vsnprintf+0x6ac>
10007240:	46a1      	mov	r9, r4
10007242:	0034      	movs	r4, r6
10007244:	4646      	mov	r6, r8
10007246:	e6a0      	b.n	10006f8a <_vsnprintf+0x406>
10007248:	9a0b      	ldr	r2, [sp, #44]	; 0x2c
1000724a:	990a      	ldr	r1, [sp, #40]	; 0x28
1000724c:	1c53      	adds	r3, r2, #1
1000724e:	4291      	cmp	r1, r2
10007250:	d800      	bhi.n	10007254 <_vsnprintf+0x6d0>
10007252:	e214      	b.n	1000767e <_vsnprintf+0xafa>
10007254:	194b      	adds	r3, r1, r5
10007256:	1a9b      	subs	r3, r3, r2
10007258:	001f      	movs	r7, r3
1000725a:	9b08      	ldr	r3, [sp, #32]
1000725c:	46b2      	mov	sl, r6
1000725e:	0026      	movs	r6, r4
10007260:	464c      	mov	r4, r9
10007262:	4699      	mov	r9, r3
10007264:	002a      	movs	r2, r5
10007266:	0023      	movs	r3, r4
10007268:	3501      	adds	r5, #1
1000726a:	0031      	movs	r1, r6
1000726c:	2020      	movs	r0, #32
1000726e:	47c8      	blx	r9
10007270:	42bd      	cmp	r5, r7
10007272:	d1f7      	bne.n	10007264 <_vsnprintf+0x6e0>
10007274:	9b0a      	ldr	r3, [sp, #40]	; 0x28
10007276:	46a1      	mov	r9, r4
10007278:	3301      	adds	r3, #1
1000727a:	930b      	str	r3, [sp, #44]	; 0x2c
1000727c:	9b09      	ldr	r3, [sp, #36]	; 0x24
1000727e:	0034      	movs	r4, r6
10007280:	781b      	ldrb	r3, [r3, #0]
10007282:	4656      	mov	r6, sl
10007284:	469c      	mov	ip, r3
10007286:	4660      	mov	r0, ip
10007288:	2800      	cmp	r0, #0
1000728a:	d000      	beq.n	1000728e <_vsnprintf+0x70a>
1000728c:	e658      	b.n	10006f40 <_vsnprintf+0x3bc>
1000728e:	e67c      	b.n	10006f8a <_vsnprintf+0x406>
10007290:	2207      	movs	r2, #7
10007292:	9b09      	ldr	r3, [sp, #36]	; 0x24
10007294:	3307      	adds	r3, #7
10007296:	4393      	bics	r3, r2
10007298:	3201      	adds	r2, #1
1000729a:	4694      	mov	ip, r2
1000729c:	449c      	add	ip, r3
1000729e:	4662      	mov	r2, ip
100072a0:	685f      	ldr	r7, [r3, #4]
100072a2:	9209      	str	r2, [sp, #36]	; 0x24
100072a4:	681a      	ldr	r2, [r3, #0]
100072a6:	17fb      	asrs	r3, r7, #31
100072a8:	9310      	str	r3, [sp, #64]	; 0x40
100072aa:	9311      	str	r3, [sp, #68]	; 0x44
100072ac:	9810      	ldr	r0, [sp, #64]	; 0x40
100072ae:	9911      	ldr	r1, [sp, #68]	; 0x44
100072b0:	0003      	movs	r3, r0
100072b2:	4053      	eors	r3, r2
100072b4:	930e      	str	r3, [sp, #56]	; 0x38
100072b6:	000b      	movs	r3, r1
100072b8:	407b      	eors	r3, r7
100072ba:	930f      	str	r3, [sp, #60]	; 0x3c
100072bc:	4694      	mov	ip, r2
100072be:	9a0e      	ldr	r2, [sp, #56]	; 0x38
100072c0:	9b0f      	ldr	r3, [sp, #60]	; 0x3c
100072c2:	1a12      	subs	r2, r2, r0
100072c4:	418b      	sbcs	r3, r1
100072c6:	920e      	str	r2, [sp, #56]	; 0x38
100072c8:	930f      	str	r3, [sp, #60]	; 0x3c
100072ca:	0ffb      	lsrs	r3, r7, #31
100072cc:	4662      	mov	r2, ip
100072ce:	9312      	str	r3, [sp, #72]	; 0x48
100072d0:	2300      	movs	r3, #0
100072d2:	433a      	orrs	r2, r7
100072d4:	469b      	mov	fp, r3
100072d6:	d03d      	beq.n	10007354 <_vsnprintf+0x7d0>
100072d8:	9a0b      	ldr	r2, [sp, #44]	; 0x2c
100072da:	2361      	movs	r3, #97	; 0x61
100072dc:	0692      	lsls	r2, r2, #26
100072de:	d500      	bpl.n	100072e2 <_vsnprintf+0x75e>
100072e0:	2341      	movs	r3, #65	; 0x41
100072e2:	2200      	movs	r2, #0
100072e4:	b2db      	uxtb	r3, r3
100072e6:	a90e      	add	r1, sp, #56	; 0x38
100072e8:	3b0a      	subs	r3, #10
100072ea:	468c      	mov	ip, r1
100072ec:	4692      	mov	sl, r2
100072ee:	930d      	str	r3, [sp, #52]	; 0x34
100072f0:	4643      	mov	r3, r8
100072f2:	321f      	adds	r2, #31
100072f4:	4462      	add	r2, ip
100072f6:	9513      	str	r5, [sp, #76]	; 0x4c
100072f8:	9615      	str	r6, [sp, #84]	; 0x54
100072fa:	4655      	mov	r5, sl
100072fc:	9e0e      	ldr	r6, [sp, #56]	; 0x38
100072fe:	9f0f      	ldr	r7, [sp, #60]	; 0x3c
10007300:	46a2      	mov	sl, r4
10007302:	4690      	mov	r8, r2
10007304:	9c0c      	ldr	r4, [sp, #48]	; 0x30
10007306:	9314      	str	r3, [sp, #80]	; 0x50
10007308:	e00c      	b.n	10007324 <_vsnprintf+0x7a0>
1000730a:	3230      	adds	r2, #48	; 0x30
1000730c:	b2d2      	uxtb	r2, r2
1000730e:	4643      	mov	r3, r8
10007310:	3501      	adds	r5, #1
10007312:	555a      	strb	r2, [r3, r5]
10007314:	45bb      	cmp	fp, r7
10007316:	d100      	bne.n	1000731a <_vsnprintf+0x796>
10007318:	e18a      	b.n	10007630 <_vsnprintf+0xaac>
1000731a:	2d20      	cmp	r5, #32
1000731c:	d100      	bne.n	10007320 <_vsnprintf+0x79c>
1000731e:	e18a      	b.n	10007636 <_vsnprintf+0xab2>
10007320:	0006      	movs	r6, r0
10007322:	000f      	movs	r7, r1
10007324:	0022      	movs	r2, r4
10007326:	2300      	movs	r3, #0
10007328:	0030      	movs	r0, r6
1000732a:	0039      	movs	r1, r7
1000732c:	f000 fa48 	bl	100077c0 <__wrap___aeabi_uldivmod>
10007330:	b2d2      	uxtb	r2, r2
10007332:	2a09      	cmp	r2, #9
10007334:	d9e9      	bls.n	1000730a <_vsnprintf+0x786>
10007336:	9b0d      	ldr	r3, [sp, #52]	; 0x34
10007338:	469c      	mov	ip, r3
1000733a:	4462      	add	r2, ip
1000733c:	b2d2      	uxtb	r2, r2
1000733e:	e7e6      	b.n	1000730e <_vsnprintf+0x78a>
10007340:	23ff      	movs	r3, #255	; 0xff
10007342:	9909      	ldr	r1, [sp, #36]	; 0x24
10007344:	c904      	ldmia	r1!, {r2}
10007346:	4013      	ands	r3, r2
10007348:	001a      	movs	r2, r3
1000734a:	9109      	str	r1, [sp, #36]	; 0x24
1000734c:	e517      	b.n	10006d7e <_vsnprintf+0x1fa>
1000734e:	46c0      	nop			; (mov r8, r8)
10007350:	10006115 	.word	0x10006115
10007354:	9a0b      	ldr	r2, [sp, #44]	; 0x2c
10007356:	3310      	adds	r3, #16
10007358:	0011      	movs	r1, r2
1000735a:	4399      	bics	r1, r3
1000735c:	910b      	str	r1, [sp, #44]	; 0x2c
1000735e:	0552      	lsls	r2, r2, #21
10007360:	d5ba      	bpl.n	100072d8 <_vsnprintf+0x754>
10007362:	2300      	movs	r3, #0
10007364:	469a      	mov	sl, r3
10007366:	9b0b      	ldr	r3, [sp, #44]	; 0x2c
10007368:	9306      	str	r3, [sp, #24]
1000736a:	9b0a      	ldr	r3, [sp, #40]	; 0x28
1000736c:	9305      	str	r3, [sp, #20]
1000736e:	4643      	mov	r3, r8
10007370:	9304      	str	r3, [sp, #16]
10007372:	9b0c      	ldr	r3, [sp, #48]	; 0x30
10007374:	9303      	str	r3, [sp, #12]
10007376:	9b12      	ldr	r3, [sp, #72]	; 0x48
10007378:	9302      	str	r3, [sp, #8]
1000737a:	4653      	mov	r3, sl
1000737c:	9301      	str	r3, [sp, #4]
1000737e:	ab16      	add	r3, sp, #88	; 0x58
10007380:	002a      	movs	r2, r5
10007382:	9300      	str	r3, [sp, #0]
10007384:	0021      	movs	r1, r4
10007386:	464b      	mov	r3, r9
10007388:	9808      	ldr	r0, [sp, #32]
1000738a:	f7fe ff13 	bl	100061b4 <_ntoa_format>
1000738e:	3601      	adds	r6, #1
10007390:	0005      	movs	r5, r0
10007392:	e41c      	b.n	10006bce <_vsnprintf+0x4a>
10007394:	22ff      	movs	r2, #255	; 0xff
10007396:	9b09      	ldr	r3, [sp, #36]	; 0x24
10007398:	cb02      	ldmia	r3!, {r1}
1000739a:	4011      	ands	r1, r2
1000739c:	468b      	mov	fp, r1
1000739e:	9309      	str	r3, [sp, #36]	; 0x24
100073a0:	e6c5      	b.n	1000712e <_vsnprintf+0x5aa>
100073a2:	4653      	mov	r3, sl
100073a4:	4645      	mov	r5, r8
100073a6:	9309      	str	r3, [sp, #36]	; 0x24
100073a8:	3601      	adds	r6, #1
100073aa:	f7ff fc10 	bl	10006bce <_vsnprintf+0x4a>
100073ae:	4656      	mov	r6, sl
100073b0:	465c      	mov	r4, fp
100073b2:	46aa      	mov	sl, r5
100073b4:	9d13      	ldr	r5, [sp, #76]	; 0x4c
100073b6:	e7d6      	b.n	10007366 <_vsnprintf+0x7e2>
100073b8:	2308      	movs	r3, #8
100073ba:	930c      	str	r3, [sp, #48]	; 0x30
100073bc:	910b      	str	r1, [sp, #44]	; 0x2c
100073be:	990b      	ldr	r1, [sp, #44]	; 0x2c
100073c0:	2864      	cmp	r0, #100	; 0x64
100073c2:	d000      	beq.n	100073c6 <_vsnprintf+0x842>
100073c4:	e684      	b.n	100070d0 <_vsnprintf+0x54c>
100073c6:	9b0b      	ldr	r3, [sp, #44]	; 0x2c
100073c8:	055b      	lsls	r3, r3, #21
100073ca:	d500      	bpl.n	100073ce <_vsnprintf+0x84a>
100073cc:	e686      	b.n	100070dc <_vsnprintf+0x558>
100073ce:	e4b4      	b.n	10006d3a <_vsnprintf+0x1b6>
100073d0:	2207      	movs	r2, #7
100073d2:	9b09      	ldr	r3, [sp, #36]	; 0x24
100073d4:	3307      	adds	r3, #7
100073d6:	4393      	bics	r3, r2
100073d8:	3201      	adds	r2, #1
100073da:	4694      	mov	ip, r2
100073dc:	449c      	add	ip, r3
100073de:	4662      	mov	r2, ip
100073e0:	9209      	str	r2, [sp, #36]	; 0x24
100073e2:	681a      	ldr	r2, [r3, #0]
100073e4:	685b      	ldr	r3, [r3, #4]
100073e6:	0010      	movs	r0, r2
100073e8:	469b      	mov	fp, r3
100073ea:	0013      	movs	r3, r2
100073ec:	465a      	mov	r2, fp
100073ee:	4313      	orrs	r3, r2
100073f0:	d107      	bne.n	10007402 <_vsnprintf+0x87e>
100073f2:	9a0b      	ldr	r2, [sp, #44]	; 0x2c
100073f4:	3310      	adds	r3, #16
100073f6:	0011      	movs	r1, r2
100073f8:	4399      	bics	r1, r3
100073fa:	910b      	str	r1, [sp, #44]	; 0x2c
100073fc:	0552      	lsls	r2, r2, #21
100073fe:	d500      	bpl.n	10007402 <_vsnprintf+0x87e>
10007400:	e6a1      	b.n	10007146 <_vsnprintf+0x5c2>
10007402:	9a0b      	ldr	r2, [sp, #44]	; 0x2c
10007404:	2361      	movs	r3, #97	; 0x61
10007406:	0692      	lsls	r2, r2, #26
10007408:	d500      	bpl.n	1000740c <_vsnprintf+0x888>
1000740a:	2341      	movs	r3, #65	; 0x41
1000740c:	2200      	movs	r2, #0
1000740e:	b2db      	uxtb	r3, r3
10007410:	a90e      	add	r1, sp, #56	; 0x38
10007412:	3b0a      	subs	r3, #10
10007414:	468c      	mov	ip, r1
10007416:	4692      	mov	sl, r2
10007418:	930d      	str	r3, [sp, #52]	; 0x34
1000741a:	4643      	mov	r3, r8
1000741c:	321f      	adds	r2, #31
1000741e:	4462      	add	r2, ip
10007420:	465f      	mov	r7, fp
10007422:	9512      	str	r5, [sp, #72]	; 0x48
10007424:	46a3      	mov	fp, r4
10007426:	4655      	mov	r5, sl
10007428:	0004      	movs	r4, r0
1000742a:	46b2      	mov	sl, r6
1000742c:	4690      	mov	r8, r2
1000742e:	9e0c      	ldr	r6, [sp, #48]	; 0x30
10007430:	9313      	str	r3, [sp, #76]	; 0x4c
10007432:	e00d      	b.n	10007450 <_vsnprintf+0x8cc>
10007434:	3230      	adds	r2, #48	; 0x30
10007436:	b2d2      	uxtb	r2, r2
10007438:	4643      	mov	r3, r8
1000743a:	3501      	adds	r5, #1
1000743c:	555a      	strb	r2, [r3, r5]
1000743e:	2300      	movs	r3, #0
10007440:	42bb      	cmp	r3, r7
10007442:	d100      	bne.n	10007446 <_vsnprintf+0x8c2>
10007444:	e100      	b.n	10007648 <_vsnprintf+0xac4>
10007446:	2d20      	cmp	r5, #32
10007448:	d100      	bne.n	1000744c <_vsnprintf+0x8c8>
1000744a:	e100      	b.n	1000764e <_vsnprintf+0xaca>
1000744c:	0004      	movs	r4, r0
1000744e:	000f      	movs	r7, r1
10007450:	0032      	movs	r2, r6
10007452:	2300      	movs	r3, #0
10007454:	0020      	movs	r0, r4
10007456:	0039      	movs	r1, r7
10007458:	f000 f9b2 	bl	100077c0 <__wrap___aeabi_uldivmod>
1000745c:	b2d2      	uxtb	r2, r2
1000745e:	2a09      	cmp	r2, #9
10007460:	d9e8      	bls.n	10007434 <_vsnprintf+0x8b0>
10007462:	9b0d      	ldr	r3, [sp, #52]	; 0x34
10007464:	469c      	mov	ip, r3
10007466:	4462      	add	r2, ip
10007468:	b2d2      	uxtb	r2, r2
1000746a:	e7e5      	b.n	10007438 <_vsnprintf+0x8b4>
1000746c:	9a0b      	ldr	r2, [sp, #44]	; 0x2c
1000746e:	2361      	movs	r3, #97	; 0x61
10007470:	0692      	lsls	r2, r2, #26
10007472:	d500      	bpl.n	10007476 <_vsnprintf+0x8f2>
10007474:	2341      	movs	r3, #65	; 0x41
10007476:	b2db      	uxtb	r3, r3
10007478:	a90e      	add	r1, sp, #56	; 0x38
1000747a:	3b0a      	subs	r3, #10
1000747c:	221f      	movs	r2, #31
1000747e:	468c      	mov	ip, r1
10007480:	930d      	str	r3, [sp, #52]	; 0x34
10007482:	0023      	movs	r3, r4
10007484:	4462      	add	r2, ip
10007486:	465c      	mov	r4, fp
10007488:	9512      	str	r5, [sp, #72]	; 0x48
1000748a:	0017      	movs	r7, r2
1000748c:	4655      	mov	r5, sl
1000748e:	469b      	mov	fp, r3
10007490:	46b2      	mov	sl, r6
10007492:	9e0c      	ldr	r6, [sp, #48]	; 0x30
10007494:	e008      	b.n	100074a8 <_vsnprintf+0x924>
10007496:	3330      	adds	r3, #48	; 0x30
10007498:	b2db      	uxtb	r3, r3
1000749a:	3501      	adds	r5, #1
1000749c:	557b      	strb	r3, [r7, r5]
1000749e:	42b4      	cmp	r4, r6
100074a0:	d30e      	bcc.n	100074c0 <_vsnprintf+0x93c>
100074a2:	2d20      	cmp	r5, #32
100074a4:	d00c      	beq.n	100074c0 <_vsnprintf+0x93c>
100074a6:	0004      	movs	r4, r0
100074a8:	0031      	movs	r1, r6
100074aa:	0020      	movs	r0, r4
100074ac:	f000 f94a 	bl	10007744 <__wrap___aeabi_uidiv>
100074b0:	b2cb      	uxtb	r3, r1
100074b2:	2909      	cmp	r1, #9
100074b4:	d9ef      	bls.n	10007496 <_vsnprintf+0x912>
100074b6:	9a0d      	ldr	r2, [sp, #52]	; 0x34
100074b8:	4694      	mov	ip, r2
100074ba:	4463      	add	r3, ip
100074bc:	b2db      	uxtb	r3, r3
100074be:	e7ec      	b.n	1000749a <_vsnprintf+0x916>
100074c0:	4656      	mov	r6, sl
100074c2:	465c      	mov	r4, fp
100074c4:	46aa      	mov	sl, r5
100074c6:	9d12      	ldr	r5, [sp, #72]	; 0x48
100074c8:	e63f      	b.n	1000714a <_vsnprintf+0x5c6>
100074ca:	9b09      	ldr	r3, [sp, #36]	; 0x24
100074cc:	001a      	movs	r2, r3
100074ce:	ca08      	ldmia	r2!, {r3}
100074d0:	17d9      	asrs	r1, r3, #31
100074d2:	9213      	str	r2, [sp, #76]	; 0x4c
100074d4:	185a      	adds	r2, r3, r1
100074d6:	404a      	eors	r2, r1
100074d8:	4692      	mov	sl, r2
100074da:	0fda      	lsrs	r2, r3, #31
100074dc:	9212      	str	r2, [sp, #72]	; 0x48
100074de:	2b00      	cmp	r3, #0
100074e0:	d108      	bne.n	100074f4 <_vsnprintf+0x970>
100074e2:	2380      	movs	r3, #128	; 0x80
100074e4:	2210      	movs	r2, #16
100074e6:	990b      	ldr	r1, [sp, #44]	; 0x2c
100074e8:	00db      	lsls	r3, r3, #3
100074ea:	400b      	ands	r3, r1
100074ec:	4391      	bics	r1, r2
100074ee:	910b      	str	r1, [sp, #44]	; 0x2c
100074f0:	2b00      	cmp	r3, #0
100074f2:	d12b      	bne.n	1000754c <_vsnprintf+0x9c8>
100074f4:	9a0b      	ldr	r2, [sp, #44]	; 0x2c
100074f6:	2361      	movs	r3, #97	; 0x61
100074f8:	0692      	lsls	r2, r2, #26
100074fa:	d500      	bpl.n	100074fe <_vsnprintf+0x97a>
100074fc:	2341      	movs	r3, #65	; 0x41
100074fe:	aa0e      	add	r2, sp, #56	; 0x38
10007500:	271f      	movs	r7, #31
10007502:	4694      	mov	ip, r2
10007504:	b2db      	uxtb	r3, r3
10007506:	3b0a      	subs	r3, #10
10007508:	950d      	str	r5, [sp, #52]	; 0x34
1000750a:	4467      	add	r7, ip
1000750c:	465d      	mov	r5, fp
1000750e:	9309      	str	r3, [sp, #36]	; 0x24
10007510:	46a3      	mov	fp, r4
10007512:	4654      	mov	r4, sl
10007514:	46b2      	mov	sl, r6
10007516:	9e0c      	ldr	r6, [sp, #48]	; 0x30
10007518:	e008      	b.n	1000752c <_vsnprintf+0x9a8>
1000751a:	3330      	adds	r3, #48	; 0x30
1000751c:	b2db      	uxtb	r3, r3
1000751e:	3501      	adds	r5, #1
10007520:	557b      	strb	r3, [r7, r5]
10007522:	42b4      	cmp	r4, r6
10007524:	d30e      	bcc.n	10007544 <_vsnprintf+0x9c0>
10007526:	2d20      	cmp	r5, #32
10007528:	d00c      	beq.n	10007544 <_vsnprintf+0x9c0>
1000752a:	0004      	movs	r4, r0
1000752c:	0031      	movs	r1, r6
1000752e:	0020      	movs	r0, r4
10007530:	f000 f908 	bl	10007744 <__wrap___aeabi_uidiv>
10007534:	b2cb      	uxtb	r3, r1
10007536:	2909      	cmp	r1, #9
10007538:	d9ef      	bls.n	1000751a <_vsnprintf+0x996>
1000753a:	9a09      	ldr	r2, [sp, #36]	; 0x24
1000753c:	4694      	mov	ip, r2
1000753e:	4463      	add	r3, ip
10007540:	b2db      	uxtb	r3, r3
10007542:	e7ec      	b.n	1000751e <_vsnprintf+0x99a>
10007544:	4656      	mov	r6, sl
10007546:	465c      	mov	r4, fp
10007548:	46ab      	mov	fp, r5
1000754a:	9d0d      	ldr	r5, [sp, #52]	; 0x34
1000754c:	9b0b      	ldr	r3, [sp, #44]	; 0x2c
1000754e:	002a      	movs	r2, r5
10007550:	9306      	str	r3, [sp, #24]
10007552:	9b0a      	ldr	r3, [sp, #40]	; 0x28
10007554:	0021      	movs	r1, r4
10007556:	9305      	str	r3, [sp, #20]
10007558:	4643      	mov	r3, r8
1000755a:	9304      	str	r3, [sp, #16]
1000755c:	9b0c      	ldr	r3, [sp, #48]	; 0x30
1000755e:	9808      	ldr	r0, [sp, #32]
10007560:	9303      	str	r3, [sp, #12]
10007562:	9b12      	ldr	r3, [sp, #72]	; 0x48
10007564:	3601      	adds	r6, #1
10007566:	9302      	str	r3, [sp, #8]
10007568:	465b      	mov	r3, fp
1000756a:	9301      	str	r3, [sp, #4]
1000756c:	ab16      	add	r3, sp, #88	; 0x58
1000756e:	9300      	str	r3, [sp, #0]
10007570:	464b      	mov	r3, r9
10007572:	f7fe fe1f 	bl	100061b4 <_ntoa_format>
10007576:	9b13      	ldr	r3, [sp, #76]	; 0x4c
10007578:	0005      	movs	r5, r0
1000757a:	9309      	str	r3, [sp, #36]	; 0x24
1000757c:	f7ff fb27 	bl	10006bce <_vsnprintf+0x4a>
10007580:	2302      	movs	r3, #2
10007582:	930c      	str	r3, [sp, #48]	; 0x30
10007584:	e71a      	b.n	100073bc <_vsnprintf+0x838>
10007586:	9b09      	ldr	r3, [sp, #36]	; 0x24
10007588:	cb04      	ldmia	r3!, {r2}
1000758a:	4692      	mov	sl, r2
1000758c:	9312      	str	r3, [sp, #72]	; 0x48
1000758e:	2a00      	cmp	r2, #0
10007590:	d108      	bne.n	100075a4 <_vsnprintf+0xa20>
10007592:	2380      	movs	r3, #128	; 0x80
10007594:	2210      	movs	r2, #16
10007596:	990b      	ldr	r1, [sp, #44]	; 0x2c
10007598:	00db      	lsls	r3, r3, #3
1000759a:	400b      	ands	r3, r1
1000759c:	4391      	bics	r1, r2
1000759e:	910b      	str	r1, [sp, #44]	; 0x2c
100075a0:	2b00      	cmp	r3, #0
100075a2:	d12b      	bne.n	100075fc <_vsnprintf+0xa78>
100075a4:	9a0b      	ldr	r2, [sp, #44]	; 0x2c
100075a6:	2361      	movs	r3, #97	; 0x61
100075a8:	0692      	lsls	r2, r2, #26
100075aa:	d500      	bpl.n	100075ae <_vsnprintf+0xa2a>
100075ac:	2341      	movs	r3, #65	; 0x41
100075ae:	aa0e      	add	r2, sp, #56	; 0x38
100075b0:	271f      	movs	r7, #31
100075b2:	4694      	mov	ip, r2
100075b4:	b2db      	uxtb	r3, r3
100075b6:	3b0a      	subs	r3, #10
100075b8:	950d      	str	r5, [sp, #52]	; 0x34
100075ba:	4467      	add	r7, ip
100075bc:	465d      	mov	r5, fp
100075be:	9309      	str	r3, [sp, #36]	; 0x24
100075c0:	46a3      	mov	fp, r4
100075c2:	4654      	mov	r4, sl
100075c4:	46b2      	mov	sl, r6
100075c6:	9e0c      	ldr	r6, [sp, #48]	; 0x30
100075c8:	e008      	b.n	100075dc <_vsnprintf+0xa58>
100075ca:	3330      	adds	r3, #48	; 0x30
100075cc:	b2db      	uxtb	r3, r3
100075ce:	3501      	adds	r5, #1
100075d0:	557b      	strb	r3, [r7, r5]
100075d2:	42b4      	cmp	r4, r6
100075d4:	d30e      	bcc.n	100075f4 <_vsnprintf+0xa70>
100075d6:	2d20      	cmp	r5, #32
100075d8:	d00c      	beq.n	100075f4 <_vsnprintf+0xa70>
100075da:	0004      	movs	r4, r0
100075dc:	0031      	movs	r1, r6
100075de:	0020      	movs	r0, r4
100075e0:	f000 f8b0 	bl	10007744 <__wrap___aeabi_uidiv>
100075e4:	b2cb      	uxtb	r3, r1
100075e6:	2909      	cmp	r1, #9
100075e8:	d9ef      	bls.n	100075ca <_vsnprintf+0xa46>
100075ea:	9a09      	ldr	r2, [sp, #36]	; 0x24
100075ec:	4694      	mov	ip, r2
100075ee:	4463      	add	r3, ip
100075f0:	b2db      	uxtb	r3, r3
100075f2:	e7ec      	b.n	100075ce <_vsnprintf+0xa4a>
100075f4:	4656      	mov	r6, sl
100075f6:	465c      	mov	r4, fp
100075f8:	46ab      	mov	fp, r5
100075fa:	9d0d      	ldr	r5, [sp, #52]	; 0x34
100075fc:	9b0b      	ldr	r3, [sp, #44]	; 0x2c
100075fe:	002a      	movs	r2, r5
10007600:	9306      	str	r3, [sp, #24]
10007602:	9b0a      	ldr	r3, [sp, #40]	; 0x28
10007604:	0021      	movs	r1, r4
10007606:	9305      	str	r3, [sp, #20]
10007608:	4643      	mov	r3, r8
1000760a:	9304      	str	r3, [sp, #16]
1000760c:	9b0c      	ldr	r3, [sp, #48]	; 0x30
1000760e:	9808      	ldr	r0, [sp, #32]
10007610:	9303      	str	r3, [sp, #12]
10007612:	2300      	movs	r3, #0
10007614:	9302      	str	r3, [sp, #8]
10007616:	465b      	mov	r3, fp
10007618:	9301      	str	r3, [sp, #4]
1000761a:	ab16      	add	r3, sp, #88	; 0x58
1000761c:	9300      	str	r3, [sp, #0]
1000761e:	464b      	mov	r3, r9
10007620:	f7fe fdc8 	bl	100061b4 <_ntoa_format>
10007624:	9b12      	ldr	r3, [sp, #72]	; 0x48
10007626:	0005      	movs	r5, r0
10007628:	9309      	str	r3, [sp, #36]	; 0x24
1000762a:	3601      	adds	r6, #1
1000762c:	f7ff facf 	bl	10006bce <_vsnprintf+0x4a>
10007630:	42b4      	cmp	r4, r6
10007632:	d800      	bhi.n	10007636 <_vsnprintf+0xab2>
10007634:	e671      	b.n	1000731a <_vsnprintf+0x796>
10007636:	9b14      	ldr	r3, [sp, #80]	; 0x50
10007638:	4654      	mov	r4, sl
1000763a:	960e      	str	r6, [sp, #56]	; 0x38
1000763c:	970f      	str	r7, [sp, #60]	; 0x3c
1000763e:	46aa      	mov	sl, r5
10007640:	4698      	mov	r8, r3
10007642:	9e15      	ldr	r6, [sp, #84]	; 0x54
10007644:	9d13      	ldr	r5, [sp, #76]	; 0x4c
10007646:	e68e      	b.n	10007366 <_vsnprintf+0x7e2>
10007648:	42a6      	cmp	r6, r4
1000764a:	d800      	bhi.n	1000764e <_vsnprintf+0xaca>
1000764c:	e6fb      	b.n	10007446 <_vsnprintf+0x8c2>
1000764e:	9b13      	ldr	r3, [sp, #76]	; 0x4c
10007650:	4656      	mov	r6, sl
10007652:	4698      	mov	r8, r3
10007654:	46aa      	mov	sl, r5
10007656:	465c      	mov	r4, fp
10007658:	9d12      	ldr	r5, [sp, #72]	; 0x48
1000765a:	e576      	b.n	1000714a <_vsnprintf+0x5c6>
1000765c:	c908      	ldmia	r1!, {r3}
1000765e:	17d8      	asrs	r0, r3, #31
10007660:	181a      	adds	r2, r3, r0
10007662:	4042      	eors	r2, r0
10007664:	9109      	str	r1, [sp, #36]	; 0x24
10007666:	f7ff fb8a 	bl	10006d7e <_vsnprintf+0x1fa>
1000766a:	2300      	movs	r3, #0
1000766c:	930b      	str	r3, [sp, #44]	; 0x2c
1000766e:	e450      	b.n	10006f12 <_vsnprintf+0x38e>
10007670:	9b09      	ldr	r3, [sp, #36]	; 0x24
10007672:	cb04      	ldmia	r3!, {r2}
10007674:	4693      	mov	fp, r2
10007676:	9309      	str	r3, [sp, #36]	; 0x24
10007678:	e559      	b.n	1000712e <_vsnprintf+0x5aa>
1000767a:	002f      	movs	r7, r5
1000767c:	e5bb      	b.n	100071f6 <_vsnprintf+0x672>
1000767e:	930b      	str	r3, [sp, #44]	; 0x2c
10007680:	e601      	b.n	10007286 <_vsnprintf+0x702>
10007682:	3b06      	subs	r3, #6
10007684:	930c      	str	r3, [sp, #48]	; 0x30
10007686:	e69a      	b.n	100073be <_vsnprintf+0x83a>

10007688 <vfctprintf>:
10007688:	b500      	push	{lr}
1000768a:	b085      	sub	sp, #20
1000768c:	9103      	str	r1, [sp, #12]
1000768e:	2101      	movs	r1, #1
10007690:	9002      	str	r0, [sp, #8]
10007692:	9300      	str	r3, [sp, #0]
10007694:	4803      	ldr	r0, [pc, #12]	; (100076a4 <vfctprintf+0x1c>)
10007696:	0013      	movs	r3, r2
10007698:	424a      	negs	r2, r1
1000769a:	a902      	add	r1, sp, #8
1000769c:	f7ff fa72 	bl	10006b84 <_vsnprintf>
100076a0:	b005      	add	sp, #20
100076a2:	bd00      	pop	{pc}
100076a4:	10006391 	.word	0x10006391

100076a8 <weak_raw_vprintf>:
100076a8:	b510      	push	{r4, lr}
100076aa:	4a09      	ldr	r2, [pc, #36]	; (100076d0 <weak_raw_vprintf+0x28>)
100076ac:	0003      	movs	r3, r0
100076ae:	6814      	ldr	r4, [r2, #0]
100076b0:	b084      	sub	sp, #16
100076b2:	2c00      	cmp	r4, #0
100076b4:	d008      	beq.n	100076c8 <weak_raw_vprintf+0x20>
100076b6:	2201      	movs	r2, #1
100076b8:	9100      	str	r1, [sp, #0]
100076ba:	4806      	ldr	r0, [pc, #24]	; (100076d4 <weak_raw_vprintf+0x2c>)
100076bc:	4252      	negs	r2, r2
100076be:	a903      	add	r1, sp, #12
100076c0:	47a0      	blx	r4
100076c2:	2001      	movs	r0, #1
100076c4:	b004      	add	sp, #16
100076c6:	bd10      	pop	{r4, pc}
100076c8:	f000 fd74 	bl	100081b4 <__wrap_puts>
100076cc:	2000      	movs	r0, #0
100076ce:	e7f9      	b.n	100076c4 <weak_raw_vprintf+0x1c>
100076d0:	20002b0c 	.word	0x20002b0c
100076d4:	10006381 	.word	0x10006381

100076d8 <__aeabi_bits_init>:
100076d8:	4801      	ldr	r0, [pc, #4]	; (100076e0 <__aeabi_bits_init+0x8>)
100076da:	2104      	movs	r1, #4
100076dc:	4b01      	ldr	r3, [pc, #4]	; (100076e4 <__aeabi_bits_init+0xc>)
100076de:	4718      	bx	r3
100076e0:	20001100 	.word	0x20001100
100076e4:	100009a5 	.word	0x100009a5

100076e8 <__wrap___ctzsi2>:
100076e8:	4b01      	ldr	r3, [pc, #4]	; (100076f0 <__wrap___ctzsi2+0x8>)
100076ea:	689b      	ldr	r3, [r3, #8]
100076ec:	4718      	bx	r3
100076ee:	0000      	.short	0x0000
100076f0:	20001100 	.word	0x20001100

100076f4 <__wrap___aeabi_idiv>:
100076f4:	4a12      	ldr	r2, [pc, #72]	; (10007740 <divmod_s32s32_savestate+0x18>)
100076f6:	6f93      	ldr	r3, [r2, #120]	; 0x78
100076f8:	089b      	lsrs	r3, r3, #2
100076fa:	d215      	bcs.n	10007728 <divmod_s32s32_savestate>

100076fc <divmod_s32s32_unsafe>:
100076fc:	6690      	str	r0, [r2, #104]	; 0x68
100076fe:	66d1      	str	r1, [r2, #108]	; 0x6c
10007700:	2900      	cmp	r1, #0
10007702:	d005      	beq.n	10007710 <divmod_s32s32_unsafe+0x14>
10007704:	e7ff      	b.n	10007706 <divmod_s32s32_unsafe+0xa>
10007706:	e7ff      	b.n	10007708 <divmod_s32s32_unsafe+0xc>
10007708:	e7ff      	b.n	1000770a <divmod_s32s32_unsafe+0xe>
1000770a:	6f51      	ldr	r1, [r2, #116]	; 0x74
1000770c:	6f10      	ldr	r0, [r2, #112]	; 0x70
1000770e:	4770      	bx	lr
10007710:	b504      	push	{r2, lr}
10007712:	2180      	movs	r1, #128	; 0x80
10007714:	0609      	lsls	r1, r1, #24
10007716:	17c2      	asrs	r2, r0, #31
10007718:	4051      	eors	r1, r2
1000771a:	2800      	cmp	r0, #0
1000771c:	d000      	beq.n	10007720 <divmod_s32s32_unsafe+0x24>
1000771e:	43c8      	mvns	r0, r1
10007720:	f003 f832 	bl	1000a788 <____aeabi_idiv0_veneer>
10007724:	2100      	movs	r1, #0
10007726:	bd04      	pop	{r2, pc}

10007728 <divmod_s32s32_savestate>:
10007728:	b5f0      	push	{r4, r5, r6, r7, lr}
1000772a:	6e14      	ldr	r4, [r2, #96]	; 0x60
1000772c:	6e55      	ldr	r5, [r2, #100]	; 0x64
1000772e:	6f57      	ldr	r7, [r2, #116]	; 0x74
10007730:	6f16      	ldr	r6, [r2, #112]	; 0x70
10007732:	f7ff ffe3 	bl	100076fc <divmod_s32s32_unsafe>
10007736:	6614      	str	r4, [r2, #96]	; 0x60
10007738:	6655      	str	r5, [r2, #100]	; 0x64
1000773a:	6757      	str	r7, [r2, #116]	; 0x74
1000773c:	6716      	str	r6, [r2, #112]	; 0x70
1000773e:	bdf0      	pop	{r4, r5, r6, r7, pc}
10007740:	d0000000 	.word	0xd0000000

10007744 <__wrap___aeabi_uidiv>:
10007744:	4a11      	ldr	r2, [pc, #68]	; (1000778c <divmod_u32u32_savestate+0x18>)
10007746:	6f93      	ldr	r3, [r2, #120]	; 0x78
10007748:	089b      	lsrs	r3, r3, #2
1000774a:	d213      	bcs.n	10007774 <divmod_u32u32_savestate>

1000774c <divmod_u32u32_unsafe>:
1000774c:	6610      	str	r0, [r2, #96]	; 0x60
1000774e:	6651      	str	r1, [r2, #100]	; 0x64
10007750:	2900      	cmp	r1, #0
10007752:	d005      	beq.n	10007760 <divmod_u32u32_unsafe+0x14>
10007754:	e7ff      	b.n	10007756 <divmod_u32u32_unsafe+0xa>
10007756:	e7ff      	b.n	10007758 <divmod_u32u32_unsafe+0xc>
10007758:	e7ff      	b.n	1000775a <divmod_u32u32_unsafe+0xe>
1000775a:	6f51      	ldr	r1, [r2, #116]	; 0x74
1000775c:	6f10      	ldr	r0, [r2, #112]	; 0x70
1000775e:	4770      	bx	lr
10007760:	b504      	push	{r2, lr}
10007762:	2800      	cmp	r0, #0
10007764:	d001      	beq.n	1000776a <divmod_u32u32_unsafe+0x1e>
10007766:	2000      	movs	r0, #0
10007768:	43c0      	mvns	r0, r0
1000776a:	f003 f80d 	bl	1000a788 <____aeabi_idiv0_veneer>
1000776e:	2100      	movs	r1, #0
10007770:	bd04      	pop	{r2, pc}
10007772:	46c0      	nop			; (mov r8, r8)

10007774 <divmod_u32u32_savestate>:
10007774:	b5f0      	push	{r4, r5, r6, r7, lr}
10007776:	6e14      	ldr	r4, [r2, #96]	; 0x60
10007778:	6e55      	ldr	r5, [r2, #100]	; 0x64
1000777a:	6f57      	ldr	r7, [r2, #116]	; 0x74
1000777c:	6f16      	ldr	r6, [r2, #112]	; 0x70
1000777e:	f7ff ffe5 	bl	1000774c <divmod_u32u32_unsafe>
10007782:	6614      	str	r4, [r2, #96]	; 0x60
10007784:	6655      	str	r5, [r2, #100]	; 0x64
10007786:	6757      	str	r7, [r2, #116]	; 0x74
10007788:	6716      	str	r6, [r2, #112]	; 0x70
1000778a:	bdf0      	pop	{r4, r5, r6, r7, pc}
1000778c:	d0000000 	.word	0xd0000000

10007790 <__wrap___aeabi_ldivmod>:
10007790:	4694      	mov	ip, r2
10007792:	4a4a      	ldr	r2, [pc, #296]	; (100078bc <udiv0+0x1a>)
10007794:	6f92      	ldr	r2, [r2, #120]	; 0x78
10007796:	0892      	lsrs	r2, r2, #2
10007798:	4662      	mov	r2, ip
1000779a:	d201      	bcs.n	100077a0 <divmod_s64s64_savestate>
1000779c:	e028      	b.n	100077f0 <divmod_s64s64_unsafe>
1000779e:	46c0      	nop			; (mov r8, r8)

100077a0 <divmod_s64s64_savestate>:
100077a0:	b5f0      	push	{r4, r5, r6, r7, lr}
100077a2:	4e46      	ldr	r6, [pc, #280]	; (100078bc <udiv0+0x1a>)
100077a4:	6e34      	ldr	r4, [r6, #96]	; 0x60
100077a6:	6e75      	ldr	r5, [r6, #100]	; 0x64
100077a8:	6f77      	ldr	r7, [r6, #116]	; 0x74
100077aa:	6f36      	ldr	r6, [r6, #112]	; 0x70
100077ac:	f000 f820 	bl	100077f0 <divmod_s64s64_unsafe>
100077b0:	4694      	mov	ip, r2
100077b2:	4a42      	ldr	r2, [pc, #264]	; (100078bc <udiv0+0x1a>)
100077b4:	6614      	str	r4, [r2, #96]	; 0x60
100077b6:	6655      	str	r5, [r2, #100]	; 0x64
100077b8:	6757      	str	r7, [r2, #116]	; 0x74
100077ba:	6716      	str	r6, [r2, #112]	; 0x70
100077bc:	4662      	mov	r2, ip
100077be:	bdf0      	pop	{r4, r5, r6, r7, pc}

100077c0 <__wrap___aeabi_uldivmod>:
100077c0:	4694      	mov	ip, r2
100077c2:	4a3e      	ldr	r2, [pc, #248]	; (100078bc <udiv0+0x1a>)
100077c4:	6f92      	ldr	r2, [r2, #120]	; 0x78
100077c6:	0892      	lsrs	r2, r2, #2
100077c8:	4662      	mov	r2, ip
100077ca:	d201      	bcs.n	100077d0 <divmod_u64u64_savestate>
100077cc:	e054      	b.n	10007878 <divmod_u64u64_unsafe>
100077ce:	46c0      	nop			; (mov r8, r8)

100077d0 <divmod_u64u64_savestate>:
100077d0:	b5f0      	push	{r4, r5, r6, r7, lr}
100077d2:	4e3a      	ldr	r6, [pc, #232]	; (100078bc <udiv0+0x1a>)
100077d4:	6e34      	ldr	r4, [r6, #96]	; 0x60
100077d6:	6e75      	ldr	r5, [r6, #100]	; 0x64
100077d8:	6f77      	ldr	r7, [r6, #116]	; 0x74
100077da:	6f36      	ldr	r6, [r6, #112]	; 0x70
100077dc:	f000 f84c 	bl	10007878 <divmod_u64u64_unsafe>
100077e0:	4694      	mov	ip, r2
100077e2:	4a36      	ldr	r2, [pc, #216]	; (100078bc <udiv0+0x1a>)
100077e4:	6614      	str	r4, [r2, #96]	; 0x60
100077e6:	6655      	str	r5, [r2, #100]	; 0x64
100077e8:	6757      	str	r7, [r2, #116]	; 0x74
100077ea:	6716      	str	r6, [r2, #112]	; 0x70
100077ec:	4662      	mov	r2, ip
100077ee:	bdf0      	pop	{r4, r5, r6, r7, pc}

100077f0 <divmod_s64s64_unsafe>:
100077f0:	2b00      	cmp	r3, #0
100077f2:	db24      	blt.n	1000783e <l41_1+0x26>
100077f4:	d011      	beq.n	1000781a <l41_1+0x2>
100077f6:	2900      	cmp	r1, #0
100077f8:	da3e      	bge.n	10007878 <divmod_u64u64_unsafe>
100077fa:	b500      	push	{lr}
100077fc:	43c9      	mvns	r1, r1
100077fe:	4240      	negs	r0, r0
10007800:	d100      	bne.n	10007804 <l39_1>
10007802:	3101      	adds	r1, #1

10007804 <l39_1>:
10007804:	f000 f838 	bl	10007878 <divmod_u64u64_unsafe>
10007808:	43c9      	mvns	r1, r1
1000780a:	4240      	negs	r0, r0
1000780c:	d100      	bne.n	10007810 <l40_1>
1000780e:	3101      	adds	r1, #1

10007810 <l40_1>:
10007810:	43db      	mvns	r3, r3
10007812:	4252      	negs	r2, r2
10007814:	d100      	bne.n	10007818 <l41_1>
10007816:	3301      	adds	r3, #1

10007818 <l41_1>:
10007818:	bd00      	pop	{pc}
1000781a:	2a00      	cmp	r2, #0
1000781c:	d1eb      	bne.n	100077f6 <divmod_s64s64_unsafe+0x6>
1000781e:	2800      	cmp	r0, #0
10007820:	d101      	bne.n	10007826 <l41_1+0xe>
10007822:	2900      	cmp	r1, #0
10007824:	d005      	beq.n	10007832 <l41_1+0x1a>
10007826:	2000      	movs	r0, #0
10007828:	0fc9      	lsrs	r1, r1, #31
1000782a:	07c9      	lsls	r1, r1, #31
1000782c:	d101      	bne.n	10007832 <l41_1+0x1a>
1000782e:	43c0      	mvns	r0, r0
10007830:	0841      	lsrs	r1, r0, #1
10007832:	b500      	push	{lr}
10007834:	f002 ff98 	bl	1000a768 <____aeabi_ldiv0_veneer>
10007838:	2200      	movs	r2, #0
1000783a:	2300      	movs	r3, #0
1000783c:	bd00      	pop	{pc}
1000783e:	b500      	push	{lr}
10007840:	2900      	cmp	r1, #0
10007842:	db0a      	blt.n	1000785a <l43_1+0x2>
10007844:	43db      	mvns	r3, r3
10007846:	4252      	negs	r2, r2
10007848:	d100      	bne.n	1000784c <l42_1>
1000784a:	3301      	adds	r3, #1

1000784c <l42_1>:
1000784c:	f000 f814 	bl	10007878 <divmod_u64u64_unsafe>
10007850:	43c9      	mvns	r1, r1
10007852:	4240      	negs	r0, r0
10007854:	d100      	bne.n	10007858 <l43_1>
10007856:	3101      	adds	r1, #1

10007858 <l43_1>:
10007858:	bd00      	pop	{pc}
1000785a:	43c9      	mvns	r1, r1
1000785c:	4240      	negs	r0, r0
1000785e:	d100      	bne.n	10007862 <l44_1>
10007860:	3101      	adds	r1, #1

10007862 <l44_1>:
10007862:	43db      	mvns	r3, r3
10007864:	4252      	negs	r2, r2
10007866:	d100      	bne.n	1000786a <l45_1>
10007868:	3301      	adds	r3, #1

1000786a <l45_1>:
1000786a:	f000 f805 	bl	10007878 <divmod_u64u64_unsafe>
1000786e:	43db      	mvns	r3, r3
10007870:	4252      	negs	r2, r2
10007872:	d100      	bne.n	10007876 <l46_1>
10007874:	3301      	adds	r3, #1

10007876 <l46_1>:
10007876:	bd00      	pop	{pc}

10007878 <divmod_u64u64_unsafe>:
10007878:	2900      	cmp	r1, #0
1000787a:	d123      	bne.n	100078c4 <y64>
1000787c:	2b00      	cmp	r3, #0
1000787e:	d118      	bne.n	100078b2 <udiv0+0x10>
10007880:	2a00      	cmp	r2, #0
10007882:	d00c      	beq.n	1000789e <divmod_u64u64_unsafe+0x26>
10007884:	46bc      	mov	ip, r7
10007886:	4f0d      	ldr	r7, [pc, #52]	; (100078bc <udiv0+0x1a>)
10007888:	6638      	str	r0, [r7, #96]	; 0x60
1000788a:	667a      	str	r2, [r7, #100]	; 0x64
1000788c:	2100      	movs	r1, #0
1000788e:	2300      	movs	r3, #0
10007890:	e7ff      	b.n	10007892 <divmod_u64u64_unsafe+0x1a>
10007892:	e7ff      	b.n	10007894 <divmod_u64u64_unsafe+0x1c>
10007894:	e7ff      	b.n	10007896 <divmod_u64u64_unsafe+0x1e>
10007896:	6f7a      	ldr	r2, [r7, #116]	; 0x74
10007898:	6f38      	ldr	r0, [r7, #112]	; 0x70
1000789a:	4667      	mov	r7, ip
1000789c:	4770      	bx	lr
1000789e:	2800      	cmp	r0, #0
100078a0:	d001      	beq.n	100078a6 <udiv0+0x4>

100078a2 <udiv0>:
100078a2:	4807      	ldr	r0, [pc, #28]	; (100078c0 <udiv0+0x1e>)
100078a4:	0001      	movs	r1, r0
100078a6:	b500      	push	{lr}
100078a8:	f002 ff5e 	bl	1000a768 <____aeabi_ldiv0_veneer>
100078ac:	2200      	movs	r2, #0
100078ae:	2300      	movs	r3, #0
100078b0:	bd00      	pop	{pc}
100078b2:	0002      	movs	r2, r0
100078b4:	000b      	movs	r3, r1
100078b6:	2000      	movs	r0, #0
100078b8:	2100      	movs	r1, #0
100078ba:	4770      	bx	lr
100078bc:	d0000000 	.word	0xd0000000
100078c0:	ffffffff 	.word	0xffffffff

100078c4 <y64>:
100078c4:	2b00      	cmp	r3, #0
100078c6:	d000      	beq.n	100078ca <y64+0x6>
100078c8:	e0bf      	b.n	10007a4a <y64_x48>
100078ca:	0c13      	lsrs	r3, r2, #16
100078cc:	d128      	bne.n	10007920 <y64_x32>
100078ce:	2a00      	cmp	r2, #0
100078d0:	d0e7      	beq.n	100078a2 <udiv0>
100078d2:	b480      	push	{r7}
100078d4:	4f11      	ldr	r7, [pc, #68]	; (1000791c <y64+0x58>)
100078d6:	6639      	str	r1, [r7, #96]	; 0x60
100078d8:	667a      	str	r2, [r7, #100]	; 0x64
100078da:	e7ff      	b.n	100078dc <y64+0x18>
100078dc:	e7ff      	b.n	100078de <y64+0x1a>
100078de:	b430      	push	{r4, r5}
100078e0:	0c04      	lsrs	r4, r0, #16
100078e2:	6f7b      	ldr	r3, [r7, #116]	; 0x74
100078e4:	6f39      	ldr	r1, [r7, #112]	; 0x70
100078e6:	041b      	lsls	r3, r3, #16
100078e8:	4323      	orrs	r3, r4
100078ea:	663b      	str	r3, [r7, #96]	; 0x60
100078ec:	667a      	str	r2, [r7, #100]	; 0x64
100078ee:	e7ff      	b.n	100078f0 <y64+0x2c>
100078f0:	e7ff      	b.n	100078f2 <y64+0x2e>
100078f2:	e7ff      	b.n	100078f4 <y64+0x30>
100078f4:	46c0      	nop			; (mov r8, r8)
100078f6:	b284      	uxth	r4, r0
100078f8:	6f7b      	ldr	r3, [r7, #116]	; 0x74
100078fa:	6f3d      	ldr	r5, [r7, #112]	; 0x70
100078fc:	041b      	lsls	r3, r3, #16
100078fe:	4323      	orrs	r3, r4
10007900:	663b      	str	r3, [r7, #96]	; 0x60
10007902:	667a      	str	r2, [r7, #100]	; 0x64
10007904:	e7ff      	b.n	10007906 <y64+0x42>
10007906:	e7ff      	b.n	10007908 <y64+0x44>
10007908:	46c0      	nop			; (mov r8, r8)
1000790a:	2300      	movs	r3, #0
1000790c:	042c      	lsls	r4, r5, #16
1000790e:	0c2d      	lsrs	r5, r5, #16
10007910:	6f7a      	ldr	r2, [r7, #116]	; 0x74
10007912:	6f38      	ldr	r0, [r7, #112]	; 0x70
10007914:	1900      	adds	r0, r0, r4
10007916:	4169      	adcs	r1, r5
10007918:	bcb0      	pop	{r4, r5, r7}
1000791a:	4770      	bx	lr
1000791c:	d0000000 	.word	0xd0000000

10007920 <y64_x32>:
10007920:	b5f0      	push	{r4, r5, r6, r7, lr}
10007922:	4694      	mov	ip, r2
10007924:	2500      	movs	r5, #0
10007926:	0e14      	lsrs	r4, r2, #24
10007928:	d101      	bne.n	1000792e <y64_x32+0xe>
1000792a:	0212      	lsls	r2, r2, #8
1000792c:	3508      	adds	r5, #8
1000792e:	0f14      	lsrs	r4, r2, #28
10007930:	d101      	bne.n	10007936 <y64_x32+0x16>
10007932:	0112      	lsls	r2, r2, #4
10007934:	3504      	adds	r5, #4
10007936:	0f94      	lsrs	r4, r2, #30
10007938:	d101      	bne.n	1000793e <y64_x32+0x1e>
1000793a:	0092      	lsls	r2, r2, #2
1000793c:	3502      	adds	r5, #2
1000793e:	0fd4      	lsrs	r4, r2, #31
10007940:	d101      	bne.n	10007946 <y64_x32+0x26>
10007942:	0052      	lsls	r2, r2, #1
10007944:	3501      	adds	r5, #1
10007946:	0bd4      	lsrs	r4, r2, #15
10007948:	3401      	adds	r4, #1
1000794a:	4f25      	ldr	r7, [pc, #148]	; (100079e0 <y64_x32+0xc0>)
1000794c:	667c      	str	r4, [r7, #100]	; 0x64
1000794e:	4c25      	ldr	r4, [pc, #148]	; (100079e4 <y64_x32+0xc4>)
10007950:	663c      	str	r4, [r7, #96]	; 0x60
10007952:	0c0e      	lsrs	r6, r1, #16
10007954:	b293      	uxth	r3, r2
10007956:	e7ff      	b.n	10007958 <y64_x32+0x38>
10007958:	e7ff      	b.n	1000795a <y64_x32+0x3a>
1000795a:	e7ff      	b.n	1000795c <y64_x32+0x3c>
1000795c:	6f3c      	ldr	r4, [r7, #112]	; 0x70
1000795e:	4366      	muls	r6, r4
10007960:	0c36      	lsrs	r6, r6, #16
10007962:	0377      	lsls	r7, r6, #13
10007964:	46be      	mov	lr, r7
10007966:	4373      	muls	r3, r6
10007968:	0bdf      	lsrs	r7, r3, #15
1000796a:	045b      	lsls	r3, r3, #17
1000796c:	1ac0      	subs	r0, r0, r3
1000796e:	41b9      	sbcs	r1, r7
10007970:	0c13      	lsrs	r3, r2, #16
10007972:	4373      	muls	r3, r6
10007974:	18db      	adds	r3, r3, r3
10007976:	1ac9      	subs	r1, r1, r3
10007978:	08ce      	lsrs	r6, r1, #3
1000797a:	4366      	muls	r6, r4
1000797c:	0c36      	lsrs	r6, r6, #16
1000797e:	44b6      	add	lr, r6
10007980:	b293      	uxth	r3, r2
10007982:	4373      	muls	r3, r6
10007984:	0f1f      	lsrs	r7, r3, #28
10007986:	011b      	lsls	r3, r3, #4
10007988:	1ac0      	subs	r0, r0, r3
1000798a:	41b9      	sbcs	r1, r7
1000798c:	0c13      	lsrs	r3, r2, #16
1000798e:	4373      	muls	r3, r6
10007990:	0b1f      	lsrs	r7, r3, #12
10007992:	051b      	lsls	r3, r3, #20
10007994:	1ac0      	subs	r0, r0, r3
10007996:	41b9      	sbcs	r1, r7
10007998:	0d86      	lsrs	r6, r0, #22
1000799a:	028f      	lsls	r7, r1, #10
1000799c:	433e      	orrs	r6, r7
1000799e:	4366      	muls	r6, r4
100079a0:	0c36      	lsrs	r6, r6, #16
100079a2:	2d09      	cmp	r5, #9
100079a4:	db24      	blt.n	100079f0 <last0>
100079a6:	0a52      	lsrs	r2, r2, #9
100079a8:	4372      	muls	r2, r6
100079aa:	1a80      	subs	r0, r0, r2
100079ac:	0377      	lsls	r7, r6, #13
100079ae:	0a46      	lsrs	r6, r0, #9
100079b0:	4366      	muls	r6, r4
100079b2:	0c36      	lsrs	r6, r6, #16
100079b4:	2316      	movs	r3, #22
100079b6:	1b5b      	subs	r3, r3, r5
100079b8:	40de      	lsrs	r6, r3
100079ba:	40df      	lsrs	r7, r3
100079bc:	19bf      	adds	r7, r7, r6
100079be:	4664      	mov	r4, ip
100079c0:	4366      	muls	r6, r4
100079c2:	1b82      	subs	r2, r0, r6
100079c4:	4670      	mov	r0, lr
100079c6:	3504      	adds	r5, #4
100079c8:	3306      	adds	r3, #6
100079ca:	0001      	movs	r1, r0
100079cc:	40d9      	lsrs	r1, r3
100079ce:	40a8      	lsls	r0, r5
100079d0:	19c0      	adds	r0, r0, r7
100079d2:	d300      	bcc.n	100079d6 <y64_x32+0xb6>
100079d4:	3101      	adds	r1, #1
100079d6:	42a2      	cmp	r2, r4
100079d8:	d206      	bcs.n	100079e8 <y64_x32+0xc8>
100079da:	2300      	movs	r3, #0
100079dc:	bdf0      	pop	{r4, r5, r6, r7, pc}
100079de:	0000      	.short	0x0000
100079e0:	d0000000 	.word	0xd0000000
100079e4:	ffffffff 	.word	0xffffffff
100079e8:	1b12      	subs	r2, r2, r4
100079ea:	3001      	adds	r0, #1
100079ec:	d3f3      	bcc.n	100079d6 <y64_x32+0xb6>
100079ee:	e7f1      	b.n	100079d4 <y64_x32+0xb4>

100079f0 <last0>:
100079f0:	2709      	movs	r7, #9
100079f2:	1b7f      	subs	r7, r7, r5
100079f4:	40fe      	lsrs	r6, r7
100079f6:	4664      	mov	r4, ip
100079f8:	b2a2      	uxth	r2, r4
100079fa:	4372      	muls	r2, r6
100079fc:	1a80      	subs	r0, r0, r2
100079fe:	d200      	bcs.n	10007a02 <last0+0x12>
10007a00:	3901      	subs	r1, #1
10007a02:	0c22      	lsrs	r2, r4, #16
10007a04:	4372      	muls	r2, r6
10007a06:	0c13      	lsrs	r3, r2, #16
10007a08:	0412      	lsls	r2, r2, #16
10007a0a:	1a82      	subs	r2, r0, r2
10007a0c:	4199      	sbcs	r1, r3
10007a0e:	000b      	movs	r3, r1
10007a10:	4670      	mov	r0, lr
10007a12:	3504      	adds	r5, #4
10007a14:	3713      	adds	r7, #19
10007a16:	0001      	movs	r1, r0
10007a18:	40f9      	lsrs	r1, r7
10007a1a:	40a8      	lsls	r0, r5
10007a1c:	1980      	adds	r0, r0, r6
10007a1e:	d300      	bcc.n	10007a22 <last0+0x32>
10007a20:	3101      	adds	r1, #1
10007a22:	2b00      	cmp	r3, #0
10007a24:	d102      	bne.n	10007a2c <last0+0x3c>
10007a26:	42a2      	cmp	r2, r4
10007a28:	d20a      	bcs.n	10007a40 <last0+0x50>
10007a2a:	bdf0      	pop	{r4, r5, r6, r7, pc}
10007a2c:	3001      	adds	r0, #1
10007a2e:	d300      	bcc.n	10007a32 <last0+0x42>
10007a30:	3101      	adds	r1, #1
10007a32:	1b12      	subs	r2, r2, r4
10007a34:	d2fa      	bcs.n	10007a2c <last0+0x3c>
10007a36:	3b01      	subs	r3, #1
10007a38:	d1f8      	bne.n	10007a2c <last0+0x3c>
10007a3a:	42a2      	cmp	r2, r4
10007a3c:	d200      	bcs.n	10007a40 <last0+0x50>
10007a3e:	bdf0      	pop	{r4, r5, r6, r7, pc}
10007a40:	3001      	adds	r0, #1
10007a42:	d300      	bcc.n	10007a46 <last0+0x56>
10007a44:	3101      	adds	r1, #1
10007a46:	1b12      	subs	r2, r2, r4
10007a48:	e7f7      	b.n	10007a3a <last0+0x4a>

10007a4a <y64_x48>:
10007a4a:	b5f0      	push	{r4, r5, r6, r7, lr}
10007a4c:	0c1c      	lsrs	r4, r3, #16
10007a4e:	d000      	beq.n	10007a52 <y64_x48+0x8>
10007a50:	e080      	b.n	10007b54 <y64_x64>
10007a52:	b40c      	push	{r2, r3}
10007a54:	2500      	movs	r5, #0
10007a56:	0a1c      	lsrs	r4, r3, #8
10007a58:	d104      	bne.n	10007a64 <y64_x48+0x1a>
10007a5a:	021b      	lsls	r3, r3, #8
10007a5c:	0e16      	lsrs	r6, r2, #24
10007a5e:	4333      	orrs	r3, r6
10007a60:	0212      	lsls	r2, r2, #8
10007a62:	3508      	adds	r5, #8
10007a64:	0b1c      	lsrs	r4, r3, #12
10007a66:	d104      	bne.n	10007a72 <y64_x48+0x28>
10007a68:	011b      	lsls	r3, r3, #4
10007a6a:	0f16      	lsrs	r6, r2, #28
10007a6c:	4333      	orrs	r3, r6
10007a6e:	0112      	lsls	r2, r2, #4
10007a70:	3504      	adds	r5, #4
10007a72:	0b9c      	lsrs	r4, r3, #14
10007a74:	d104      	bne.n	10007a80 <y64_x48+0x36>
10007a76:	009b      	lsls	r3, r3, #2
10007a78:	0f96      	lsrs	r6, r2, #30
10007a7a:	4333      	orrs	r3, r6
10007a7c:	0092      	lsls	r2, r2, #2
10007a7e:	3502      	adds	r5, #2
10007a80:	0bdc      	lsrs	r4, r3, #15
10007a82:	d102      	bne.n	10007a8a <y64_x48+0x40>
10007a84:	1892      	adds	r2, r2, r2
10007a86:	415b      	adcs	r3, r3
10007a88:	3501      	adds	r5, #1
10007a8a:	001c      	movs	r4, r3
10007a8c:	1897      	adds	r7, r2, r2
10007a8e:	4164      	adcs	r4, r4
10007a90:	3401      	adds	r4, #1
10007a92:	4f46      	ldr	r7, [pc, #280]	; (10007bac <y64_x64+0x58>)
10007a94:	667c      	str	r4, [r7, #100]	; 0x64
10007a96:	4c46      	ldr	r4, [pc, #280]	; (10007bb0 <y64_x64+0x5c>)
10007a98:	663c      	str	r4, [r7, #96]	; 0x60
10007a9a:	0c0e      	lsrs	r6, r1, #16
10007a9c:	e7ff      	b.n	10007a9e <y64_x48+0x54>
10007a9e:	e7ff      	b.n	10007aa0 <y64_x48+0x56>
10007aa0:	e7ff      	b.n	10007aa2 <y64_x48+0x58>
10007aa2:	46c0      	nop			; (mov r8, r8)
10007aa4:	6f3c      	ldr	r4, [r7, #112]	; 0x70
10007aa6:	4366      	muls	r6, r4
10007aa8:	0c36      	lsrs	r6, r6, #16
10007aaa:	0377      	lsls	r7, r6, #13
10007aac:	46be      	mov	lr, r7
10007aae:	b297      	uxth	r7, r2
10007ab0:	4377      	muls	r7, r6
10007ab2:	1bc0      	subs	r0, r0, r7
10007ab4:	d200      	bcs.n	10007ab8 <y64_x48+0x6e>
10007ab6:	3901      	subs	r1, #1
10007ab8:	1bc0      	subs	r0, r0, r7
10007aba:	d200      	bcs.n	10007abe <y64_x48+0x74>
10007abc:	3901      	subs	r1, #1
10007abe:	b29f      	uxth	r7, r3
10007ac0:	4377      	muls	r7, r6
10007ac2:	1bc9      	subs	r1, r1, r7
10007ac4:	1bc9      	subs	r1, r1, r7
10007ac6:	0c17      	lsrs	r7, r2, #16
10007ac8:	4377      	muls	r7, r6
10007aca:	047e      	lsls	r6, r7, #17
10007acc:	0bff      	lsrs	r7, r7, #15
10007ace:	1b80      	subs	r0, r0, r6
10007ad0:	41b9      	sbcs	r1, r7
10007ad2:	08ce      	lsrs	r6, r1, #3
10007ad4:	4366      	muls	r6, r4
10007ad6:	0c36      	lsrs	r6, r6, #16
10007ad8:	2d0c      	cmp	r5, #12
10007ada:	db33      	blt.n	10007b44 <last1>
10007adc:	44b6      	add	lr, r6
10007ade:	0b12      	lsrs	r2, r2, #12
10007ae0:	051f      	lsls	r7, r3, #20
10007ae2:	433a      	orrs	r2, r7
10007ae4:	0b1b      	lsrs	r3, r3, #12
10007ae6:	b297      	uxth	r7, r2
10007ae8:	4377      	muls	r7, r6
10007aea:	1bc0      	subs	r0, r0, r7
10007aec:	d200      	bcs.n	10007af0 <y64_x48+0xa6>
10007aee:	3901      	subs	r1, #1
10007af0:	b29f      	uxth	r7, r3
10007af2:	4377      	muls	r7, r6
10007af4:	1bc9      	subs	r1, r1, r7
10007af6:	0c17      	lsrs	r7, r2, #16
10007af8:	4377      	muls	r7, r6
10007afa:	043e      	lsls	r6, r7, #16
10007afc:	0c3f      	lsrs	r7, r7, #16
10007afe:	1b80      	subs	r0, r0, r6
10007b00:	41b9      	sbcs	r1, r7
10007b02:	0d86      	lsrs	r6, r0, #22
10007b04:	028f      	lsls	r7, r1, #10
10007b06:	433e      	orrs	r6, r7
10007b08:	4366      	muls	r6, r4
10007b0a:	2729      	movs	r7, #41	; 0x29
10007b0c:	1b7f      	subs	r7, r7, r5
10007b0e:	40fe      	lsrs	r6, r7
10007b10:	3d0c      	subs	r5, #12
10007b12:	4677      	mov	r7, lr
10007b14:	40af      	lsls	r7, r5
10007b16:	19bf      	adds	r7, r7, r6
10007b18:	bc30      	pop	{r4, r5}
10007b1a:	b2a2      	uxth	r2, r4
10007b1c:	b2ab      	uxth	r3, r5
10007b1e:	4372      	muls	r2, r6
10007b20:	4373      	muls	r3, r6
10007b22:	1a80      	subs	r0, r0, r2
10007b24:	4199      	sbcs	r1, r3
10007b26:	0c22      	lsrs	r2, r4, #16
10007b28:	4372      	muls	r2, r6
10007b2a:	0c13      	lsrs	r3, r2, #16
10007b2c:	0412      	lsls	r2, r2, #16
10007b2e:	1a80      	subs	r0, r0, r2
10007b30:	4199      	sbcs	r1, r3
10007b32:	0002      	movs	r2, r0
10007b34:	000b      	movs	r3, r1
10007b36:	3701      	adds	r7, #1
10007b38:	1b00      	subs	r0, r0, r4
10007b3a:	41a9      	sbcs	r1, r5
10007b3c:	d2f9      	bcs.n	10007b32 <y64_x48+0xe8>
10007b3e:	1e78      	subs	r0, r7, #1
10007b40:	2100      	movs	r1, #0
10007b42:	bdf0      	pop	{r4, r5, r6, r7, pc}

10007b44 <last1>:
10007b44:	270c      	movs	r7, #12
10007b46:	1b7f      	subs	r7, r7, r5
10007b48:	40fe      	lsrs	r6, r7
10007b4a:	4677      	mov	r7, lr
10007b4c:	0b7f      	lsrs	r7, r7, #13
10007b4e:	40af      	lsls	r7, r5
10007b50:	19ff      	adds	r7, r7, r7
10007b52:	e7e0      	b.n	10007b16 <y64_x48+0xcc>

10007b54 <y64_x64>:
10007b54:	2400      	movs	r4, #0
10007b56:	1c5d      	adds	r5, r3, #1
10007b58:	d007      	beq.n	10007b6a <y64_x64+0x16>
10007b5a:	4f14      	ldr	r7, [pc, #80]	; (10007bac <y64_x64+0x58>)
10007b5c:	667d      	str	r5, [r7, #100]	; 0x64
10007b5e:	6639      	str	r1, [r7, #96]	; 0x60
10007b60:	e7ff      	b.n	10007b62 <y64_x64+0xe>
10007b62:	e7ff      	b.n	10007b64 <y64_x64+0x10>
10007b64:	e7ff      	b.n	10007b66 <y64_x64+0x12>
10007b66:	e7ff      	b.n	10007b68 <y64_x64+0x14>
10007b68:	6f3c      	ldr	r4, [r7, #112]	; 0x70
10007b6a:	b295      	uxth	r5, r2
10007b6c:	b29e      	uxth	r6, r3
10007b6e:	4365      	muls	r5, r4
10007b70:	4366      	muls	r6, r4
10007b72:	1b40      	subs	r0, r0, r5
10007b74:	41b1      	sbcs	r1, r6
10007b76:	0c15      	lsrs	r5, r2, #16
10007b78:	0c1e      	lsrs	r6, r3, #16
10007b7a:	4365      	muls	r5, r4
10007b7c:	4366      	muls	r6, r4
10007b7e:	0436      	lsls	r6, r6, #16
10007b80:	0c2f      	lsrs	r7, r5, #16
10007b82:	433e      	orrs	r6, r7
10007b84:	042d      	lsls	r5, r5, #16
10007b86:	1b40      	subs	r0, r0, r5
10007b88:	41b1      	sbcs	r1, r6
10007b8a:	4299      	cmp	r1, r3
10007b8c:	d204      	bcs.n	10007b98 <y64_x64+0x44>
10007b8e:	0002      	movs	r2, r0
10007b90:	000b      	movs	r3, r1
10007b92:	0020      	movs	r0, r4
10007b94:	2100      	movs	r1, #0
10007b96:	bdf0      	pop	{r4, r5, r6, r7, pc}
10007b98:	d101      	bne.n	10007b9e <y64_x64+0x4a>
10007b9a:	4290      	cmp	r0, r2
10007b9c:	d3f7      	bcc.n	10007b8e <y64_x64+0x3a>
10007b9e:	1a80      	subs	r0, r0, r2
10007ba0:	4199      	sbcs	r1, r3
10007ba2:	3401      	adds	r4, #1
10007ba4:	4299      	cmp	r1, r3
10007ba6:	d3f2      	bcc.n	10007b8e <y64_x64+0x3a>
10007ba8:	e7f6      	b.n	10007b98 <y64_x64+0x44>
10007baa:	0000      	.short	0x0000
10007bac:	d0000000 	.word	0xd0000000
10007bb0:	ffffffff 	.word	0xffffffff

10007bb4 <__wrap___aeabi_drsub>:
10007bb4:	4048      	eors	r0, r1
10007bb6:	4041      	eors	r1, r0
10007bb8:	4048      	eors	r0, r1

10007bba <__wrap___aeabi_dsub>:
10007bba:	b418      	push	{r3, r4}
10007bbc:	4b13      	ldr	r3, [pc, #76]	; (10007c0c <__wrap___aeabi_dmul+0xa>)
10007bbe:	685b      	ldr	r3, [r3, #4]
10007bc0:	9301      	str	r3, [sp, #4]
10007bc2:	bd08      	pop	{r3, pc}

10007bc4 <__wrap___aeabi_dadd>:
10007bc4:	b418      	push	{r3, r4}
10007bc6:	4b11      	ldr	r3, [pc, #68]	; (10007c0c <__wrap___aeabi_dmul+0xa>)
10007bc8:	681b      	ldr	r3, [r3, #0]
10007bca:	9301      	str	r3, [sp, #4]
10007bcc:	bd08      	pop	{r3, pc}

10007bce <__wrap___aeabi_ddiv>:
10007bce:	4694      	mov	ip, r2
10007bd0:	4a0f      	ldr	r2, [pc, #60]	; (10007c10 <__wrap___aeabi_dmul+0xe>)
10007bd2:	6f92      	ldr	r2, [r2, #120]	; 0x78
10007bd4:	0892      	lsrs	r2, r2, #2
10007bd6:	d205      	bcs.n	10007be4 <ddiv_save_state>
10007bd8:	4662      	mov	r2, ip

10007bda <ddiv_shim_call>:
10007bda:	b418      	push	{r3, r4}
10007bdc:	4b0b      	ldr	r3, [pc, #44]	; (10007c0c <__wrap___aeabi_dmul+0xa>)
10007bde:	68db      	ldr	r3, [r3, #12]
10007be0:	9301      	str	r3, [sp, #4]
10007be2:	bd08      	pop	{r3, pc}

10007be4 <ddiv_save_state>:
10007be4:	4a0a      	ldr	r2, [pc, #40]	; (10007c10 <__wrap___aeabi_dmul+0xe>)
10007be6:	b5f0      	push	{r4, r5, r6, r7, lr}
10007be8:	6e14      	ldr	r4, [r2, #96]	; 0x60
10007bea:	6e55      	ldr	r5, [r2, #100]	; 0x64
10007bec:	6f57      	ldr	r7, [r2, #116]	; 0x74
10007bee:	6f16      	ldr	r6, [r2, #112]	; 0x70
10007bf0:	4662      	mov	r2, ip
10007bf2:	f7ff fff2 	bl	10007bda <ddiv_shim_call>
10007bf6:	4a06      	ldr	r2, [pc, #24]	; (10007c10 <__wrap___aeabi_dmul+0xe>)
10007bf8:	6614      	str	r4, [r2, #96]	; 0x60
10007bfa:	6655      	str	r5, [r2, #100]	; 0x64
10007bfc:	6757      	str	r7, [r2, #116]	; 0x74
10007bfe:	6716      	str	r6, [r2, #112]	; 0x70
10007c00:	bdf0      	pop	{r4, r5, r6, r7, pc}

10007c02 <__wrap___aeabi_dmul>:
10007c02:	b418      	push	{r3, r4}
10007c04:	4b01      	ldr	r3, [pc, #4]	; (10007c0c <__wrap___aeabi_dmul+0xa>)
10007c06:	689b      	ldr	r3, [r3, #8]
10007c08:	9301      	str	r3, [sp, #4]
10007c0a:	bd08      	pop	{r3, pc}
10007c0c:	200012e8 	.word	0x200012e8
10007c10:	d0000000 	.word	0xd0000000

10007c14 <__wrap___aeabi_cdrcmple>:
10007c14:	b5ff      	push	{r0, r1, r2, r3, r4, r5, r6, r7, lr}
10007c16:	4050      	eors	r0, r2
10007c18:	4042      	eors	r2, r0
10007c1a:	4050      	eors	r0, r2
10007c1c:	4059      	eors	r1, r3
10007c1e:	404b      	eors	r3, r1
10007c20:	4059      	eors	r1, r3
10007c22:	e000      	b.n	10007c26 <__aeabi_dfcmple_guts>

10007c24 <__wrap___aeabi_cdcmpeq>:
10007c24:	b5ff      	push	{r0, r1, r2, r3, r4, r5, r6, r7, lr}

10007c26 <__aeabi_dfcmple_guts>:
10007c26:	4f15      	ldr	r7, [pc, #84]	; (10007c7c <__aeabi_dfcmple_guts+0x56>)
10007c28:	004c      	lsls	r4, r1, #1
10007c2a:	0d64      	lsrs	r4, r4, #21
10007c2c:	d003      	beq.n	10007c36 <__aeabi_dfcmple_guts+0x10>
10007c2e:	42bc      	cmp	r4, r7
10007c30:	d104      	bne.n	10007c3c <__aeabi_dfcmple_guts+0x16>
10007c32:	030c      	lsls	r4, r1, #12
10007c34:	d814      	bhi.n	10007c60 <__aeabi_dfcmple_guts+0x3a>
10007c36:	2000      	movs	r0, #0
10007c38:	0d09      	lsrs	r1, r1, #20
10007c3a:	0509      	lsls	r1, r1, #20
10007c3c:	005c      	lsls	r4, r3, #1
10007c3e:	0d64      	lsrs	r4, r4, #21
10007c40:	d003      	beq.n	10007c4a <__aeabi_dfcmple_guts+0x24>
10007c42:	42bc      	cmp	r4, r7
10007c44:	d104      	bne.n	10007c50 <__aeabi_dfcmple_guts+0x2a>
10007c46:	031c      	lsls	r4, r3, #12
10007c48:	d80a      	bhi.n	10007c60 <__aeabi_dfcmple_guts+0x3a>
10007c4a:	2200      	movs	r2, #0
10007c4c:	0d1b      	lsrs	r3, r3, #20
10007c4e:	051b      	lsls	r3, r3, #20
10007c50:	2601      	movs	r6, #1
10007c52:	404b      	eors	r3, r1
10007c54:	d409      	bmi.n	10007c6a <__aeabi_dfcmple_guts+0x44>
10007c56:	404b      	eors	r3, r1
10007c58:	d503      	bpl.n	10007c62 <__aeabi_dfcmple_guts+0x3c>
10007c5a:	428b      	cmp	r3, r1
10007c5c:	d100      	bne.n	10007c60 <__aeabi_dfcmple_guts+0x3a>
10007c5e:	4282      	cmp	r2, r0
10007c60:	bdff      	pop	{r0, r1, r2, r3, r4, r5, r6, r7, pc}
10007c62:	4299      	cmp	r1, r3
10007c64:	d1fc      	bne.n	10007c60 <__aeabi_dfcmple_guts+0x3a>
10007c66:	4290      	cmp	r0, r2
10007c68:	bdff      	pop	{r0, r1, r2, r3, r4, r5, r6, r7, pc}
10007c6a:	430b      	orrs	r3, r1
10007c6c:	18db      	adds	r3, r3, r3
10007c6e:	4303      	orrs	r3, r0
10007c70:	4313      	orrs	r3, r2
10007c72:	d0f5      	beq.n	10007c60 <__aeabi_dfcmple_guts+0x3a>
10007c74:	43c9      	mvns	r1, r1
10007c76:	1849      	adds	r1, r1, r1
10007c78:	bdff      	pop	{r0, r1, r2, r3, r4, r5, r6, r7, pc}
10007c7a:	0000      	.short	0x0000
10007c7c:	000007ff 	.word	0x000007ff

10007c80 <__wrap___aeabi_dcmplt>:
10007c80:	b500      	push	{lr}
10007c82:	f7ff ffcf 	bl	10007c24 <__wrap___aeabi_cdcmpeq>
10007c86:	4180      	sbcs	r0, r0
10007c88:	bd00      	pop	{pc}
10007c8a:	46c0      	nop			; (mov r8, r8)

10007c8c <__wrap___aeabi_dcmple>:
10007c8c:	b500      	push	{lr}
10007c8e:	f7ff ffc9 	bl	10007c24 <__wrap___aeabi_cdcmpeq>
10007c92:	d901      	bls.n	10007c98 <__wrap___aeabi_dcmple+0xc>
10007c94:	2000      	movs	r0, #0
10007c96:	bd00      	pop	{pc}
10007c98:	2001      	movs	r0, #1
10007c9a:	bd00      	pop	{pc}

10007c9c <__wrap___aeabi_dcmpge>:
10007c9c:	b500      	push	{lr}
10007c9e:	f7ff ffb9 	bl	10007c14 <__wrap___aeabi_cdrcmple>
10007ca2:	d901      	bls.n	10007ca8 <__wrap___aeabi_dcmpge+0xc>
10007ca4:	2000      	movs	r0, #0
10007ca6:	bd00      	pop	{pc}
10007ca8:	2001      	movs	r0, #1
10007caa:	bd00      	pop	{pc}

10007cac <__wrap___aeabi_dcmpgt>:
10007cac:	b500      	push	{lr}
10007cae:	f7ff ffb1 	bl	10007c14 <__wrap___aeabi_cdrcmple>
10007cb2:	4180      	sbcs	r0, r0
10007cb4:	bd00      	pop	{pc}

10007cb6 <__wrap___aeabi_dcmpun>:
10007cb6:	2001      	movs	r0, #1
10007cb8:	0540      	lsls	r0, r0, #21
10007cba:	004a      	lsls	r2, r1, #1
10007cbc:	1812      	adds	r2, r2, r0
10007cbe:	d804      	bhi.n	10007cca <__wrap___aeabi_dcmpun+0x14>
10007cc0:	005a      	lsls	r2, r3, #1
10007cc2:	1812      	adds	r2, r2, r0
10007cc4:	d801      	bhi.n	10007cca <__wrap___aeabi_dcmpun+0x14>
10007cc6:	2000      	movs	r0, #0
10007cc8:	4770      	bx	lr
10007cca:	2001      	movs	r0, #1
10007ccc:	4770      	bx	lr
10007cce:	2000      	movs	r0, #0
10007cd0:	4770      	bx	lr
	...

10007cd4 <__wrap___aeabi_ui2d>:
10007cd4:	2100      	movs	r1, #0
10007cd6:	2800      	cmp	r0, #0
10007cd8:	d105      	bne.n	10007ce6 <__wrap___aeabi_i2d+0xa>
10007cda:	4770      	bx	lr

10007cdc <__wrap___aeabi_i2d>:
10007cdc:	17c1      	asrs	r1, r0, #31
10007cde:	4048      	eors	r0, r1
10007ce0:	1a40      	subs	r0, r0, r1
10007ce2:	d0fa      	beq.n	10007cda <__wrap___aeabi_ui2d+0x6>
10007ce4:	07c9      	lsls	r1, r1, #31
10007ce6:	b513      	push	{r0, r1, r4, lr}
10007ce8:	4b06      	ldr	r3, [pc, #24]	; (10007d04 <__wrap___aeabi_i2d+0x28>)
10007cea:	681b      	ldr	r3, [r3, #0]
10007cec:	4798      	blx	r3
10007cee:	bc0c      	pop	{r2, r3}
10007cf0:	1c44      	adds	r4, r0, #1
10007cf2:	40a2      	lsls	r2, r4
10007cf4:	0510      	lsls	r0, r2, #20
10007cf6:	0b12      	lsrs	r2, r2, #12
10007cf8:	4903      	ldr	r1, [pc, #12]	; (10007d08 <__wrap___aeabi_i2d+0x2c>)
10007cfa:	1b09      	subs	r1, r1, r4
10007cfc:	0509      	lsls	r1, r1, #20
10007cfe:	4319      	orrs	r1, r3
10007d00:	4311      	orrs	r1, r2
10007d02:	bd10      	pop	{r4, pc}
10007d04:	20002b40 	.word	0x20002b40
10007d08:	0000041f 	.word	0x0000041f

10007d0c <__wrap___aeabi_d2iz>:
10007d0c:	b510      	push	{r4, lr}
10007d0e:	004c      	lsls	r4, r1, #1
10007d10:	0d62      	lsrs	r2, r4, #21
10007d12:	2380      	movs	r3, #128	; 0x80
10007d14:	18d2      	adds	r2, r2, r3
10007d16:	00db      	lsls	r3, r3, #3
10007d18:	1ad2      	subs	r2, r2, r3
10007d1a:	055b      	lsls	r3, r3, #21
10007d1c:	2a7e      	cmp	r2, #126	; 0x7e
10007d1e:	dd10      	ble.n	10007d42 <__wrap___aeabi_d2iz+0x36>
10007d20:	3a9e      	subs	r2, #158	; 0x9e
10007d22:	da13      	bge.n	10007d4c <__wrap___aeabi_d2iz+0x40>
10007d24:	17cc      	asrs	r4, r1, #31
10007d26:	0309      	lsls	r1, r1, #12
10007d28:	0849      	lsrs	r1, r1, #1
10007d2a:	4319      	orrs	r1, r3
10007d2c:	4252      	negs	r2, r2
10007d2e:	40d1      	lsrs	r1, r2
10007d30:	0064      	lsls	r4, r4, #1
10007d32:	3401      	adds	r4, #1
10007d34:	3215      	adds	r2, #21
10007d36:	2a20      	cmp	r2, #32
10007d38:	da05      	bge.n	10007d46 <__wrap___aeabi_d2iz+0x3a>
10007d3a:	40d0      	lsrs	r0, r2
10007d3c:	4308      	orrs	r0, r1
10007d3e:	4360      	muls	r0, r4
10007d40:	bd10      	pop	{r4, pc}
10007d42:	2000      	movs	r0, #0
10007d44:	bd10      	pop	{r4, pc}
10007d46:	4608      	mov	r0, r1
10007d48:	4360      	muls	r0, r4
10007d4a:	bd10      	pop	{r4, pc}
10007d4c:	0fc8      	lsrs	r0, r1, #31
10007d4e:	18c0      	adds	r0, r0, r3
10007d50:	3801      	subs	r0, #1
10007d52:	bd10      	pop	{r4, pc}

10007d54 <__wrap___aeabi_d2uiz>:
10007d54:	b418      	push	{r3, r4}
10007d56:	4b02      	ldr	r3, [pc, #8]	; (10007d60 <__wrap___aeabi_d2uiz+0xc>)
10007d58:	6a5b      	ldr	r3, [r3, #36]	; 0x24
10007d5a:	9301      	str	r3, [sp, #4]
10007d5c:	bd08      	pop	{r3, pc}
10007d5e:	0000      	.short	0x0000
10007d60:	200012e8 	.word	0x200012e8

10007d64 <missing_double_func_shim>:
10007d64:	b510      	push	{r4, lr}
10007d66:	4801      	ldr	r0, [pc, #4]	; (10007d6c <missing_double_func_shim+0x8>)
10007d68:	f7fe f9b6 	bl	100060d8 <panic>
10007d6c:	100423f0 	.word	0x100423f0

10007d70 <__aeabi_double_init>:
10007d70:	2313      	movs	r3, #19
10007d72:	b570      	push	{r4, r5, r6, lr}
10007d74:	781d      	ldrb	r5, [r3, #0]
10007d76:	2d01      	cmp	r5, #1
10007d78:	d011      	beq.n	10007d9e <__aeabi_double_init+0x2e>
10007d7a:	dd35      	ble.n	10007de8 <__aeabi_double_init+0x78>
10007d7c:	481c      	ldr	r0, [pc, #112]	; (10007df0 <__aeabi_double_init+0x80>)
10007d7e:	f7f8 fe09 	bl	10000994 <rom_data_lookup>
10007d82:	4c1c      	ldr	r4, [pc, #112]	; (10007df4 <__aeabi_double_init+0x84>)
10007d84:	0001      	movs	r1, r0
10007d86:	2280      	movs	r2, #128	; 0x80
10007d88:	0020      	movs	r0, r4
10007d8a:	f000 f8af 	bl	10007eec <__wrap___aeabi_memcpy>
10007d8e:	2d02      	cmp	r5, #2
10007d90:	d027      	beq.n	10007de2 <__aeabi_double_init+0x72>
10007d92:	4819      	ldr	r0, [pc, #100]	; (10007df8 <__aeabi_double_init+0x88>)
10007d94:	f7f8 fdf6 	bl	10000984 <rom_func_lookup>
10007d98:	4b18      	ldr	r3, [pc, #96]	; (10007dfc <__aeabi_double_init+0x8c>)
10007d9a:	6018      	str	r0, [r3, #0]
10007d9c:	bd70      	pop	{r4, r5, r6, pc}
10007d9e:	4b18      	ldr	r3, [pc, #96]	; (10007e00 <__aeabi_double_init+0x90>)
10007da0:	4c14      	ldr	r4, [pc, #80]	; (10007df4 <__aeabi_double_init+0x84>)
10007da2:	6023      	str	r3, [r4, #0]
10007da4:	6063      	str	r3, [r4, #4]
10007da6:	60a3      	str	r3, [r4, #8]
10007da8:	60e3      	str	r3, [r4, #12]
10007daa:	6123      	str	r3, [r4, #16]
10007dac:	6163      	str	r3, [r4, #20]
10007dae:	61a3      	str	r3, [r4, #24]
10007db0:	61e3      	str	r3, [r4, #28]
10007db2:	6223      	str	r3, [r4, #32]
10007db4:	6263      	str	r3, [r4, #36]	; 0x24
10007db6:	62a3      	str	r3, [r4, #40]	; 0x28
10007db8:	62e3      	str	r3, [r4, #44]	; 0x2c
10007dba:	6323      	str	r3, [r4, #48]	; 0x30
10007dbc:	6363      	str	r3, [r4, #52]	; 0x34
10007dbe:	63a3      	str	r3, [r4, #56]	; 0x38
10007dc0:	63e3      	str	r3, [r4, #60]	; 0x3c
10007dc2:	6423      	str	r3, [r4, #64]	; 0x40
10007dc4:	6463      	str	r3, [r4, #68]	; 0x44
10007dc6:	64a3      	str	r3, [r4, #72]	; 0x48
10007dc8:	64e3      	str	r3, [r4, #76]	; 0x4c
10007dca:	6523      	str	r3, [r4, #80]	; 0x50
10007dcc:	6563      	str	r3, [r4, #84]	; 0x54
10007dce:	65a3      	str	r3, [r4, #88]	; 0x58
10007dd0:	65e3      	str	r3, [r4, #92]	; 0x5c
10007dd2:	6623      	str	r3, [r4, #96]	; 0x60
10007dd4:	6663      	str	r3, [r4, #100]	; 0x64
10007dd6:	66a3      	str	r3, [r4, #104]	; 0x68
10007dd8:	66e3      	str	r3, [r4, #108]	; 0x6c
10007dda:	6723      	str	r3, [r4, #112]	; 0x70
10007ddc:	6763      	str	r3, [r4, #116]	; 0x74
10007dde:	67a3      	str	r3, [r4, #120]	; 0x78
10007de0:	67e3      	str	r3, [r4, #124]	; 0x7c
10007de2:	4b08      	ldr	r3, [pc, #32]	; (10007e04 <__aeabi_double_init+0x94>)
10007de4:	64a3      	str	r3, [r4, #72]	; 0x48
10007de6:	e7d4      	b.n	10007d92 <__aeabi_double_init+0x22>
10007de8:	4c02      	ldr	r4, [pc, #8]	; (10007df4 <__aeabi_double_init+0x84>)
10007dea:	4b06      	ldr	r3, [pc, #24]	; (10007e04 <__aeabi_double_init+0x94>)
10007dec:	64a3      	str	r3, [r4, #72]	; 0x48
10007dee:	e7d0      	b.n	10007d92 <__aeabi_double_init+0x22>
10007df0:	00004453 	.word	0x00004453
10007df4:	200012e8 	.word	0x200012e8
10007df8:	0000334c 	.word	0x0000334c
10007dfc:	20002b40 	.word	0x20002b40
10007e00:	10007d65 	.word	0x10007d65
10007e04:	10007e09 	.word	0x10007e09

10007e08 <double_table_shim_on_use_helper>:
10007e08:	b507      	push	{r0, r1, r2, lr}
10007e0a:	4660      	mov	r0, ip
10007e0c:	8801      	ldrh	r1, [r0, #0]
10007e0e:	0a0a      	lsrs	r2, r1, #8
10007e10:	3002      	adds	r0, #2
10007e12:	2adf      	cmp	r2, #223	; 0xdf
10007e14:	d1fa      	bne.n	10007e0c <double_table_shim_on_use_helper+0x4>
10007e16:	b2c9      	uxtb	r1, r1
10007e18:	0882      	lsrs	r2, r0, #2
10007e1a:	d304      	bcc.n	10007e26 <double_table_shim_on_use_helper+0x1e>
10007e1c:	8802      	ldrh	r2, [r0, #0]
10007e1e:	8840      	ldrh	r0, [r0, #2]
10007e20:	0400      	lsls	r0, r0, #16
10007e22:	4310      	orrs	r0, r2
10007e24:	e000      	b.n	10007e28 <double_table_shim_on_use_helper+0x20>
10007e26:	6800      	ldr	r0, [r0, #0]
10007e28:	4a01      	ldr	r2, [pc, #4]	; (10007e30 <double_table_shim_on_use_helper+0x28>)
10007e2a:	5050      	str	r0, [r2, r1]
10007e2c:	9003      	str	r0, [sp, #12]
10007e2e:	bd07      	pop	{r0, r1, r2, pc}
10007e30:	200012e8 	.word	0x200012e8

10007e34 <__wrap___aeabi_lmul>:
10007e34:	4351      	muls	r1, r2
10007e36:	4343      	muls	r3, r0
10007e38:	18c9      	adds	r1, r1, r3
10007e3a:	468c      	mov	ip, r1
10007e3c:	0c11      	lsrs	r1, r2, #16
10007e3e:	b283      	uxth	r3, r0
10007e40:	434b      	muls	r3, r1
10007e42:	b410      	push	{r4}
10007e44:	0c04      	lsrs	r4, r0, #16
10007e46:	4361      	muls	r1, r4
10007e48:	b292      	uxth	r2, r2
10007e4a:	b280      	uxth	r0, r0
10007e4c:	4350      	muls	r0, r2
10007e4e:	4362      	muls	r2, r4
10007e50:	041c      	lsls	r4, r3, #16
10007e52:	0c1b      	lsrs	r3, r3, #16
10007e54:	1900      	adds	r0, r0, r4
10007e56:	bc10      	pop	{r4}
10007e58:	4159      	adcs	r1, r3
10007e5a:	0413      	lsls	r3, r2, #16
10007e5c:	0c12      	lsrs	r2, r2, #16
10007e5e:	18c0      	adds	r0, r0, r3
10007e60:	4151      	adcs	r1, r2
10007e62:	4461      	add	r1, ip
10007e64:	4770      	bx	lr
	...

10007e68 <missing_float_func_shim>:
10007e68:	b510      	push	{r4, lr}
10007e6a:	4801      	ldr	r0, [pc, #4]	; (10007e70 <missing_float_func_shim+0x8>)
10007e6c:	f7fe f934 	bl	100060d8 <panic>
10007e70:	1000a9c4 	.word	0x1000a9c4

10007e74 <__aeabi_float_init>:
10007e74:	2313      	movs	r3, #19
10007e76:	b510      	push	{r4, lr}
10007e78:	4810      	ldr	r0, [pc, #64]	; (10007ebc <__aeabi_float_init+0x48>)
10007e7a:	781c      	ldrb	r4, [r3, #0]
10007e7c:	f7f8 fd8a 	bl	10000994 <rom_data_lookup>
10007e80:	0001      	movs	r1, r0
10007e82:	2c01      	cmp	r4, #1
10007e84:	d00a      	beq.n	10007e9c <__aeabi_float_init+0x28>
10007e86:	dd03      	ble.n	10007e90 <__aeabi_float_init+0x1c>
10007e88:	2280      	movs	r2, #128	; 0x80
10007e8a:	480d      	ldr	r0, [pc, #52]	; (10007ec0 <__aeabi_float_init+0x4c>)
10007e8c:	f000 f82e 	bl	10007eec <__wrap___aeabi_memcpy>
10007e90:	480c      	ldr	r0, [pc, #48]	; (10007ec4 <__aeabi_float_init+0x50>)
10007e92:	f7f8 fd77 	bl	10000984 <rom_func_lookup>
10007e96:	4b0c      	ldr	r3, [pc, #48]	; (10007ec8 <__aeabi_float_init+0x54>)
10007e98:	6018      	str	r0, [r3, #0]
10007e9a:	bd10      	pop	{r4, pc}
10007e9c:	4c08      	ldr	r4, [pc, #32]	; (10007ec0 <__aeabi_float_init+0x4c>)
10007e9e:	2254      	movs	r2, #84	; 0x54
10007ea0:	0020      	movs	r0, r4
10007ea2:	f000 f823 	bl	10007eec <__wrap___aeabi_memcpy>
10007ea6:	0023      	movs	r3, r4
10007ea8:	4a08      	ldr	r2, [pc, #32]	; (10007ecc <__aeabi_float_init+0x58>)
10007eaa:	3380      	adds	r3, #128	; 0x80
10007eac:	6821      	ldr	r1, [r4, #0]
10007eae:	2900      	cmp	r1, #0
10007eb0:	d100      	bne.n	10007eb4 <__aeabi_float_init+0x40>
10007eb2:	6022      	str	r2, [r4, #0]
10007eb4:	3404      	adds	r4, #4
10007eb6:	42a3      	cmp	r3, r4
10007eb8:	d1f8      	bne.n	10007eac <__aeabi_float_init+0x38>
10007eba:	e7e9      	b.n	10007e90 <__aeabi_float_init+0x1c>
10007ebc:	00004653 	.word	0x00004653
10007ec0:	20002b44 	.word	0x20002b44
10007ec4:	0000334c 	.word	0x0000334c
10007ec8:	20002b40 	.word	0x20002b40
10007ecc:	10007e69 	.word	0x10007e69

10007ed0 <__aeabi_mem_init>:
10007ed0:	4801      	ldr	r0, [pc, #4]	; (10007ed8 <__aeabi_mem_init+0x8>)
10007ed2:	2104      	movs	r1, #4
10007ed4:	4b01      	ldr	r3, [pc, #4]	; (10007edc <__aeabi_mem_init+0xc>)
10007ed6:	4718      	bx	r3
10007ed8:	20001110 	.word	0x20001110
10007edc:	100009a5 	.word	0x100009a5

10007ee0 <__wrap_memset>:
10007ee0:	4b01      	ldr	r3, [pc, #4]	; (10007ee8 <__wrap_memset+0x8>)
10007ee2:	681b      	ldr	r3, [r3, #0]
10007ee4:	4718      	bx	r3
10007ee6:	0000      	.short	0x0000
10007ee8:	20001110 	.word	0x20001110

10007eec <__wrap___aeabi_memcpy>:
10007eec:	4b01      	ldr	r3, [pc, #4]	; (10007ef4 <__wrap___aeabi_memcpy+0x8>)
10007eee:	685b      	ldr	r3, [r3, #4]
10007ef0:	4718      	bx	r3
10007ef2:	0000      	.short	0x0000
10007ef4:	20001110 	.word	0x20001110

10007ef8 <stdio_out_chars_no_crlf>:
10007ef8:	0003      	movs	r3, r0
10007efa:	b510      	push	{r4, lr}
10007efc:	0008      	movs	r0, r1
10007efe:	0011      	movs	r1, r2
10007f00:	681b      	ldr	r3, [r3, #0]
10007f02:	4798      	blx	r3
10007f04:	bd10      	pop	{r4, pc}
10007f06:	46c0      	nop			; (mov r8, r8)

10007f08 <stdio_out_chars_crlf>:
10007f08:	b5f0      	push	{r4, r5, r6, r7, lr}
10007f0a:	4646      	mov	r6, r8
10007f0c:	464f      	mov	r7, r9
10007f0e:	46d6      	mov	lr, sl
10007f10:	b5c0      	push	{r6, r7, lr}
10007f12:	7d43      	ldrb	r3, [r0, #21]
10007f14:	4680      	mov	r8, r0
10007f16:	000e      	movs	r6, r1
10007f18:	0017      	movs	r7, r2
10007f1a:	2b00      	cmp	r3, #0
10007f1c:	d046      	beq.n	10007fac <stdio_out_chars_crlf+0xa4>
10007f1e:	2a00      	cmp	r2, #0
10007f20:	dd3f      	ble.n	10007fa2 <stdio_out_chars_crlf+0x9a>
10007f22:	1e4b      	subs	r3, r1, #1
10007f24:	4699      	mov	r9, r3
10007f26:	4b24      	ldr	r3, [pc, #144]	; (10007fb8 <stdio_out_chars_crlf+0xb0>)
10007f28:	2501      	movs	r5, #1
10007f2a:	2400      	movs	r4, #0
10007f2c:	2000      	movs	r0, #0
10007f2e:	469a      	mov	sl, r3
10007f30:	e00d      	b.n	10007f4e <stdio_out_chars_crlf+0x46>
10007f32:	464b      	mov	r3, r9
10007f34:	5d1b      	ldrb	r3, [r3, r4]
10007f36:	3b0d      	subs	r3, #13
10007f38:	425a      	negs	r2, r3
10007f3a:	4153      	adcs	r3, r2
10007f3c:	5d32      	ldrb	r2, [r6, r4]
10007f3e:	b2db      	uxtb	r3, r3
10007f40:	2a0a      	cmp	r2, #10
10007f42:	d00b      	beq.n	10007f5c <stdio_out_chars_crlf+0x54>
10007f44:	002b      	movs	r3, r5
10007f46:	3401      	adds	r4, #1
10007f48:	3501      	adds	r5, #1
10007f4a:	429f      	cmp	r7, r3
10007f4c:	dd1a      	ble.n	10007f84 <stdio_out_chars_crlf+0x7c>
10007f4e:	2c00      	cmp	r4, #0
10007f50:	d1ef      	bne.n	10007f32 <stdio_out_chars_crlf+0x2a>
10007f52:	4643      	mov	r3, r8
10007f54:	5d32      	ldrb	r2, [r6, r4]
10007f56:	7d1b      	ldrb	r3, [r3, #20]
10007f58:	2a0a      	cmp	r2, #10
10007f5a:	d1f3      	bne.n	10007f44 <stdio_out_chars_crlf+0x3c>
10007f5c:	2b00      	cmp	r3, #0
10007f5e:	d1f1      	bne.n	10007f44 <stdio_out_chars_crlf+0x3c>
10007f60:	42a0      	cmp	r0, r4
10007f62:	da04      	bge.n	10007f6e <stdio_out_chars_crlf+0x66>
10007f64:	4643      	mov	r3, r8
10007f66:	1a21      	subs	r1, r4, r0
10007f68:	681b      	ldr	r3, [r3, #0]
10007f6a:	1830      	adds	r0, r6, r0
10007f6c:	4798      	blx	r3
10007f6e:	4643      	mov	r3, r8
10007f70:	4650      	mov	r0, sl
10007f72:	681b      	ldr	r3, [r3, #0]
10007f74:	2102      	movs	r1, #2
10007f76:	4798      	blx	r3
10007f78:	3401      	adds	r4, #1
10007f7a:	0028      	movs	r0, r5
10007f7c:	002b      	movs	r3, r5
10007f7e:	3501      	adds	r5, #1
10007f80:	429f      	cmp	r7, r3
10007f82:	dce4      	bgt.n	10007f4e <stdio_out_chars_crlf+0x46>
10007f84:	4287      	cmp	r7, r0
10007f86:	dd04      	ble.n	10007f92 <stdio_out_chars_crlf+0x8a>
10007f88:	4643      	mov	r3, r8
10007f8a:	1a39      	subs	r1, r7, r0
10007f8c:	681b      	ldr	r3, [r3, #0]
10007f8e:	1830      	adds	r0, r6, r0
10007f90:	4798      	blx	r3
10007f92:	19f6      	adds	r6, r6, r7
10007f94:	3e01      	subs	r6, #1
10007f96:	7833      	ldrb	r3, [r6, #0]
10007f98:	3b0d      	subs	r3, #13
10007f9a:	425a      	negs	r2, r3
10007f9c:	4153      	adcs	r3, r2
10007f9e:	4642      	mov	r2, r8
10007fa0:	7513      	strb	r3, [r2, #20]
10007fa2:	bce0      	pop	{r5, r6, r7}
10007fa4:	46ba      	mov	sl, r7
10007fa6:	46b1      	mov	r9, r6
10007fa8:	46a8      	mov	r8, r5
10007faa:	bdf0      	pop	{r4, r5, r6, r7, pc}
10007fac:	6803      	ldr	r3, [r0, #0]
10007fae:	0011      	movs	r1, r2
10007fb0:	0030      	movs	r0, r6
10007fb2:	4798      	blx	r3
10007fb4:	e7f5      	b.n	10007fa2 <stdio_out_chars_crlf+0x9a>
10007fb6:	46c0      	nop			; (mov r8, r8)
10007fb8:	1004247c 	.word	0x1004247c

10007fbc <stdio_buffered_printer>:
10007fbc:	b5f0      	push	{r4, r5, r6, r7, lr}
10007fbe:	46c6      	mov	lr, r8
10007fc0:	000c      	movs	r4, r1
10007fc2:	6809      	ldr	r1, [r1, #0]
10007fc4:	0006      	movs	r6, r0
10007fc6:	b500      	push	{lr}
10007fc8:	2980      	cmp	r1, #128	; 0x80
10007fca:	d006      	beq.n	10007fda <stdio_buffered_printer+0x1e>
10007fcc:	1c4b      	adds	r3, r1, #1
10007fce:	6023      	str	r3, [r4, #0]
10007fd0:	1864      	adds	r4, r4, r1
10007fd2:	7126      	strb	r6, [r4, #4]
10007fd4:	bc80      	pop	{r7}
10007fd6:	46b8      	mov	r8, r7
10007fd8:	bdf0      	pop	{r4, r5, r6, r7, pc}
10007fda:	4b0f      	ldr	r3, [pc, #60]	; (10008018 <stdio_buffered_printer+0x5c>)
10007fdc:	681d      	ldr	r5, [r3, #0]
10007fde:	2d00      	cmp	r5, #0
10007fe0:	d016      	beq.n	10008010 <stdio_buffered_printer+0x54>
10007fe2:	1d23      	adds	r3, r4, #4
10007fe4:	4698      	mov	r8, r3
10007fe6:	4f0d      	ldr	r7, [pc, #52]	; (1000801c <stdio_buffered_printer+0x60>)
10007fe8:	e002      	b.n	10007ff0 <stdio_buffered_printer+0x34>
10007fea:	692d      	ldr	r5, [r5, #16]
10007fec:	2d00      	cmp	r5, #0
10007fee:	d00f      	beq.n	10008010 <stdio_buffered_printer+0x54>
10007ff0:	682b      	ldr	r3, [r5, #0]
10007ff2:	2b00      	cmp	r3, #0
10007ff4:	d0f9      	beq.n	10007fea <stdio_buffered_printer+0x2e>
10007ff6:	683b      	ldr	r3, [r7, #0]
10007ff8:	2b00      	cmp	r3, #0
10007ffa:	d001      	beq.n	10008000 <stdio_buffered_printer+0x44>
10007ffc:	42ab      	cmp	r3, r5
10007ffe:	d1f4      	bne.n	10007fea <stdio_buffered_printer+0x2e>
10008000:	0028      	movs	r0, r5
10008002:	4641      	mov	r1, r8
10008004:	6822      	ldr	r2, [r4, #0]
10008006:	f7ff ff7f 	bl	10007f08 <stdio_out_chars_crlf>
1000800a:	692d      	ldr	r5, [r5, #16]
1000800c:	2d00      	cmp	r5, #0
1000800e:	d1ef      	bne.n	10007ff0 <stdio_buffered_printer+0x34>
10008010:	2301      	movs	r3, #1
10008012:	2100      	movs	r1, #0
10008014:	e7db      	b.n	10007fce <stdio_buffered_printer+0x12>
10008016:	46c0      	nop			; (mov r8, r8)
10008018:	20002700 	.word	0x20002700
1000801c:	20002708 	.word	0x20002708

10008020 <stdio_put_string.isra.0>:
10008020:	b5f0      	push	{r4, r5, r6, r7, lr}
10008022:	46de      	mov	lr, fp
10008024:	4657      	mov	r7, sl
10008026:	464e      	mov	r6, r9
10008028:	4645      	mov	r5, r8
1000802a:	b5e0      	push	{r5, r6, r7, lr}
1000802c:	b085      	sub	sp, #20
1000802e:	0017      	movs	r7, r2
10008030:	001c      	movs	r4, r3
10008032:	0006      	movs	r6, r0
10008034:	000d      	movs	r5, r1
10008036:	f7fc fe51 	bl	10004cdc <time_us_64>
1000803a:	2300      	movs	r3, #0
1000803c:	4a30      	ldr	r2, [pc, #192]	; (10008100 <stdio_put_string.isra.0+0xe0>)
1000803e:	1812      	adds	r2, r2, r0
10008040:	414b      	adcs	r3, r1
10008042:	2b00      	cmp	r3, #0
10008044:	db58      	blt.n	100080f8 <stdio_put_string.isra.0+0xd8>
10008046:	492f      	ldr	r1, [pc, #188]	; (10008104 <stdio_put_string.isra.0+0xe4>)
10008048:	0008      	movs	r0, r1
1000804a:	468a      	mov	sl, r1
1000804c:	f002 fbc4 	bl	1000a7d8 <__mutex_try_enter_block_until_veneer>
10008050:	9001      	str	r0, [sp, #4]
10008052:	1c6b      	adds	r3, r5, #1
10008054:	d103      	bne.n	1000805e <stdio_put_string.isra.0+0x3e>
10008056:	0030      	movs	r0, r6
10008058:	f002 fb04 	bl	1000a664 <strlen>
1000805c:	0005      	movs	r5, r0
1000805e:	2c00      	cmp	r4, #0
10008060:	d125      	bne.n	100080ae <stdio_put_string.isra.0+0x8e>
10008062:	4b29      	ldr	r3, [pc, #164]	; (10008108 <stdio_put_string.isra.0+0xe8>)
10008064:	4698      	mov	r8, r3
10008066:	4b29      	ldr	r3, [pc, #164]	; (1000810c <stdio_put_string.isra.0+0xec>)
10008068:	681c      	ldr	r4, [r3, #0]
1000806a:	2c00      	cmp	r4, #0
1000806c:	d015      	beq.n	1000809a <stdio_put_string.isra.0+0x7a>
1000806e:	2f00      	cmp	r7, #0
10008070:	d120      	bne.n	100080b4 <stdio_put_string.isra.0+0x94>
10008072:	4f27      	ldr	r7, [pc, #156]	; (10008110 <stdio_put_string.isra.0+0xf0>)
10008074:	e002      	b.n	1000807c <stdio_put_string.isra.0+0x5c>
10008076:	6924      	ldr	r4, [r4, #16]
10008078:	2c00      	cmp	r4, #0
1000807a:	d00e      	beq.n	1000809a <stdio_put_string.isra.0+0x7a>
1000807c:	6823      	ldr	r3, [r4, #0]
1000807e:	2b00      	cmp	r3, #0
10008080:	d0f9      	beq.n	10008076 <stdio_put_string.isra.0+0x56>
10008082:	683b      	ldr	r3, [r7, #0]
10008084:	2b00      	cmp	r3, #0
10008086:	d001      	beq.n	1000808c <stdio_put_string.isra.0+0x6c>
10008088:	42a3      	cmp	r3, r4
1000808a:	d1f4      	bne.n	10008076 <stdio_put_string.isra.0+0x56>
1000808c:	0020      	movs	r0, r4
1000808e:	002a      	movs	r2, r5
10008090:	0031      	movs	r1, r6
10008092:	47c0      	blx	r8
10008094:	6924      	ldr	r4, [r4, #16]
10008096:	2c00      	cmp	r4, #0
10008098:	d1f0      	bne.n	1000807c <stdio_put_string.isra.0+0x5c>
1000809a:	9b01      	ldr	r3, [sp, #4]
1000809c:	2b00      	cmp	r3, #0
1000809e:	d127      	bne.n	100080f0 <stdio_put_string.isra.0+0xd0>
100080a0:	b005      	add	sp, #20
100080a2:	bcf0      	pop	{r4, r5, r6, r7}
100080a4:	46bb      	mov	fp, r7
100080a6:	46b2      	mov	sl, r6
100080a8:	46a9      	mov	r9, r5
100080aa:	46a0      	mov	r8, r4
100080ac:	bdf0      	pop	{r4, r5, r6, r7, pc}
100080ae:	4b19      	ldr	r3, [pc, #100]	; (10008114 <stdio_put_string.isra.0+0xf4>)
100080b0:	4698      	mov	r8, r3
100080b2:	e7d8      	b.n	10008066 <stdio_put_string.isra.0+0x46>
100080b4:	4b16      	ldr	r3, [pc, #88]	; (10008110 <stdio_put_string.isra.0+0xf0>)
100080b6:	4699      	mov	r9, r3
100080b8:	ab02      	add	r3, sp, #8
100080ba:	1ddf      	adds	r7, r3, #7
100080bc:	230a      	movs	r3, #10
100080be:	469b      	mov	fp, r3
100080c0:	e002      	b.n	100080c8 <stdio_put_string.isra.0+0xa8>
100080c2:	6924      	ldr	r4, [r4, #16]
100080c4:	2c00      	cmp	r4, #0
100080c6:	d0e8      	beq.n	1000809a <stdio_put_string.isra.0+0x7a>
100080c8:	6823      	ldr	r3, [r4, #0]
100080ca:	2b00      	cmp	r3, #0
100080cc:	d0f9      	beq.n	100080c2 <stdio_put_string.isra.0+0xa2>
100080ce:	464b      	mov	r3, r9
100080d0:	681b      	ldr	r3, [r3, #0]
100080d2:	2b00      	cmp	r3, #0
100080d4:	d001      	beq.n	100080da <stdio_put_string.isra.0+0xba>
100080d6:	42a3      	cmp	r3, r4
100080d8:	d1f3      	bne.n	100080c2 <stdio_put_string.isra.0+0xa2>
100080da:	002a      	movs	r2, r5
100080dc:	0031      	movs	r1, r6
100080de:	0020      	movs	r0, r4
100080e0:	47c0      	blx	r8
100080e2:	465b      	mov	r3, fp
100080e4:	2201      	movs	r2, #1
100080e6:	0039      	movs	r1, r7
100080e8:	0020      	movs	r0, r4
100080ea:	703b      	strb	r3, [r7, #0]
100080ec:	47c0      	blx	r8
100080ee:	e7e8      	b.n	100080c2 <stdio_put_string.isra.0+0xa2>
100080f0:	4650      	mov	r0, sl
100080f2:	f002 fb31 	bl	1000a758 <__mutex_exit_veneer>
100080f6:	e7d3      	b.n	100080a0 <stdio_put_string.isra.0+0x80>
100080f8:	2201      	movs	r2, #1
100080fa:	4b07      	ldr	r3, [pc, #28]	; (10008118 <stdio_put_string.isra.0+0xf8>)
100080fc:	4252      	negs	r2, r2
100080fe:	e7a2      	b.n	10008046 <stdio_put_string.isra.0+0x26>
10008100:	000f4240 	.word	0x000f4240
10008104:	20001178 	.word	0x20001178
10008108:	10007f09 	.word	0x10007f09
1000810c:	20002700 	.word	0x20002700
10008110:	20002708 	.word	0x20002708
10008114:	10007ef9 	.word	0x10007ef9
10008118:	7fffffff 	.word	0x7fffffff

1000811c <__wrap_putchar>:
1000811c:	b5f0      	push	{r4, r5, r6, r7, lr}
1000811e:	46ce      	mov	lr, r9
10008120:	4647      	mov	r7, r8
10008122:	b580      	push	{r7, lr}
10008124:	b083      	sub	sp, #12
10008126:	466b      	mov	r3, sp
10008128:	0006      	movs	r6, r0
1000812a:	1ddd      	adds	r5, r3, #7
1000812c:	7028      	strb	r0, [r5, #0]
1000812e:	f7fc fdd5 	bl	10004cdc <time_us_64>
10008132:	2300      	movs	r3, #0
10008134:	4a1a      	ldr	r2, [pc, #104]	; (100081a0 <__wrap_putchar+0x84>)
10008136:	1812      	adds	r2, r2, r0
10008138:	414b      	adcs	r3, r1
1000813a:	2b00      	cmp	r3, #0
1000813c:	db2b      	blt.n	10008196 <__wrap_putchar+0x7a>
1000813e:	4919      	ldr	r1, [pc, #100]	; (100081a4 <__wrap_putchar+0x88>)
10008140:	0008      	movs	r0, r1
10008142:	4688      	mov	r8, r1
10008144:	f002 fb48 	bl	1000a7d8 <__mutex_try_enter_block_until_veneer>
10008148:	4b17      	ldr	r3, [pc, #92]	; (100081a8 <__wrap_putchar+0x8c>)
1000814a:	4681      	mov	r9, r0
1000814c:	681c      	ldr	r4, [r3, #0]
1000814e:	2c00      	cmp	r4, #0
10008150:	d014      	beq.n	1000817c <__wrap_putchar+0x60>
10008152:	4f16      	ldr	r7, [pc, #88]	; (100081ac <__wrap_putchar+0x90>)
10008154:	e002      	b.n	1000815c <__wrap_putchar+0x40>
10008156:	6924      	ldr	r4, [r4, #16]
10008158:	2c00      	cmp	r4, #0
1000815a:	d00f      	beq.n	1000817c <__wrap_putchar+0x60>
1000815c:	6823      	ldr	r3, [r4, #0]
1000815e:	2b00      	cmp	r3, #0
10008160:	d0f9      	beq.n	10008156 <__wrap_putchar+0x3a>
10008162:	683b      	ldr	r3, [r7, #0]
10008164:	2b00      	cmp	r3, #0
10008166:	d001      	beq.n	1000816c <__wrap_putchar+0x50>
10008168:	42a3      	cmp	r3, r4
1000816a:	d1f4      	bne.n	10008156 <__wrap_putchar+0x3a>
1000816c:	0020      	movs	r0, r4
1000816e:	2201      	movs	r2, #1
10008170:	0029      	movs	r1, r5
10008172:	f7ff fec9 	bl	10007f08 <stdio_out_chars_crlf>
10008176:	6924      	ldr	r4, [r4, #16]
10008178:	2c00      	cmp	r4, #0
1000817a:	d1ef      	bne.n	1000815c <__wrap_putchar+0x40>
1000817c:	464b      	mov	r3, r9
1000817e:	2b00      	cmp	r3, #0
10008180:	d105      	bne.n	1000818e <__wrap_putchar+0x72>
10008182:	0030      	movs	r0, r6
10008184:	b003      	add	sp, #12
10008186:	bcc0      	pop	{r6, r7}
10008188:	46b9      	mov	r9, r7
1000818a:	46b0      	mov	r8, r6
1000818c:	bdf0      	pop	{r4, r5, r6, r7, pc}
1000818e:	4640      	mov	r0, r8
10008190:	f002 fae2 	bl	1000a758 <__mutex_exit_veneer>
10008194:	e7f5      	b.n	10008182 <__wrap_putchar+0x66>
10008196:	2201      	movs	r2, #1
10008198:	4b05      	ldr	r3, [pc, #20]	; (100081b0 <__wrap_putchar+0x94>)
1000819a:	4252      	negs	r2, r2
1000819c:	e7cf      	b.n	1000813e <__wrap_putchar+0x22>
1000819e:	46c0      	nop			; (mov r8, r8)
100081a0:	000f4240 	.word	0x000f4240
100081a4:	20001178 	.word	0x20001178
100081a8:	20002700 	.word	0x20002700
100081ac:	20002708 	.word	0x20002708
100081b0:	7fffffff 	.word	0x7fffffff

100081b4 <__wrap_puts>:
100081b4:	b570      	push	{r4, r5, r6, lr}
100081b6:	0004      	movs	r4, r0
100081b8:	f002 fa54 	bl	1000a664 <strlen>
100081bc:	2300      	movs	r3, #0
100081be:	0001      	movs	r1, r0
100081c0:	0005      	movs	r5, r0
100081c2:	2201      	movs	r2, #1
100081c4:	0020      	movs	r0, r4
100081c6:	f7ff ff2b 	bl	10008020 <stdio_put_string.isra.0>
100081ca:	4b08      	ldr	r3, [pc, #32]	; (100081ec <__wrap_puts+0x38>)
100081cc:	681c      	ldr	r4, [r3, #0]
100081ce:	2c00      	cmp	r4, #0
100081d0:	d006      	beq.n	100081e0 <__wrap_puts+0x2c>
100081d2:	6863      	ldr	r3, [r4, #4]
100081d4:	2b00      	cmp	r3, #0
100081d6:	d005      	beq.n	100081e4 <__wrap_puts+0x30>
100081d8:	4798      	blx	r3
100081da:	6924      	ldr	r4, [r4, #16]
100081dc:	2c00      	cmp	r4, #0
100081de:	d1f8      	bne.n	100081d2 <__wrap_puts+0x1e>
100081e0:	0028      	movs	r0, r5
100081e2:	bd70      	pop	{r4, r5, r6, pc}
100081e4:	6924      	ldr	r4, [r4, #16]
100081e6:	2c00      	cmp	r4, #0
100081e8:	d1f3      	bne.n	100081d2 <__wrap_puts+0x1e>
100081ea:	e7f9      	b.n	100081e0 <__wrap_puts+0x2c>
100081ec:	20002700 	.word	0x20002700

100081f0 <stdio_set_driver_enabled>:
100081f0:	4a0a      	ldr	r2, [pc, #40]	; (1000821c <stdio_set_driver_enabled+0x2c>)
100081f2:	6813      	ldr	r3, [r2, #0]
100081f4:	2b00      	cmp	r3, #0
100081f6:	d105      	bne.n	10008204 <stdio_set_driver_enabled+0x14>
100081f8:	e00c      	b.n	10008214 <stdio_set_driver_enabled+0x24>
100081fa:	001a      	movs	r2, r3
100081fc:	691b      	ldr	r3, [r3, #16]
100081fe:	3210      	adds	r2, #16
10008200:	2b00      	cmp	r3, #0
10008202:	d007      	beq.n	10008214 <stdio_set_driver_enabled+0x24>
10008204:	4298      	cmp	r0, r3
10008206:	d1f8      	bne.n	100081fa <stdio_set_driver_enabled+0xa>
10008208:	2900      	cmp	r1, #0
1000820a:	d102      	bne.n	10008212 <stdio_set_driver_enabled+0x22>
1000820c:	6903      	ldr	r3, [r0, #16]
1000820e:	6013      	str	r3, [r2, #0]
10008210:	6101      	str	r1, [r0, #16]
10008212:	4770      	bx	lr
10008214:	2900      	cmp	r1, #0
10008216:	d0fc      	beq.n	10008212 <stdio_set_driver_enabled+0x22>
10008218:	6010      	str	r0, [r2, #0]
1000821a:	e7fa      	b.n	10008212 <stdio_set_driver_enabled+0x22>
1000821c:	20002700 	.word	0x20002700

10008220 <__wrap_vprintf>:
10008220:	b5f0      	push	{r4, r5, r6, r7, lr}
10008222:	46ce      	mov	lr, r9
10008224:	4647      	mov	r7, r8
10008226:	b580      	push	{r7, lr}
10008228:	b0a5      	sub	sp, #148	; 0x94
1000822a:	0004      	movs	r4, r0
1000822c:	000d      	movs	r5, r1
1000822e:	f7fc fd55 	bl	10004cdc <time_us_64>
10008232:	2300      	movs	r3, #0
10008234:	4a2a      	ldr	r2, [pc, #168]	; (100082e0 <__wrap_vprintf+0xc0>)
10008236:	1812      	adds	r2, r2, r0
10008238:	414b      	adcs	r3, r1
1000823a:	2b00      	cmp	r3, #0
1000823c:	db49      	blt.n	100082d2 <__wrap_vprintf+0xb2>
1000823e:	4e29      	ldr	r6, [pc, #164]	; (100082e4 <__wrap_vprintf+0xc4>)
10008240:	0030      	movs	r0, r6
10008242:	f002 fac9 	bl	1000a7d8 <__mutex_try_enter_block_until_veneer>
10008246:	2300      	movs	r3, #0
10008248:	0007      	movs	r7, r0
1000824a:	9303      	str	r3, [sp, #12]
1000824c:	0022      	movs	r2, r4
1000824e:	002b      	movs	r3, r5
10008250:	4825      	ldr	r0, [pc, #148]	; (100082e8 <__wrap_vprintf+0xc8>)
10008252:	a903      	add	r1, sp, #12
10008254:	f7ff fa18 	bl	10007688 <vfctprintf>
10008258:	9b03      	ldr	r3, [sp, #12]
1000825a:	4680      	mov	r8, r0
1000825c:	2b00      	cmp	r3, #0
1000825e:	d114      	bne.n	1000828a <__wrap_vprintf+0x6a>
10008260:	4b22      	ldr	r3, [pc, #136]	; (100082ec <__wrap_vprintf+0xcc>)
10008262:	681c      	ldr	r4, [r3, #0]
10008264:	2c00      	cmp	r4, #0
10008266:	d006      	beq.n	10008276 <__wrap_vprintf+0x56>
10008268:	6863      	ldr	r3, [r4, #4]
1000826a:	2b00      	cmp	r3, #0
1000826c:	d00b      	beq.n	10008286 <__wrap_vprintf+0x66>
1000826e:	4798      	blx	r3
10008270:	6924      	ldr	r4, [r4, #16]
10008272:	2c00      	cmp	r4, #0
10008274:	d1f8      	bne.n	10008268 <__wrap_vprintf+0x48>
10008276:	2f00      	cmp	r7, #0
10008278:	d127      	bne.n	100082ca <__wrap_vprintf+0xaa>
1000827a:	4640      	mov	r0, r8
1000827c:	b025      	add	sp, #148	; 0x94
1000827e:	bcc0      	pop	{r6, r7}
10008280:	46b9      	mov	r9, r7
10008282:	46b0      	mov	r8, r6
10008284:	bdf0      	pop	{r4, r5, r6, r7, pc}
10008286:	6924      	ldr	r4, [r4, #16]
10008288:	e7ec      	b.n	10008264 <__wrap_vprintf+0x44>
1000828a:	4b18      	ldr	r3, [pc, #96]	; (100082ec <__wrap_vprintf+0xcc>)
1000828c:	681d      	ldr	r5, [r3, #0]
1000828e:	4699      	mov	r9, r3
10008290:	2d00      	cmp	r5, #0
10008292:	d022      	beq.n	100082da <__wrap_vprintf+0xba>
10008294:	4c16      	ldr	r4, [pc, #88]	; (100082f0 <__wrap_vprintf+0xd0>)
10008296:	e002      	b.n	1000829e <__wrap_vprintf+0x7e>
10008298:	692d      	ldr	r5, [r5, #16]
1000829a:	2d00      	cmp	r5, #0
1000829c:	d011      	beq.n	100082c2 <__wrap_vprintf+0xa2>
1000829e:	682b      	ldr	r3, [r5, #0]
100082a0:	2b00      	cmp	r3, #0
100082a2:	d0f9      	beq.n	10008298 <__wrap_vprintf+0x78>
100082a4:	6823      	ldr	r3, [r4, #0]
100082a6:	2b00      	cmp	r3, #0
100082a8:	d001      	beq.n	100082ae <__wrap_vprintf+0x8e>
100082aa:	429d      	cmp	r5, r3
100082ac:	d1f4      	bne.n	10008298 <__wrap_vprintf+0x78>
100082ae:	9b03      	ldr	r3, [sp, #12]
100082b0:	0028      	movs	r0, r5
100082b2:	001a      	movs	r2, r3
100082b4:	a904      	add	r1, sp, #16
100082b6:	9301      	str	r3, [sp, #4]
100082b8:	f7ff fe26 	bl	10007f08 <stdio_out_chars_crlf>
100082bc:	692d      	ldr	r5, [r5, #16]
100082be:	2d00      	cmp	r5, #0
100082c0:	d1ed      	bne.n	1000829e <__wrap_vprintf+0x7e>
100082c2:	464b      	mov	r3, r9
100082c4:	9503      	str	r5, [sp, #12]
100082c6:	681c      	ldr	r4, [r3, #0]
100082c8:	e7cc      	b.n	10008264 <__wrap_vprintf+0x44>
100082ca:	0030      	movs	r0, r6
100082cc:	f002 fa44 	bl	1000a758 <__mutex_exit_veneer>
100082d0:	e7d3      	b.n	1000827a <__wrap_vprintf+0x5a>
100082d2:	2201      	movs	r2, #1
100082d4:	4b07      	ldr	r3, [pc, #28]	; (100082f4 <__wrap_vprintf+0xd4>)
100082d6:	4252      	negs	r2, r2
100082d8:	e7b1      	b.n	1000823e <__wrap_vprintf+0x1e>
100082da:	9503      	str	r5, [sp, #12]
100082dc:	e7cb      	b.n	10008276 <__wrap_vprintf+0x56>
100082de:	46c0      	nop			; (mov r8, r8)
100082e0:	000f4240 	.word	0x000f4240
100082e4:	20001178 	.word	0x20001178
100082e8:	10007fbd 	.word	0x10007fbd
100082ec:	20002700 	.word	0x20002700
100082f0:	20002708 	.word	0x20002708
100082f4:	7fffffff 	.word	0x7fffffff

100082f8 <__wrap_printf>:
100082f8:	b40f      	push	{r0, r1, r2, r3}
100082fa:	b500      	push	{lr}
100082fc:	b083      	sub	sp, #12
100082fe:	a904      	add	r1, sp, #16
10008300:	c901      	ldmia	r1!, {r0}
10008302:	9101      	str	r1, [sp, #4]
10008304:	f7ff ff8c 	bl	10008220 <__wrap_vprintf>
10008308:	b003      	add	sp, #12
1000830a:	bc08      	pop	{r3}
1000830c:	b004      	add	sp, #16
1000830e:	4718      	bx	r3

10008310 <stdio_init_all>:
10008310:	b510      	push	{r4, lr}
10008312:	f000 f901 	bl	10008518 <stdio_uart_init>
10008316:	f000 fafb 	bl	10008910 <stdio_usb_init>
1000831a:	2001      	movs	r0, #1
1000831c:	bd10      	pop	{r4, pc}
1000831e:	46c0      	nop			; (mov r8, r8)

10008320 <__wrap_getchar>:
10008320:	b5f0      	push	{r4, r5, r6, r7, lr}
10008322:	4b18      	ldr	r3, [pc, #96]	; (10008384 <__wrap_getchar+0x64>)
10008324:	b085      	sub	sp, #20
10008326:	681a      	ldr	r2, [r3, #0]
10008328:	685d      	ldr	r5, [r3, #4]
1000832a:	4f17      	ldr	r7, [pc, #92]	; (10008388 <__wrap_getchar+0x68>)
1000832c:	4e17      	ldr	r6, [pc, #92]	; (1000838c <__wrap_getchar+0x6c>)
1000832e:	9201      	str	r2, [sp, #4]
10008330:	683c      	ldr	r4, [r7, #0]
10008332:	2c00      	cmp	r4, #0
10008334:	d103      	bne.n	1000833e <__wrap_getchar+0x1e>
10008336:	e013      	b.n	10008360 <__wrap_getchar+0x40>
10008338:	6924      	ldr	r4, [r4, #16]
1000833a:	2c00      	cmp	r4, #0
1000833c:	d010      	beq.n	10008360 <__wrap_getchar+0x40>
1000833e:	6833      	ldr	r3, [r6, #0]
10008340:	2b00      	cmp	r3, #0
10008342:	d001      	beq.n	10008348 <__wrap_getchar+0x28>
10008344:	42a3      	cmp	r3, r4
10008346:	d1f7      	bne.n	10008338 <__wrap_getchar+0x18>
10008348:	68a3      	ldr	r3, [r4, #8]
1000834a:	2b00      	cmp	r3, #0
1000834c:	d0f4      	beq.n	10008338 <__wrap_getchar+0x18>
1000834e:	2101      	movs	r1, #1
10008350:	a803      	add	r0, sp, #12
10008352:	4798      	blx	r3
10008354:	2800      	cmp	r0, #0
10008356:	ddef      	ble.n	10008338 <__wrap_getchar+0x18>
10008358:	ab02      	add	r3, sp, #8
1000835a:	7918      	ldrb	r0, [r3, #4]
1000835c:	b005      	add	sp, #20
1000835e:	bdf0      	pop	{r4, r5, r6, r7, pc}
10008360:	4b0b      	ldr	r3, [pc, #44]	; (10008390 <__wrap_getchar+0x70>)
10008362:	6a5a      	ldr	r2, [r3, #36]	; 0x24
10008364:	4295      	cmp	r5, r2
10008366:	d808      	bhi.n	1000837a <__wrap_getchar+0x5a>
10008368:	6a9b      	ldr	r3, [r3, #40]	; 0x28
1000836a:	9901      	ldr	r1, [sp, #4]
1000836c:	428b      	cmp	r3, r1
1000836e:	d201      	bcs.n	10008374 <__wrap_getchar+0x54>
10008370:	4295      	cmp	r5, r2
10008372:	d002      	beq.n	1000837a <__wrap_getchar+0x5a>
10008374:	2001      	movs	r0, #1
10008376:	4240      	negs	r0, r0
10008378:	e7f0      	b.n	1000835c <__wrap_getchar+0x3c>
1000837a:	2001      	movs	r0, #1
1000837c:	2100      	movs	r1, #0
1000837e:	f7fc fcb7 	bl	10004cf0 <busy_wait_us>
10008382:	e7d5      	b.n	10008330 <__wrap_getchar+0x10>
10008384:	100420c8 	.word	0x100420c8
10008388:	20002700 	.word	0x20002700
1000838c:	20002708 	.word	0x20002708
10008390:	40054000 	.word	0x40054000

10008394 <stdio_uart_out_chars>:
10008394:	b5f0      	push	{r4, r5, r6, r7, lr}
10008396:	1e0d      	subs	r5, r1, #0
10008398:	dd15      	ble.n	100083c6 <stdio_uart_out_chars+0x32>
1000839a:	4b0e      	ldr	r3, [pc, #56]	; (100083d4 <stdio_uart_out_chars+0x40>)
1000839c:	270d      	movs	r7, #13
1000839e:	681a      	ldr	r2, [r3, #0]
100083a0:	4b0d      	ldr	r3, [pc, #52]	; (100083d8 <stdio_uart_out_chars+0x44>)
100083a2:	1945      	adds	r5, r0, r5
100083a4:	18d3      	adds	r3, r2, r3
100083a6:	4259      	negs	r1, r3
100083a8:	414b      	adcs	r3, r1
100083aa:	490c      	ldr	r1, [pc, #48]	; (100083dc <stdio_uart_out_chars+0x48>)
100083ac:	005b      	lsls	r3, r3, #1
100083ae:	5e5e      	ldrsh	r6, [r3, r1]
100083b0:	2120      	movs	r1, #32
100083b2:	7804      	ldrb	r4, [r0, #0]
100083b4:	42a6      	cmp	r6, r4
100083b6:	d007      	beq.n	100083c8 <stdio_uart_out_chars+0x34>
100083b8:	6993      	ldr	r3, [r2, #24]
100083ba:	4219      	tst	r1, r3
100083bc:	d1fc      	bne.n	100083b8 <stdio_uart_out_chars+0x24>
100083be:	3001      	adds	r0, #1
100083c0:	6014      	str	r4, [r2, #0]
100083c2:	42a8      	cmp	r0, r5
100083c4:	d1f5      	bne.n	100083b2 <stdio_uart_out_chars+0x1e>
100083c6:	bdf0      	pop	{r4, r5, r6, r7, pc}
100083c8:	6993      	ldr	r3, [r2, #24]
100083ca:	4219      	tst	r1, r3
100083cc:	d1fc      	bne.n	100083c8 <stdio_uart_out_chars+0x34>
100083ce:	6017      	str	r7, [r2, #0]
100083d0:	e7f2      	b.n	100083b8 <stdio_uart_out_chars+0x24>
100083d2:	46c0      	nop			; (mov r8, r8)
100083d4:	20002c64 	.word	0x20002c64
100083d8:	bffc8000 	.word	0xbffc8000
100083dc:	20002c60 	.word	0x20002c60

100083e0 <stdio_uart_in_chars>:
100083e0:	b530      	push	{r4, r5, lr}
100083e2:	0004      	movs	r4, r0
100083e4:	1e0d      	subs	r5, r1, #0
100083e6:	dd26      	ble.n	10008436 <stdio_uart_in_chars+0x56>
100083e8:	2000      	movs	r0, #0
100083ea:	2110      	movs	r1, #16
100083ec:	4b1b      	ldr	r3, [pc, #108]	; (1000845c <stdio_uart_in_chars+0x7c>)
100083ee:	3c01      	subs	r4, #1
100083f0:	681a      	ldr	r2, [r3, #0]
100083f2:	6993      	ldr	r3, [r2, #24]
100083f4:	4219      	tst	r1, r3
100083f6:	d119      	bne.n	1000842c <stdio_uart_in_chars+0x4c>
100083f8:	3001      	adds	r0, #1
100083fa:	6993      	ldr	r3, [r2, #24]
100083fc:	4219      	tst	r1, r3
100083fe:	d1fc      	bne.n	100083fa <stdio_uart_in_chars+0x1a>
10008400:	6813      	ldr	r3, [r2, #0]
10008402:	5423      	strb	r3, [r4, r0]
10008404:	4285      	cmp	r5, r0
10008406:	d1f4      	bne.n	100083f2 <stdio_uart_in_chars+0x12>
10008408:	4b15      	ldr	r3, [pc, #84]	; (10008460 <stdio_uart_in_chars+0x80>)
1000840a:	681b      	ldr	r3, [r3, #0]
1000840c:	2b00      	cmp	r3, #0
1000840e:	d00c      	beq.n	1000842a <stdio_uart_in_chars+0x4a>
10008410:	2350      	movs	r3, #80	; 0x50
10008412:	6393      	str	r3, [r2, #56]	; 0x38
10008414:	6b51      	ldr	r1, [r2, #52]	; 0x34
10008416:	3b18      	subs	r3, #24
10008418:	3234      	adds	r2, #52	; 0x34
1000841a:	400b      	ands	r3, r1
1000841c:	0011      	movs	r1, r2
1000841e:	2280      	movs	r2, #128	; 0x80
10008420:	0152      	lsls	r2, r2, #5
10008422:	430a      	orrs	r2, r1
10008424:	6013      	str	r3, [r2, #0]
10008426:	2800      	cmp	r0, #0
10008428:	d015      	beq.n	10008456 <stdio_uart_in_chars+0x76>
1000842a:	bd30      	pop	{r4, r5, pc}
1000842c:	4b0c      	ldr	r3, [pc, #48]	; (10008460 <stdio_uart_in_chars+0x80>)
1000842e:	681b      	ldr	r3, [r3, #0]
10008430:	2b00      	cmp	r3, #0
10008432:	d1ed      	bne.n	10008410 <stdio_uart_in_chars+0x30>
10008434:	e7f7      	b.n	10008426 <stdio_uart_in_chars+0x46>
10008436:	4b0a      	ldr	r3, [pc, #40]	; (10008460 <stdio_uart_in_chars+0x80>)
10008438:	681b      	ldr	r3, [r3, #0]
1000843a:	2b00      	cmp	r3, #0
1000843c:	d00b      	beq.n	10008456 <stdio_uart_in_chars+0x76>
1000843e:	2250      	movs	r2, #80	; 0x50
10008440:	2138      	movs	r1, #56	; 0x38
10008442:	4b06      	ldr	r3, [pc, #24]	; (1000845c <stdio_uart_in_chars+0x7c>)
10008444:	681b      	ldr	r3, [r3, #0]
10008446:	639a      	str	r2, [r3, #56]	; 0x38
10008448:	6b5a      	ldr	r2, [r3, #52]	; 0x34
1000844a:	3334      	adds	r3, #52	; 0x34
1000844c:	4011      	ands	r1, r2
1000844e:	2280      	movs	r2, #128	; 0x80
10008450:	0152      	lsls	r2, r2, #5
10008452:	4313      	orrs	r3, r2
10008454:	6019      	str	r1, [r3, #0]
10008456:	2003      	movs	r0, #3
10008458:	4240      	negs	r0, r0
1000845a:	e7e6      	b.n	1000842a <stdio_uart_in_chars+0x4a>
1000845c:	20002c64 	.word	0x20002c64
10008460:	20001d70 	.word	0x20001d70

10008464 <on_uart_rx>:
10008464:	4b06      	ldr	r3, [pc, #24]	; (10008480 <on_uart_rx+0x1c>)
10008466:	b510      	push	{r4, lr}
10008468:	681b      	ldr	r3, [r3, #0]
1000846a:	2b00      	cmp	r3, #0
1000846c:	d006      	beq.n	1000847c <on_uart_rx+0x18>
1000846e:	2100      	movs	r1, #0
10008470:	4a04      	ldr	r2, [pc, #16]	; (10008484 <on_uart_rx+0x20>)
10008472:	6812      	ldr	r2, [r2, #0]
10008474:	6391      	str	r1, [r2, #56]	; 0x38
10008476:	4a04      	ldr	r2, [pc, #16]	; (10008488 <on_uart_rx+0x24>)
10008478:	6810      	ldr	r0, [r2, #0]
1000847a:	4798      	blx	r3
1000847c:	bd10      	pop	{r4, pc}
1000847e:	46c0      	nop			; (mov r8, r8)
10008480:	20001d70 	.word	0x20001d70
10008484:	20002c64 	.word	0x20002c64
10008488:	20001d78 	.word	0x20001d78

1000848c <stdio_uart_set_chars_available_callback>:
1000848c:	4b1d      	ldr	r3, [pc, #116]	; (10008504 <stdio_uart_set_chars_available_callback+0x78>)
1000848e:	b5f0      	push	{r4, r5, r6, r7, lr}
10008490:	681a      	ldr	r2, [r3, #0]
10008492:	46c6      	mov	lr, r8
10008494:	4698      	mov	r8, r3
10008496:	4b1c      	ldr	r3, [pc, #112]	; (10008508 <stdio_uart_set_chars_available_callback+0x7c>)
10008498:	000e      	movs	r6, r1
1000849a:	18d3      	adds	r3, r2, r3
1000849c:	4259      	negs	r1, r3
1000849e:	414b      	adcs	r3, r1
100084a0:	4f1a      	ldr	r7, [pc, #104]	; (1000850c <stdio_uart_set_chars_available_callback+0x80>)
100084a2:	3314      	adds	r3, #20
100084a4:	001c      	movs	r4, r3
100084a6:	0005      	movs	r5, r0
100084a8:	b500      	push	{lr}
100084aa:	683b      	ldr	r3, [r7, #0]
100084ac:	2800      	cmp	r0, #0
100084ae:	d007      	beq.n	100084c0 <stdio_uart_set_chars_available_callback+0x34>
100084b0:	2b00      	cmp	r3, #0
100084b2:	d011      	beq.n	100084d8 <stdio_uart_set_chars_available_callback+0x4c>
100084b4:	4b16      	ldr	r3, [pc, #88]	; (10008510 <stdio_uart_set_chars_available_callback+0x84>)
100084b6:	603d      	str	r5, [r7, #0]
100084b8:	601e      	str	r6, [r3, #0]
100084ba:	bc80      	pop	{r7}
100084bc:	46b8      	mov	r8, r7
100084be:	bdf0      	pop	{r4, r5, r6, r7, pc}
100084c0:	2b00      	cmp	r3, #0
100084c2:	d0f7      	beq.n	100084b4 <stdio_uart_set_chars_available_callback+0x28>
100084c4:	6390      	str	r0, [r2, #56]	; 0x38
100084c6:	2100      	movs	r1, #0
100084c8:	0020      	movs	r0, r4
100084ca:	f7fb fd09 	bl	10003ee0 <irq_set_enabled>
100084ce:	0020      	movs	r0, r4
100084d0:	4910      	ldr	r1, [pc, #64]	; (10008514 <stdio_uart_set_chars_available_callback+0x88>)
100084d2:	f7fb fe5b 	bl	1000418c <irq_remove_handler>
100084d6:	e7ed      	b.n	100084b4 <stdio_uart_set_chars_available_callback+0x28>
100084d8:	0020      	movs	r0, r4
100084da:	490e      	ldr	r1, [pc, #56]	; (10008514 <stdio_uart_set_chars_available_callback+0x88>)
100084dc:	f7fb fd38 	bl	10003f50 <irq_set_exclusive_handler>
100084e0:	2101      	movs	r1, #1
100084e2:	0020      	movs	r0, r4
100084e4:	f7fb fcfc 	bl	10003ee0 <irq_set_enabled>
100084e8:	4643      	mov	r3, r8
100084ea:	2250      	movs	r2, #80	; 0x50
100084ec:	2138      	movs	r1, #56	; 0x38
100084ee:	681b      	ldr	r3, [r3, #0]
100084f0:	639a      	str	r2, [r3, #56]	; 0x38
100084f2:	6b5a      	ldr	r2, [r3, #52]	; 0x34
100084f4:	3334      	adds	r3, #52	; 0x34
100084f6:	4011      	ands	r1, r2
100084f8:	2280      	movs	r2, #128	; 0x80
100084fa:	0152      	lsls	r2, r2, #5
100084fc:	4313      	orrs	r3, r2
100084fe:	6019      	str	r1, [r3, #0]
10008500:	e7d8      	b.n	100084b4 <stdio_uart_set_chars_available_callback+0x28>
10008502:	46c0      	nop			; (mov r8, r8)
10008504:	20002c64 	.word	0x20002c64
10008508:	bffc8000 	.word	0xbffc8000
1000850c:	20001d70 	.word	0x20001d70
10008510:	20001d78 	.word	0x20001d78
10008514:	10008465 	.word	0x10008465

10008518 <stdio_uart_init>:
10008518:	b510      	push	{r4, lr}
1000851a:	4b0c      	ldr	r3, [pc, #48]	; (1000854c <stdio_uart_init+0x34>)
1000851c:	4c0c      	ldr	r4, [pc, #48]	; (10008550 <stdio_uart_init+0x38>)
1000851e:	781b      	ldrb	r3, [r3, #0]
10008520:	4b0c      	ldr	r3, [pc, #48]	; (10008554 <stdio_uart_init+0x3c>)
10008522:	2102      	movs	r1, #2
10008524:	781b      	ldrb	r3, [r3, #0]
10008526:	4b0c      	ldr	r3, [pc, #48]	; (10008558 <stdio_uart_init+0x40>)
10008528:	2000      	movs	r0, #0
1000852a:	6023      	str	r3, [r4, #0]
1000852c:	f7fb fc06 	bl	10003d3c <gpio_set_function>
10008530:	2102      	movs	r1, #2
10008532:	2001      	movs	r0, #1
10008534:	f7fb fc02 	bl	10003d3c <gpio_set_function>
10008538:	21e1      	movs	r1, #225	; 0xe1
1000853a:	6820      	ldr	r0, [r4, #0]
1000853c:	0249      	lsls	r1, r1, #9
1000853e:	f7fd fab9 	bl	10005ab4 <uart_init>
10008542:	2101      	movs	r1, #1
10008544:	4805      	ldr	r0, [pc, #20]	; (1000855c <stdio_uart_init+0x44>)
10008546:	f7ff fe53 	bl	100081f0 <stdio_set_driver_enabled>
1000854a:	bd10      	pop	{r4, pc}
1000854c:	100426c8 	.word	0x100426c8
10008550:	20002c64 	.word	0x20002c64
10008554:	100426cc 	.word	0x100426cc
10008558:	40034000 	.word	0x40034000
1000855c:	20001120 	.word	0x20001120

10008560 <resetd_init>:
10008560:	4770      	bx	lr
10008562:	46c0      	nop			; (mov r8, r8)

10008564 <resetd_reset>:
10008564:	2200      	movs	r2, #0
10008566:	4b01      	ldr	r3, [pc, #4]	; (1000856c <resetd_reset+0x8>)
10008568:	701a      	strb	r2, [r3, #0]
1000856a:	4770      	bx	lr
1000856c:	20002c84 	.word	0x20002c84

10008570 <resetd_open>:
10008570:	794b      	ldrb	r3, [r1, #5]
10008572:	2000      	movs	r0, #0
10008574:	2bff      	cmp	r3, #255	; 0xff
10008576:	d10b      	bne.n	10008590 <resetd_open+0x20>
10008578:	798b      	ldrb	r3, [r1, #6]
1000857a:	2b00      	cmp	r3, #0
1000857c:	d108      	bne.n	10008590 <resetd_open+0x20>
1000857e:	79cb      	ldrb	r3, [r1, #7]
10008580:	2b01      	cmp	r3, #1
10008582:	d105      	bne.n	10008590 <resetd_open+0x20>
10008584:	2a08      	cmp	r2, #8
10008586:	d903      	bls.n	10008590 <resetd_open+0x20>
10008588:	788a      	ldrb	r2, [r1, #2]
1000858a:	4b02      	ldr	r3, [pc, #8]	; (10008594 <resetd_open+0x24>)
1000858c:	3009      	adds	r0, #9
1000858e:	701a      	strb	r2, [r3, #0]
10008590:	4770      	bx	lr
10008592:	46c0      	nop			; (mov r8, r8)
10008594:	20002c84 	.word	0x20002c84

10008598 <resetd_xfer_cb>:
10008598:	2001      	movs	r0, #1
1000859a:	4770      	bx	lr

1000859c <resetd_control_xfer_cb>:
1000859c:	b570      	push	{r4, r5, r6, lr}
1000859e:	2901      	cmp	r1, #1
100085a0:	d109      	bne.n	100085b6 <resetd_control_xfer_cb+0x1a>
100085a2:	4915      	ldr	r1, [pc, #84]	; (100085f8 <resetd_control_xfer_cb+0x5c>)
100085a4:	7953      	ldrb	r3, [r2, #5]
100085a6:	7910      	ldrb	r0, [r2, #4]
100085a8:	7809      	ldrb	r1, [r1, #0]
100085aa:	021b      	lsls	r3, r3, #8
100085ac:	4303      	orrs	r3, r0
100085ae:	2000      	movs	r0, #0
100085b0:	4299      	cmp	r1, r3
100085b2:	d002      	beq.n	100085ba <resetd_control_xfer_cb+0x1e>
100085b4:	bd70      	pop	{r4, r5, r6, pc}
100085b6:	2001      	movs	r0, #1
100085b8:	e7fc      	b.n	100085b4 <resetd_control_xfer_cb+0x18>
100085ba:	7853      	ldrb	r3, [r2, #1]
100085bc:	2b01      	cmp	r3, #1
100085be:	d008      	beq.n	100085d2 <resetd_control_xfer_cb+0x36>
100085c0:	2b02      	cmp	r3, #2
100085c2:	d1f7      	bne.n	100085b4 <resetd_control_xfer_cb+0x18>
100085c4:	2000      	movs	r0, #0
100085c6:	2264      	movs	r2, #100	; 0x64
100085c8:	2100      	movs	r1, #0
100085ca:	f7fd fca7 	bl	10005f1c <watchdog_reboot>
100085ce:	2001      	movs	r0, #1
100085d0:	e7f0      	b.n	100085b4 <resetd_control_xfer_cb+0x18>
100085d2:	7894      	ldrb	r4, [r2, #2]
100085d4:	78d2      	ldrb	r2, [r2, #3]
100085d6:	0005      	movs	r5, r0
100085d8:	0212      	lsls	r2, r2, #8
100085da:	4314      	orrs	r4, r2
100085dc:	05d2      	lsls	r2, r2, #23
100085de:	d502      	bpl.n	100085e6 <resetd_control_xfer_cb+0x4a>
100085e0:	0a62      	lsrs	r2, r4, #9
100085e2:	4093      	lsls	r3, r2
100085e4:	001d      	movs	r5, r3
100085e6:	4805      	ldr	r0, [pc, #20]	; (100085fc <resetd_control_xfer_cb+0x60>)
100085e8:	f7f8 f9cc 	bl	10000984 <rom_func_lookup>
100085ec:	217f      	movs	r1, #127	; 0x7f
100085ee:	0003      	movs	r3, r0
100085f0:	4021      	ands	r1, r4
100085f2:	0028      	movs	r0, r5
100085f4:	4798      	blx	r3
100085f6:	46c0      	nop			; (mov r8, r8)
100085f8:	20002c84 	.word	0x20002c84
100085fc:	00004255 	.word	0x00004255

10008600 <usbd_app_driver_get_cb>:
10008600:	2301      	movs	r3, #1
10008602:	7003      	strb	r3, [r0, #0]
10008604:	4800      	ldr	r0, [pc, #0]	; (10008608 <usbd_app_driver_get_cb+0x8>)
10008606:	4770      	bx	lr
10008608:	100424c0 	.word	0x100424c0

1000860c <tud_cdc_line_coding_cb>:
1000860c:	7848      	ldrb	r0, [r1, #1]
1000860e:	780b      	ldrb	r3, [r1, #0]
10008610:	788a      	ldrb	r2, [r1, #2]
10008612:	0200      	lsls	r0, r0, #8
10008614:	4318      	orrs	r0, r3
10008616:	0412      	lsls	r2, r2, #16
10008618:	4310      	orrs	r0, r2
1000861a:	2296      	movs	r2, #150	; 0x96
1000861c:	78cb      	ldrb	r3, [r1, #3]
1000861e:	b510      	push	{r4, lr}
10008620:	061b      	lsls	r3, r3, #24
10008622:	4303      	orrs	r3, r0
10008624:	00d2      	lsls	r2, r2, #3
10008626:	4293      	cmp	r3, r2
10008628:	d000      	beq.n	1000862c <tud_cdc_line_coding_cb+0x20>
1000862a:	bd10      	pop	{r4, pc}
1000862c:	4803      	ldr	r0, [pc, #12]	; (1000863c <tud_cdc_line_coding_cb+0x30>)
1000862e:	f7f8 f9a9 	bl	10000984 <rom_func_lookup>
10008632:	2100      	movs	r1, #0
10008634:	0003      	movs	r3, r0
10008636:	0008      	movs	r0, r1
10008638:	4798      	blx	r3
1000863a:	46c0      	nop			; (mov r8, r8)
1000863c:	00004255 	.word	0x00004255

10008640 <stdio_usb_set_chars_available_callback>:
10008640:	4b02      	ldr	r3, [pc, #8]	; (1000864c <stdio_usb_set_chars_available_callback+0xc>)
10008642:	6018      	str	r0, [r3, #0]
10008644:	4b02      	ldr	r3, [pc, #8]	; (10008650 <stdio_usb_set_chars_available_callback+0x10>)
10008646:	6019      	str	r1, [r3, #0]
10008648:	4770      	bx	lr
1000864a:	46c0      	nop			; (mov r8, r8)
1000864c:	20001d74 	.word	0x20001d74
10008650:	20001d7c 	.word	0x20001d7c

10008654 <usb_irq>:
10008654:	b510      	push	{r4, lr}
10008656:	4b02      	ldr	r3, [pc, #8]	; (10008660 <usb_irq+0xc>)
10008658:	7818      	ldrb	r0, [r3, #0]
1000865a:	f7fb fc53 	bl	10003f04 <irq_set_pending>
1000865e:	bd10      	pop	{r4, pc}
10008660:	20002c85 	.word	0x20002c85

10008664 <timer_task>:
10008664:	4b11      	ldr	r3, [pc, #68]	; (100086ac <timer_task+0x48>)
10008666:	b570      	push	{r4, r5, r6, lr}
10008668:	681a      	ldr	r2, [r3, #0]
1000866a:	2a00      	cmp	r2, #0
1000866c:	d01a      	beq.n	100086a4 <timer_task+0x40>
1000866e:	f3ef 8110 	mrs	r1, PRIMASK
10008672:	b672      	cpsid	i
10008674:	6810      	ldr	r0, [r2, #0]
10008676:	2800      	cmp	r0, #0
10008678:	d0fc      	beq.n	10008674 <timer_task+0x10>
1000867a:	f3bf 8f5f 	dmb	sy
1000867e:	2200      	movs	r2, #0
10008680:	480b      	ldr	r0, [pc, #44]	; (100086b0 <timer_task+0x4c>)
10008682:	6059      	str	r1, [r3, #4]
10008684:	7002      	strb	r2, [r0, #0]
10008686:	681b      	ldr	r3, [r3, #0]
10008688:	f3bf 8f5f 	dmb	sy
1000868c:	601a      	str	r2, [r3, #0]
1000868e:	f381 8810 	msr	PRIMASK, r1
10008692:	2400      	movs	r4, #0
10008694:	2500      	movs	r5, #0
10008696:	4b07      	ldr	r3, [pc, #28]	; (100086b4 <timer_task+0x50>)
10008698:	7818      	ldrb	r0, [r3, #0]
1000869a:	f7fb fc33 	bl	10003f04 <irq_set_pending>
1000869e:	0029      	movs	r1, r5
100086a0:	0020      	movs	r0, r4
100086a2:	bd70      	pop	{r4, r5, r6, pc}
100086a4:	24fa      	movs	r4, #250	; 0xfa
100086a6:	2500      	movs	r5, #0
100086a8:	00a4      	lsls	r4, r4, #2
100086aa:	e7f4      	b.n	10008696 <timer_task+0x32>
100086ac:	20002b18 	.word	0x20002b18
100086b0:	20002c86 	.word	0x20002c86
100086b4:	20002c85 	.word	0x20002c85

100086b8 <stdio_usb_in_chars>:
100086b8:	b570      	push	{r4, r5, r6, lr}
100086ba:	0004      	movs	r4, r0
100086bc:	2000      	movs	r0, #0
100086be:	000e      	movs	r6, r1
100086c0:	f001 fa06 	bl	10009ad0 <tud_cdc_n_connected>
100086c4:	2800      	cmp	r0, #0
100086c6:	d035      	beq.n	10008734 <stdio_usb_in_chars+0x7c>
100086c8:	2000      	movs	r0, #0
100086ca:	f001 fa19 	bl	10009b00 <tud_cdc_n_available>
100086ce:	2800      	cmp	r0, #0
100086d0:	d030      	beq.n	10008734 <stdio_usb_in_chars+0x7c>
100086d2:	f7fc fb03 	bl	10004cdc <time_us_64>
100086d6:	2300      	movs	r3, #0
100086d8:	4a18      	ldr	r2, [pc, #96]	; (1000873c <stdio_usb_in_chars+0x84>)
100086da:	1812      	adds	r2, r2, r0
100086dc:	414b      	adcs	r3, r1
100086de:	2b00      	cmp	r3, #0
100086e0:	db24      	blt.n	1000872c <stdio_usb_in_chars+0x74>
100086e2:	4d17      	ldr	r5, [pc, #92]	; (10008740 <stdio_usb_in_chars+0x88>)
100086e4:	0028      	movs	r0, r5
100086e6:	f002 f877 	bl	1000a7d8 <__mutex_try_enter_block_until_veneer>
100086ea:	2800      	cmp	r0, #0
100086ec:	d022      	beq.n	10008734 <stdio_usb_in_chars+0x7c>
100086ee:	2000      	movs	r0, #0
100086f0:	f001 f9ee 	bl	10009ad0 <tud_cdc_n_connected>
100086f4:	2800      	cmp	r0, #0
100086f6:	d10b      	bne.n	10008710 <stdio_usb_in_chars+0x58>
100086f8:	2001      	movs	r0, #1
100086fa:	2100      	movs	r1, #0
100086fc:	2403      	movs	r4, #3
100086fe:	4240      	negs	r0, r0
10008700:	f000 fbd0 	bl	10008ea4 <tud_task_ext>
10008704:	4264      	negs	r4, r4
10008706:	0028      	movs	r0, r5
10008708:	f002 f826 	bl	1000a758 <__mutex_exit_veneer>
1000870c:	0020      	movs	r0, r4
1000870e:	bd70      	pop	{r4, r5, r6, pc}
10008710:	2000      	movs	r0, #0
10008712:	f001 f9f5 	bl	10009b00 <tud_cdc_n_available>
10008716:	2800      	cmp	r0, #0
10008718:	d0ee      	beq.n	100086f8 <stdio_usb_in_chars+0x40>
1000871a:	0021      	movs	r1, r4
1000871c:	0032      	movs	r2, r6
1000871e:	2000      	movs	r0, #0
10008720:	f001 f9fa 	bl	10009b18 <tud_cdc_n_read>
10008724:	1e04      	subs	r4, r0, #0
10008726:	d1ee      	bne.n	10008706 <stdio_usb_in_chars+0x4e>
10008728:	3c03      	subs	r4, #3
1000872a:	e7ec      	b.n	10008706 <stdio_usb_in_chars+0x4e>
1000872c:	2201      	movs	r2, #1
1000872e:	4b05      	ldr	r3, [pc, #20]	; (10008744 <stdio_usb_in_chars+0x8c>)
10008730:	4252      	negs	r2, r2
10008732:	e7d6      	b.n	100086e2 <stdio_usb_in_chars+0x2a>
10008734:	2403      	movs	r4, #3
10008736:	4264      	negs	r4, r4
10008738:	e7e8      	b.n	1000870c <stdio_usb_in_chars+0x54>
1000873a:	46c0      	nop			; (mov r8, r8)
1000873c:	000f4240 	.word	0x000f4240
10008740:	20002c48 	.word	0x20002c48
10008744:	7fffffff 	.word	0x7fffffff

10008748 <stdio_usb_out_chars>:
10008748:	b5f8      	push	{r3, r4, r5, r6, r7, lr}
1000874a:	46de      	mov	lr, fp
1000874c:	4657      	mov	r7, sl
1000874e:	b580      	push	{r7, lr}
10008750:	0005      	movs	r5, r0
10008752:	000c      	movs	r4, r1
10008754:	f7fc fac2 	bl	10004cdc <time_us_64>
10008758:	2300      	movs	r3, #0
1000875a:	4a36      	ldr	r2, [pc, #216]	; (10008834 <stdio_usb_out_chars+0xec>)
1000875c:	1812      	adds	r2, r2, r0
1000875e:	414b      	adcs	r3, r1
10008760:	2b00      	cmp	r3, #0
10008762:	db5a      	blt.n	1000881a <stdio_usb_out_chars+0xd2>
10008764:	4934      	ldr	r1, [pc, #208]	; (10008838 <stdio_usb_out_chars+0xf0>)
10008766:	0008      	movs	r0, r1
10008768:	468a      	mov	sl, r1
1000876a:	f002 f835 	bl	1000a7d8 <__mutex_try_enter_block_until_veneer>
1000876e:	2800      	cmp	r0, #0
10008770:	d103      	bne.n	1000877a <stdio_usb_out_chars+0x32>
10008772:	bcc0      	pop	{r6, r7}
10008774:	46bb      	mov	fp, r7
10008776:	46b2      	mov	sl, r6
10008778:	bdf8      	pop	{r3, r4, r5, r6, r7, pc}
1000877a:	2000      	movs	r0, #0
1000877c:	f001 f9a8 	bl	10009ad0 <tud_cdc_n_connected>
10008780:	2800      	cmp	r0, #0
10008782:	d04e      	beq.n	10008822 <stdio_usb_out_chars+0xda>
10008784:	2600      	movs	r6, #0
10008786:	2c00      	cmp	r4, #0
10008788:	dd43      	ble.n	10008812 <stdio_usb_out_chars+0xca>
1000878a:	4b2c      	ldr	r3, [pc, #176]	; (1000883c <stdio_usb_out_chars+0xf4>)
1000878c:	469b      	mov	fp, r3
1000878e:	e014      	b.n	100087ba <stdio_usb_out_chars+0x72>
10008790:	19a9      	adds	r1, r5, r6
10008792:	2000      	movs	r0, #0
10008794:	f001 fa34 	bl	10009c00 <tud_cdc_n_write>
10008798:	0007      	movs	r7, r0
1000879a:	2001      	movs	r0, #1
1000879c:	2100      	movs	r1, #0
1000879e:	4240      	negs	r0, r0
100087a0:	f000 fb80 	bl	10008ea4 <tud_task_ext>
100087a4:	2000      	movs	r0, #0
100087a6:	f001 f9ef 	bl	10009b88 <tud_cdc_n_write_flush>
100087aa:	f7fc fa97 	bl	10004cdc <time_us_64>
100087ae:	4b23      	ldr	r3, [pc, #140]	; (1000883c <stdio_usb_out_chars+0xf4>)
100087b0:	19f6      	adds	r6, r6, r7
100087b2:	6018      	str	r0, [r3, #0]
100087b4:	6059      	str	r1, [r3, #4]
100087b6:	42b4      	cmp	r4, r6
100087b8:	dd2b      	ble.n	10008812 <stdio_usb_out_chars+0xca>
100087ba:	2000      	movs	r0, #0
100087bc:	f001 fa3a 	bl	10009c34 <tud_cdc_n_write_available>
100087c0:	1ba7      	subs	r7, r4, r6
100087c2:	0002      	movs	r2, r0
100087c4:	42b8      	cmp	r0, r7
100087c6:	dd00      	ble.n	100087ca <stdio_usb_out_chars+0x82>
100087c8:	003a      	movs	r2, r7
100087ca:	2a00      	cmp	r2, #0
100087cc:	d1e0      	bne.n	10008790 <stdio_usb_out_chars+0x48>
100087ce:	2001      	movs	r0, #1
100087d0:	2100      	movs	r1, #0
100087d2:	4240      	negs	r0, r0
100087d4:	f000 fb66 	bl	10008ea4 <tud_task_ext>
100087d8:	2000      	movs	r0, #0
100087da:	f001 f9d5 	bl	10009b88 <tud_cdc_n_write_flush>
100087de:	2000      	movs	r0, #0
100087e0:	f001 f976 	bl	10009ad0 <tud_cdc_n_connected>
100087e4:	2800      	cmp	r0, #0
100087e6:	d014      	beq.n	10008812 <stdio_usb_out_chars+0xca>
100087e8:	2000      	movs	r0, #0
100087ea:	f001 fa23 	bl	10009c34 <tud_cdc_n_write_available>
100087ee:	2800      	cmp	r0, #0
100087f0:	d1e1      	bne.n	100087b6 <stdio_usb_out_chars+0x6e>
100087f2:	f7fc fa73 	bl	10004cdc <time_us_64>
100087f6:	465b      	mov	r3, fp
100087f8:	000f      	movs	r7, r1
100087fa:	681a      	ldr	r2, [r3, #0]
100087fc:	685b      	ldr	r3, [r3, #4]
100087fe:	2100      	movs	r1, #0
10008800:	4684      	mov	ip, r0
10008802:	480f      	ldr	r0, [pc, #60]	; (10008840 <stdio_usb_out_chars+0xf8>)
10008804:	1812      	adds	r2, r2, r0
10008806:	414b      	adcs	r3, r1
10008808:	429f      	cmp	r7, r3
1000880a:	d802      	bhi.n	10008812 <stdio_usb_out_chars+0xca>
1000880c:	d1d3      	bne.n	100087b6 <stdio_usb_out_chars+0x6e>
1000880e:	4594      	cmp	ip, r2
10008810:	d9d1      	bls.n	100087b6 <stdio_usb_out_chars+0x6e>
10008812:	4650      	mov	r0, sl
10008814:	f001 ffa0 	bl	1000a758 <__mutex_exit_veneer>
10008818:	e7ab      	b.n	10008772 <stdio_usb_out_chars+0x2a>
1000881a:	2201      	movs	r2, #1
1000881c:	4b09      	ldr	r3, [pc, #36]	; (10008844 <stdio_usb_out_chars+0xfc>)
1000881e:	4252      	negs	r2, r2
10008820:	e7a0      	b.n	10008764 <stdio_usb_out_chars+0x1c>
10008822:	2000      	movs	r0, #0
10008824:	2100      	movs	r1, #0
10008826:	4b05      	ldr	r3, [pc, #20]	; (1000883c <stdio_usb_out_chars+0xf4>)
10008828:	6018      	str	r0, [r3, #0]
1000882a:	6059      	str	r1, [r3, #4]
1000882c:	4650      	mov	r0, sl
1000882e:	f001 ff93 	bl	1000a758 <__mutex_exit_veneer>
10008832:	e79e      	b.n	10008772 <stdio_usb_out_chars+0x2a>
10008834:	000f4240 	.word	0x000f4240
10008838:	20002c48 	.word	0x20002c48
1000883c:	200012e0 	.word	0x200012e0
10008840:	0007a120 	.word	0x0007a120
10008844:	7fffffff 	.word	0x7fffffff

10008848 <low_priority_worker_irq>:
10008848:	b510      	push	{r4, lr}
1000884a:	4c24      	ldr	r4, [pc, #144]	; (100088dc <low_priority_worker_irq+0x94>)
1000884c:	b084      	sub	sp, #16
1000884e:	2100      	movs	r1, #0
10008850:	0020      	movs	r0, r4
10008852:	f001 ffa9 	bl	1000a7a8 <__mutex_try_enter_veneer>
10008856:	2800      	cmp	r0, #0
10008858:	d11c      	bne.n	10008894 <low_priority_worker_irq+0x4c>
1000885a:	4b21      	ldr	r3, [pc, #132]	; (100088e0 <low_priority_worker_irq+0x98>)
1000885c:	681a      	ldr	r2, [r3, #0]
1000885e:	2a00      	cmp	r2, #0
10008860:	d016      	beq.n	10008890 <low_priority_worker_irq+0x48>
10008862:	f3ef 8110 	mrs	r1, PRIMASK
10008866:	b672      	cpsid	i
10008868:	6810      	ldr	r0, [r2, #0]
1000886a:	2800      	cmp	r0, #0
1000886c:	d0fc      	beq.n	10008868 <low_priority_worker_irq+0x20>
1000886e:	f3bf 8f5f 	dmb	sy
10008872:	2401      	movs	r4, #1
10008874:	481b      	ldr	r0, [pc, #108]	; (100088e4 <low_priority_worker_irq+0x9c>)
10008876:	6059      	str	r1, [r3, #4]
10008878:	7802      	ldrb	r2, [r0, #0]
1000887a:	681b      	ldr	r3, [r3, #0]
1000887c:	b2d2      	uxtb	r2, r2
1000887e:	7004      	strb	r4, [r0, #0]
10008880:	f3bf 8f5f 	dmb	sy
10008884:	2000      	movs	r0, #0
10008886:	6018      	str	r0, [r3, #0]
10008888:	f381 8810 	msr	PRIMASK, r1
1000888c:	2a00      	cmp	r2, #0
1000888e:	d00a      	beq.n	100088a6 <low_priority_worker_irq+0x5e>
10008890:	b004      	add	sp, #16
10008892:	bd10      	pop	{r4, pc}
10008894:	2001      	movs	r0, #1
10008896:	2100      	movs	r1, #0
10008898:	4240      	negs	r0, r0
1000889a:	f000 fb03 	bl	10008ea4 <tud_task_ext>
1000889e:	0020      	movs	r0, r4
100088a0:	f001 ff5a 	bl	1000a758 <__mutex_exit_veneer>
100088a4:	e7f4      	b.n	10008890 <low_priority_worker_irq+0x48>
100088a6:	f7fb fff9 	bl	1000489c <alarm_pool_get_default>
100088aa:	0004      	movs	r4, r0
100088ac:	f7fc fa16 	bl	10004cdc <time_us_64>
100088b0:	22fa      	movs	r2, #250	; 0xfa
100088b2:	2300      	movs	r3, #0
100088b4:	0092      	lsls	r2, r2, #2
100088b6:	1812      	adds	r2, r2, r0
100088b8:	414b      	adcs	r3, r1
100088ba:	2b00      	cmp	r3, #0
100088bc:	db09      	blt.n	100088d2 <low_priority_worker_irq+0x8a>
100088be:	2101      	movs	r1, #1
100088c0:	9102      	str	r1, [sp, #8]
100088c2:	2100      	movs	r1, #0
100088c4:	9101      	str	r1, [sp, #4]
100088c6:	4908      	ldr	r1, [pc, #32]	; (100088e8 <low_priority_worker_irq+0xa0>)
100088c8:	0020      	movs	r0, r4
100088ca:	9100      	str	r1, [sp, #0]
100088cc:	f7fb ffea 	bl	100048a4 <alarm_pool_add_alarm_at>
100088d0:	e7de      	b.n	10008890 <low_priority_worker_irq+0x48>
100088d2:	2201      	movs	r2, #1
100088d4:	4b05      	ldr	r3, [pc, #20]	; (100088ec <low_priority_worker_irq+0xa4>)
100088d6:	4252      	negs	r2, r2
100088d8:	e7f1      	b.n	100088be <low_priority_worker_irq+0x76>
100088da:	46c0      	nop			; (mov r8, r8)
100088dc:	20002c48 	.word	0x20002c48
100088e0:	20002b18 	.word	0x20002b18
100088e4:	20002c86 	.word	0x20002c86
100088e8:	10008665 	.word	0x10008665
100088ec:	7fffffff 	.word	0x7fffffff

100088f0 <tud_cdc_rx_cb>:
100088f0:	4b05      	ldr	r3, [pc, #20]	; (10008908 <tud_cdc_rx_cb+0x18>)
100088f2:	b510      	push	{r4, lr}
100088f4:	6818      	ldr	r0, [r3, #0]
100088f6:	2800      	cmp	r0, #0
100088f8:	d004      	beq.n	10008904 <tud_cdc_rx_cb+0x14>
100088fa:	4b04      	ldr	r3, [pc, #16]	; (1000890c <tud_cdc_rx_cb+0x1c>)
100088fc:	2200      	movs	r2, #0
100088fe:	6819      	ldr	r1, [r3, #0]
10008900:	f000 ff48 	bl	10009794 <usbd_defer_func>
10008904:	bd10      	pop	{r4, pc}
10008906:	46c0      	nop			; (mov r8, r8)
10008908:	20001d74 	.word	0x20001d74
1000890c:	20001d7c 	.word	0x20001d7c

10008910 <stdio_usb_init>:
10008910:	23d0      	movs	r3, #208	; 0xd0
10008912:	b510      	push	{r4, lr}
10008914:	061b      	lsls	r3, r3, #24
10008916:	b084      	sub	sp, #16
10008918:	681c      	ldr	r4, [r3, #0]
1000891a:	f7fb ffbf 	bl	1000489c <alarm_pool_get_default>
1000891e:	f7fc f8b9 	bl	10004a94 <alarm_pool_core_num>
10008922:	42a0      	cmp	r0, r4
10008924:	d002      	beq.n	1000892c <stdio_usb_init+0x1c>
10008926:	2000      	movs	r0, #0
10008928:	b004      	add	sp, #16
1000892a:	bd10      	pop	{r4, pc}
1000892c:	4b26      	ldr	r3, [pc, #152]	; (100089c8 <stdio_usb_init+0xb8>)
1000892e:	781b      	ldrb	r3, [r3, #0]
10008930:	f001 fb6a 	bl	1000a008 <tusb_init>
10008934:	4825      	ldr	r0, [pc, #148]	; (100089cc <stdio_usb_init+0xbc>)
10008936:	f7fb fdb7 	bl	100044a8 <mutex_init>
1000893a:	2001      	movs	r0, #1
1000893c:	f7fb fd88 	bl	10004450 <user_irq_claim_unused>
10008940:	23ff      	movs	r3, #255	; 0xff
10008942:	4c23      	ldr	r4, [pc, #140]	; (100089d0 <stdio_usb_init+0xc0>)
10008944:	4923      	ldr	r1, [pc, #140]	; (100089d4 <stdio_usb_init+0xc4>)
10008946:	7020      	strb	r0, [r4, #0]
10008948:	4018      	ands	r0, r3
1000894a:	f7fb fb01 	bl	10003f50 <irq_set_exclusive_handler>
1000894e:	7820      	ldrb	r0, [r4, #0]
10008950:	2101      	movs	r1, #1
10008952:	f7fb fac5 	bl	10003ee0 <irq_set_enabled>
10008956:	2005      	movs	r0, #5
10008958:	f7fb fadc 	bl	10003f14 <irq_has_shared_handler>
1000895c:	2800      	cmp	r0, #0
1000895e:	d122      	bne.n	100089a6 <stdio_usb_init+0x96>
10008960:	f7fb ff9c 	bl	1000489c <alarm_pool_get_default>
10008964:	0004      	movs	r4, r0
10008966:	f7fc f9b9 	bl	10004cdc <time_us_64>
1000896a:	22fa      	movs	r2, #250	; 0xfa
1000896c:	2300      	movs	r3, #0
1000896e:	0092      	lsls	r2, r2, #2
10008970:	1812      	adds	r2, r2, r0
10008972:	414b      	adcs	r3, r1
10008974:	2b00      	cmp	r3, #0
10008976:	db22      	blt.n	100089be <stdio_usb_init+0xae>
10008978:	2101      	movs	r1, #1
1000897a:	9102      	str	r1, [sp, #8]
1000897c:	2100      	movs	r1, #0
1000897e:	9101      	str	r1, [sp, #4]
10008980:	4915      	ldr	r1, [pc, #84]	; (100089d8 <stdio_usb_init+0xc8>)
10008982:	0020      	movs	r0, r4
10008984:	9100      	str	r1, [sp, #0]
10008986:	f7fb ff8d 	bl	100048a4 <alarm_pool_add_alarm_at>
1000898a:	2208      	movs	r2, #8
1000898c:	0004      	movs	r4, r0
1000898e:	2100      	movs	r1, #0
10008990:	4812      	ldr	r0, [pc, #72]	; (100089dc <stdio_usb_init+0xcc>)
10008992:	f7ff faa5 	bl	10007ee0 <__wrap_memset>
10008996:	2c00      	cmp	r4, #0
10008998:	dbc5      	blt.n	10008926 <stdio_usb_init+0x16>
1000899a:	4811      	ldr	r0, [pc, #68]	; (100089e0 <stdio_usb_init+0xd0>)
1000899c:	2101      	movs	r1, #1
1000899e:	f7ff fc27 	bl	100081f0 <stdio_set_driver_enabled>
100089a2:	2001      	movs	r0, #1
100089a4:	e7c0      	b.n	10008928 <stdio_usb_init+0x18>
100089a6:	2200      	movs	r2, #0
100089a8:	490e      	ldr	r1, [pc, #56]	; (100089e4 <stdio_usb_init+0xd4>)
100089aa:	2005      	movs	r0, #5
100089ac:	f7fb fafa 	bl	10003fa4 <irq_add_shared_handler>
100089b0:	f7f7 ffcc 	bl	1000094c <next_striped_spin_lock_num>
100089b4:	0001      	movs	r1, r0
100089b6:	4809      	ldr	r0, [pc, #36]	; (100089dc <stdio_usb_init+0xcc>)
100089b8:	f7fb fda2 	bl	10004500 <critical_section_init_with_lock_num>
100089bc:	e7ed      	b.n	1000899a <stdio_usb_init+0x8a>
100089be:	2201      	movs	r2, #1
100089c0:	4b09      	ldr	r3, [pc, #36]	; (100089e8 <stdio_usb_init+0xd8>)
100089c2:	4252      	negs	r2, r2
100089c4:	e7d8      	b.n	10008978 <stdio_usb_init+0x68>
100089c6:	46c0      	nop			; (mov r8, r8)
100089c8:	100426d0 	.word	0x100426d0
100089cc:	20002c48 	.word	0x20002c48
100089d0:	20002c85 	.word	0x20002c85
100089d4:	10008849 	.word	0x10008849
100089d8:	10008665 	.word	0x10008665
100089dc:	20002b18 	.word	0x20002b18
100089e0:	20001138 	.word	0x20001138
100089e4:	10008655 	.word	0x10008655
100089e8:	7fffffff 	.word	0x7fffffff

100089ec <tud_descriptor_device_cb>:
100089ec:	4800      	ldr	r0, [pc, #0]	; (100089f0 <tud_descriptor_device_cb+0x4>)
100089ee:	4770      	bx	lr
100089f0:	10042578 	.word	0x10042578

100089f4 <tud_descriptor_configuration_cb>:
100089f4:	4800      	ldr	r0, [pc, #0]	; (100089f8 <tud_descriptor_configuration_cb+0x4>)
100089f6:	4770      	bx	lr
100089f8:	10042524 	.word	0x10042524

100089fc <tud_descriptor_string_cb>:
100089fc:	b570      	push	{r4, r5, r6, lr}
100089fe:	0004      	movs	r4, r0
10008a00:	4817      	ldr	r0, [pc, #92]	; (10008a60 <tud_descriptor_string_cb+0x64>)
10008a02:	7803      	ldrb	r3, [r0, #0]
10008a04:	2b00      	cmp	r3, #0
10008a06:	d021      	beq.n	10008a4c <tud_descriptor_string_cb+0x50>
10008a08:	2c00      	cmp	r4, #0
10008a0a:	d106      	bne.n	10008a1a <tud_descriptor_string_cb+0x1e>
10008a0c:	24c1      	movs	r4, #193	; 0xc1
10008a0e:	4815      	ldr	r0, [pc, #84]	; (10008a64 <tud_descriptor_string_cb+0x68>)
10008a10:	4b15      	ldr	r3, [pc, #84]	; (10008a68 <tud_descriptor_string_cb+0x6c>)
10008a12:	00a4      	lsls	r4, r4, #2
10008a14:	8043      	strh	r3, [r0, #2]
10008a16:	8004      	strh	r4, [r0, #0]
10008a18:	bd70      	pop	{r4, r5, r6, pc}
10008a1a:	2c05      	cmp	r4, #5
10008a1c:	d81d      	bhi.n	10008a5a <tud_descriptor_string_cb+0x5e>
10008a1e:	4b13      	ldr	r3, [pc, #76]	; (10008a6c <tud_descriptor_string_cb+0x70>)
10008a20:	4810      	ldr	r0, [pc, #64]	; (10008a64 <tud_descriptor_string_cb+0x68>)
10008a22:	00a4      	lsls	r4, r4, #2
10008a24:	58e5      	ldr	r5, [r4, r3]
10008a26:	1c81      	adds	r1, r0, #2
10008a28:	2300      	movs	r3, #0
10008a2a:	e004      	b.n	10008a36 <tud_descriptor_string_cb+0x3a>
10008a2c:	3301      	adds	r3, #1
10008a2e:	800a      	strh	r2, [r1, #0]
10008a30:	3102      	adds	r1, #2
10008a32:	2b13      	cmp	r3, #19
10008a34:	d00e      	beq.n	10008a54 <tud_descriptor_string_cb+0x58>
10008a36:	5cea      	ldrb	r2, [r5, r3]
10008a38:	b2dc      	uxtb	r4, r3
10008a3a:	2a00      	cmp	r2, #0
10008a3c:	d1f6      	bne.n	10008a2c <tud_descriptor_string_cb+0x30>
10008a3e:	23c0      	movs	r3, #192	; 0xc0
10008a40:	3401      	adds	r4, #1
10008a42:	b2e4      	uxtb	r4, r4
10008a44:	0064      	lsls	r4, r4, #1
10008a46:	009b      	lsls	r3, r3, #2
10008a48:	431c      	orrs	r4, r3
10008a4a:	e7e4      	b.n	10008a16 <tud_descriptor_string_cb+0x1a>
10008a4c:	2111      	movs	r1, #17
10008a4e:	f7f7 fdd1 	bl	100005f4 <pico_get_unique_board_id_string>
10008a52:	e7d9      	b.n	10008a08 <tud_descriptor_string_cb+0xc>
10008a54:	24ca      	movs	r4, #202	; 0xca
10008a56:	00a4      	lsls	r4, r4, #2
10008a58:	e7dd      	b.n	10008a16 <tud_descriptor_string_cb+0x1a>
10008a5a:	2000      	movs	r0, #0
10008a5c:	e7dc      	b.n	10008a18 <tud_descriptor_string_cb+0x1c>
10008a5e:	46c0      	nop			; (mov r8, r8)
10008a60:	20002c68 	.word	0x20002c68
10008a64:	200026d8 	.word	0x200026d8
10008a68:	00000409 	.word	0x00000409
10008a6c:	1004258c 	.word	0x1004258c

10008a70 <dcd_int_enable>:
10008a70:	b510      	push	{r4, lr}
10008a72:	2101      	movs	r1, #1
10008a74:	2005      	movs	r0, #5
10008a76:	f7fb fa33 	bl	10003ee0 <irq_set_enabled>
10008a7a:	bd10      	pop	{r4, pc}

10008a7c <dcd_set_address>:
10008a7c:	b510      	push	{r4, lr}
10008a7e:	2200      	movs	r2, #0
10008a80:	2100      	movs	r1, #0
10008a82:	4802      	ldr	r0, [pc, #8]	; (10008a8c <dcd_set_address+0x10>)
10008a84:	f000 f95a 	bl	10008d3c <hw_endpoint_xfer_start>
10008a88:	bd10      	pop	{r4, pc}
10008a8a:	46c0      	nop			; (mov r8, r8)
10008a8c:	2000272c 	.word	0x2000272c

10008a90 <dcd_connect>:
10008a90:	2280      	movs	r2, #128	; 0x80
10008a92:	4b02      	ldr	r3, [pc, #8]	; (10008a9c <dcd_connect+0xc>)
10008a94:	0252      	lsls	r2, r2, #9
10008a96:	64da      	str	r2, [r3, #76]	; 0x4c
10008a98:	4770      	bx	lr
10008a9a:	46c0      	nop			; (mov r8, r8)
10008a9c:	50112000 	.word	0x50112000

10008aa0 <dcd_init>:
10008aa0:	b5f0      	push	{r4, r5, r6, r7, lr}
10008aa2:	46c6      	mov	lr, r8
10008aa4:	b500      	push	{lr}
10008aa6:	0006      	movs	r6, r0
10008aa8:	f000 f922 	bl	10008cf0 <rp2040_usb_init>
10008aac:	230c      	movs	r3, #12
10008aae:	4d1b      	ldr	r5, [pc, #108]	; (10008b1c <dcd_init+0x7c>)
10008ab0:	22ff      	movs	r2, #255	; 0xff
10008ab2:	67ab      	str	r3, [r5, #120]	; 0x78
10008ab4:	2005      	movs	r0, #5
10008ab6:	491a      	ldr	r1, [pc, #104]	; (10008b20 <dcd_init+0x80>)
10008ab8:	f7fb fa74 	bl	10003fa4 <irq_add_shared_handler>
10008abc:	2340      	movs	r3, #64	; 0x40
10008abe:	4698      	mov	r8, r3
10008ac0:	4c18      	ldr	r4, [pc, #96]	; (10008b24 <dcd_init+0x84>)
10008ac2:	2240      	movs	r2, #64	; 0x40
10008ac4:	2100      	movs	r1, #0
10008ac6:	0020      	movs	r0, r4
10008ac8:	f7ff fa0a 	bl	10007ee0 <__wrap_memset>
10008acc:	4643      	mov	r3, r8
10008ace:	2701      	movs	r7, #1
10008ad0:	8323      	strh	r3, [r4, #24]
10008ad2:	2121      	movs	r1, #33	; 0x21
10008ad4:	2300      	movs	r3, #0
10008ad6:	4a14      	ldr	r2, [pc, #80]	; (10008b28 <dcd_init+0x88>)
10008ad8:	7067      	strb	r7, [r4, #1]
10008ada:	60a2      	str	r2, [r4, #8]
10008adc:	6013      	str	r3, [r2, #0]
10008ade:	5463      	strb	r3, [r4, r1]
10008ae0:	315f      	adds	r1, #95	; 0x5f
10008ae2:	8461      	strh	r1, [r4, #34]	; 0x22
10008ae4:	4641      	mov	r1, r8
10008ae6:	8721      	strh	r1, [r4, #56]	; 0x38
10008ae8:	3905      	subs	r1, #5
10008aea:	5463      	strb	r3, [r4, r1]
10008aec:	4a0f      	ldr	r2, [pc, #60]	; (10008b2c <dcd_init+0x8c>)
10008aee:	4910      	ldr	r1, [pc, #64]	; (10008b30 <dcd_init+0x90>)
10008af0:	6063      	str	r3, [r4, #4]
10008af2:	60e2      	str	r2, [r4, #12]
10008af4:	62a1      	str	r1, [r4, #40]	; 0x28
10008af6:	600b      	str	r3, [r1, #0]
10008af8:	6263      	str	r3, [r4, #36]	; 0x24
10008afa:	62e2      	str	r2, [r4, #44]	; 0x2c
10008afc:	f001 fe64 	bl	1000a7c8 <__reset_non_control_endpoints_veneer>
10008b00:	2380      	movs	r3, #128	; 0x80
10008b02:	059b      	lsls	r3, r3, #22
10008b04:	642f      	str	r7, [r5, #64]	; 0x40
10008b06:	64eb      	str	r3, [r5, #76]	; 0x4c
10008b08:	2390      	movs	r3, #144	; 0x90
10008b0a:	4a0a      	ldr	r2, [pc, #40]	; (10008b34 <dcd_init+0x94>)
10008b0c:	0030      	movs	r0, r6
10008b0e:	50ea      	str	r2, [r5, r3]
10008b10:	f7ff ffbe 	bl	10008a90 <dcd_connect>
10008b14:	bc80      	pop	{r7}
10008b16:	46b8      	mov	r8, r7
10008b18:	bdf0      	pop	{r4, r5, r6, r7, pc}
10008b1a:	46c0      	nop			; (mov r8, r8)
10008b1c:	50110000 	.word	0x50110000
10008b20:	20000699 	.word	0x20000699
10008b24:	2000270c 	.word	0x2000270c
10008b28:	50100084 	.word	0x50100084
10008b2c:	50100100 	.word	0x50100100
10008b30:	50100080 	.word	0x50100080
10008b34:	0001d010 	.word	0x0001d010

10008b38 <dcd_edpt0_status_complete>:
10008b38:	780b      	ldrb	r3, [r1, #0]
10008b3a:	065b      	lsls	r3, r3, #25
10008b3c:	d102      	bne.n	10008b44 <dcd_edpt0_status_complete+0xc>
10008b3e:	784b      	ldrb	r3, [r1, #1]
10008b40:	2b05      	cmp	r3, #5
10008b42:	d000      	beq.n	10008b46 <dcd_edpt0_status_complete+0xe>
10008b44:	4770      	bx	lr
10008b46:	788a      	ldrb	r2, [r1, #2]
10008b48:	4b01      	ldr	r3, [pc, #4]	; (10008b50 <dcd_edpt0_status_complete+0x18>)
10008b4a:	601a      	str	r2, [r3, #0]
10008b4c:	e7fa      	b.n	10008b44 <dcd_edpt0_status_complete+0xc>
10008b4e:	46c0      	nop			; (mov r8, r8)
10008b50:	50110000 	.word	0x50110000

10008b54 <dcd_edpt_open>:
10008b54:	b5f0      	push	{r4, r5, r6, r7, lr}
10008b56:	46c6      	mov	lr, r8
10008b58:	b500      	push	{lr}
10008b5a:	794b      	ldrb	r3, [r1, #5]
10008b5c:	790c      	ldrb	r4, [r1, #4]
10008b5e:	021b      	lsls	r3, r3, #8
10008b60:	7888      	ldrb	r0, [r1, #2]
10008b62:	4323      	orrs	r3, r4
10008b64:	78cc      	ldrb	r4, [r1, #3]
10008b66:	217f      	movs	r1, #127	; 0x7f
10008b68:	07a4      	lsls	r4, r4, #30
10008b6a:	4001      	ands	r1, r0
10008b6c:	09c5      	lsrs	r5, r0, #7
10008b6e:	0fa2      	lsrs	r2, r4, #30
10008b70:	004f      	lsls	r7, r1, #1
10008b72:	0014      	movs	r4, r2
10008b74:	4e32      	ldr	r6, [pc, #200]	; (10008c40 <dcd_edpt_open+0xec>)
10008b76:	197a      	adds	r2, r7, r5
10008b78:	0152      	lsls	r2, r2, #5
10008b7a:	18b2      	adds	r2, r6, r2
10008b7c:	7090      	strb	r0, [r2, #2]
10008b7e:	2001      	movs	r0, #1
10008b80:	4068      	eors	r0, r5
10008b82:	7050      	strb	r0, [r2, #1]
10008b84:	2000      	movs	r0, #0
10008b86:	055b      	lsls	r3, r3, #21
10008b88:	0d5b      	lsrs	r3, r3, #21
10008b8a:	70d0      	strb	r0, [r2, #3]
10008b8c:	8313      	strh	r3, [r2, #24]
10008b8e:	76d4      	strb	r4, [r2, #27]
10008b90:	4680      	mov	r8, r0
10008b92:	00ca      	lsls	r2, r1, #3
10008b94:	2d01      	cmp	r5, #1
10008b96:	d033      	beq.n	10008c00 <dcd_edpt_open+0xac>
10008b98:	482a      	ldr	r0, [pc, #168]	; (10008c44 <dcd_edpt_open+0xf0>)
10008b9a:	4684      	mov	ip, r0
10008b9c:	0188      	lsls	r0, r1, #6
10008b9e:	4462      	add	r2, ip
10008ba0:	4684      	mov	ip, r0
10008ba2:	44b4      	add	ip, r6
10008ba4:	4660      	mov	r0, ip
10008ba6:	6082      	str	r2, [r0, #8]
10008ba8:	4640      	mov	r0, r8
10008baa:	6010      	str	r0, [r2, #0]
10008bac:	2900      	cmp	r1, #0
10008bae:	d033      	beq.n	10008c18 <dcd_edpt_open+0xc4>
10008bb0:	4a25      	ldr	r2, [pc, #148]	; (10008c48 <dcd_edpt_open+0xf4>)
10008bb2:	00c9      	lsls	r1, r1, #3
10008bb4:	4690      	mov	r8, r2
10008bb6:	4662      	mov	r2, ip
10008bb8:	4441      	add	r1, r8
10008bba:	6051      	str	r1, [r2, #4]
10008bbc:	223f      	movs	r2, #63	; 0x3f
10008bbe:	333f      	adds	r3, #63	; 0x3f
10008bc0:	4393      	bics	r3, r2
10008bc2:	2c02      	cmp	r4, #2
10008bc4:	d100      	bne.n	10008bc8 <dcd_edpt_open+0x74>
10008bc6:	005b      	lsls	r3, r3, #1
10008bc8:	4820      	ldr	r0, [pc, #128]	; (10008c4c <dcd_edpt_open+0xf8>)
10008bca:	197a      	adds	r2, r7, r5
10008bcc:	6801      	ldr	r1, [r0, #0]
10008bce:	0152      	lsls	r2, r2, #5
10008bd0:	18b2      	adds	r2, r6, r2
10008bd2:	60d1      	str	r1, [r2, #12]
10008bd4:	4a1e      	ldr	r2, [pc, #120]	; (10008c50 <dcd_edpt_open+0xfc>)
10008bd6:	18cb      	adds	r3, r1, r3
10008bd8:	6003      	str	r3, [r0, #0]
10008bda:	4051      	eors	r1, r2
10008bdc:	4053      	eors	r3, r2
10008bde:	2280      	movs	r2, #128	; 0x80
10008be0:	4688      	mov	r8, r1
10008be2:	0152      	lsls	r2, r2, #5
10008be4:	4293      	cmp	r3, r2
10008be6:	d828      	bhi.n	10008c3a <dcd_edpt_open+0xe6>
10008be8:	4643      	mov	r3, r8
10008bea:	06a4      	lsls	r4, r4, #26
10008bec:	431c      	orrs	r4, r3
10008bee:	2380      	movs	r3, #128	; 0x80
10008bf0:	197f      	adds	r7, r7, r5
10008bf2:	017f      	lsls	r7, r7, #5
10008bf4:	061b      	lsls	r3, r3, #24
10008bf6:	19f6      	adds	r6, r6, r7
10008bf8:	431c      	orrs	r4, r3
10008bfa:	6873      	ldr	r3, [r6, #4]
10008bfc:	601c      	str	r4, [r3, #0]
10008bfe:	e011      	b.n	10008c24 <dcd_edpt_open+0xd0>
10008c00:	4814      	ldr	r0, [pc, #80]	; (10008c54 <dcd_edpt_open+0x100>)
10008c02:	4684      	mov	ip, r0
10008c04:	0188      	lsls	r0, r1, #6
10008c06:	4462      	add	r2, ip
10008c08:	4684      	mov	ip, r0
10008c0a:	44b4      	add	ip, r6
10008c0c:	4660      	mov	r0, ip
10008c0e:	6282      	str	r2, [r0, #40]	; 0x28
10008c10:	4640      	mov	r0, r8
10008c12:	6010      	str	r0, [r2, #0]
10008c14:	2900      	cmp	r1, #0
10008c16:	d109      	bne.n	10008c2c <dcd_edpt_open+0xd8>
10008c18:	2300      	movs	r3, #0
10008c1a:	016d      	lsls	r5, r5, #5
10008c1c:	1976      	adds	r6, r6, r5
10008c1e:	6073      	str	r3, [r6, #4]
10008c20:	4b0d      	ldr	r3, [pc, #52]	; (10008c58 <dcd_edpt_open+0x104>)
10008c22:	60f3      	str	r3, [r6, #12]
10008c24:	2001      	movs	r0, #1
10008c26:	bc80      	pop	{r7}
10008c28:	46b8      	mov	r8, r7
10008c2a:	bdf0      	pop	{r4, r5, r6, r7, pc}
10008c2c:	4a08      	ldr	r2, [pc, #32]	; (10008c50 <dcd_edpt_open+0xfc>)
10008c2e:	00c9      	lsls	r1, r1, #3
10008c30:	4690      	mov	r8, r2
10008c32:	4662      	mov	r2, ip
10008c34:	4441      	add	r1, r8
10008c36:	6251      	str	r1, [r2, #36]	; 0x24
10008c38:	e7c0      	b.n	10008bbc <dcd_edpt_open+0x68>
10008c3a:	f7fd fa65 	bl	10006108 <hard_assertion_failure>
10008c3e:	e7d3      	b.n	10008be8 <dcd_edpt_open+0x94>
10008c40:	2000270c 	.word	0x2000270c
10008c44:	50100084 	.word	0x50100084
10008c48:	50100004 	.word	0x50100004
10008c4c:	20002b14 	.word	0x20002b14
10008c50:	50100000 	.word	0x50100000
10008c54:	50100080 	.word	0x50100080
10008c58:	50100100 	.word	0x50100100

10008c5c <dcd_edpt_close_all>:
10008c5c:	b510      	push	{r4, lr}
10008c5e:	f001 fdb3 	bl	1000a7c8 <__reset_non_control_endpoints_veneer>
10008c62:	bd10      	pop	{r4, pc}

10008c64 <dcd_edpt_xfer>:
10008c64:	b510      	push	{r4, lr}
10008c66:	207f      	movs	r0, #127	; 0x7f
10008c68:	000c      	movs	r4, r1
10008c6a:	4020      	ands	r0, r4
10008c6c:	0040      	lsls	r0, r0, #1
10008c6e:	09e4      	lsrs	r4, r4, #7
10008c70:	0011      	movs	r1, r2
10008c72:	1900      	adds	r0, r0, r4
10008c74:	001a      	movs	r2, r3
10008c76:	4b03      	ldr	r3, [pc, #12]	; (10008c84 <dcd_edpt_xfer+0x20>)
10008c78:	0140      	lsls	r0, r0, #5
10008c7a:	18c0      	adds	r0, r0, r3
10008c7c:	f000 f85e 	bl	10008d3c <hw_endpoint_xfer_start>
10008c80:	2001      	movs	r0, #1
10008c82:	bd10      	pop	{r4, pc}
10008c84:	2000270c 	.word	0x2000270c

10008c88 <dcd_edpt_stall>:
10008c88:	227f      	movs	r2, #127	; 0x7f
10008c8a:	0013      	movs	r3, r2
10008c8c:	b510      	push	{r4, lr}
10008c8e:	400b      	ands	r3, r1
10008c90:	420a      	tst	r2, r1
10008c92:	d00b      	beq.n	10008cac <dcd_edpt_stall+0x24>
10008c94:	09c9      	lsrs	r1, r1, #7
10008c96:	2280      	movs	r2, #128	; 0x80
10008c98:	0058      	lsls	r0, r3, #1
10008c9a:	1840      	adds	r0, r0, r1
10008c9c:	4906      	ldr	r1, [pc, #24]	; (10008cb8 <dcd_edpt_stall+0x30>)
10008c9e:	0140      	lsls	r0, r0, #5
10008ca0:	1840      	adds	r0, r0, r1
10008ca2:	0112      	lsls	r2, r2, #4
10008ca4:	2100      	movs	r1, #0
10008ca6:	f001 fdc7 	bl	1000a838 <___hw_endpoint_buffer_control_update32_veneer>
10008caa:	bd10      	pop	{r4, pc}
10008cac:	2202      	movs	r2, #2
10008cae:	4803      	ldr	r0, [pc, #12]	; (10008cbc <dcd_edpt_stall+0x34>)
10008cb0:	09c9      	lsrs	r1, r1, #7
10008cb2:	1a52      	subs	r2, r2, r1
10008cb4:	6682      	str	r2, [r0, #104]	; 0x68
10008cb6:	e7ee      	b.n	10008c96 <dcd_edpt_stall+0xe>
10008cb8:	2000270c 	.word	0x2000270c
10008cbc:	50112000 	.word	0x50112000

10008cc0 <dcd_edpt_clear_stall>:
10008cc0:	227f      	movs	r2, #127	; 0x7f
10008cc2:	0010      	movs	r0, r2
10008cc4:	b510      	push	{r4, lr}
10008cc6:	4008      	ands	r0, r1
10008cc8:	420a      	tst	r2, r1
10008cca:	d100      	bne.n	10008cce <dcd_edpt_clear_stall+0xe>
10008ccc:	bd10      	pop	{r4, pc}
10008cce:	2300      	movs	r3, #0
10008cd0:	09c9      	lsrs	r1, r1, #7
10008cd2:	0040      	lsls	r0, r0, #1
10008cd4:	1840      	adds	r0, r0, r1
10008cd6:	4904      	ldr	r1, [pc, #16]	; (10008ce8 <dcd_edpt_clear_stall+0x28>)
10008cd8:	0140      	lsls	r0, r0, #5
10008cda:	1808      	adds	r0, r1, r0
10008cdc:	2200      	movs	r2, #0
10008cde:	4903      	ldr	r1, [pc, #12]	; (10008cec <dcd_edpt_clear_stall+0x2c>)
10008ce0:	70c3      	strb	r3, [r0, #3]
10008ce2:	f001 fda9 	bl	1000a838 <___hw_endpoint_buffer_control_update32_veneer>
10008ce6:	e7f1      	b.n	10008ccc <dcd_edpt_clear_stall+0xc>
10008ce8:	2000270c 	.word	0x2000270c
10008cec:	fffff7ff 	.word	0xfffff7ff

10008cf0 <rp2040_usb_init>:
10008cf0:	2280      	movs	r2, #128	; 0x80
10008cf2:	4b0d      	ldr	r3, [pc, #52]	; (10008d28 <rp2040_usb_init+0x38>)
10008cf4:	0452      	lsls	r2, r2, #17
10008cf6:	b510      	push	{r4, lr}
10008cf8:	601a      	str	r2, [r3, #0]
10008cfa:	4b0c      	ldr	r3, [pc, #48]	; (10008d2c <rp2040_usb_init+0x3c>)
10008cfc:	490c      	ldr	r1, [pc, #48]	; (10008d30 <rp2040_usb_init+0x40>)
10008cfe:	601a      	str	r2, [r3, #0]
10008d00:	0010      	movs	r0, r2
10008d02:	688b      	ldr	r3, [r1, #8]
10008d04:	4398      	bics	r0, r3
10008d06:	d1fb      	bne.n	10008d00 <rp2040_usb_init+0x10>
10008d08:	4c0a      	ldr	r4, [pc, #40]	; (10008d34 <rp2040_usb_init+0x44>)
10008d0a:	229c      	movs	r2, #156	; 0x9c
10008d0c:	2100      	movs	r1, #0
10008d0e:	0020      	movs	r0, r4
10008d10:	f7ff f8e6 	bl	10007ee0 <__wrap_memset>
10008d14:	2280      	movs	r2, #128	; 0x80
10008d16:	2100      	movs	r1, #0
10008d18:	0152      	lsls	r2, r2, #5
10008d1a:	4807      	ldr	r0, [pc, #28]	; (10008d38 <rp2040_usb_init+0x48>)
10008d1c:	f7ff f8e0 	bl	10007ee0 <__wrap_memset>
10008d20:	2309      	movs	r3, #9
10008d22:	6763      	str	r3, [r4, #116]	; 0x74
10008d24:	bd10      	pop	{r4, pc}
10008d26:	46c0      	nop			; (mov r8, r8)
10008d28:	4000e000 	.word	0x4000e000
10008d2c:	4000f000 	.word	0x4000f000
10008d30:	4000c000 	.word	0x4000c000
10008d34:	50110000 	.word	0x50110000
10008d38:	50100000 	.word	0x50100000

10008d3c <hw_endpoint_xfer_start>:
10008d3c:	b570      	push	{r4, r5, r6, lr}
10008d3e:	7e83      	ldrb	r3, [r0, #26]
10008d40:	0004      	movs	r4, r0
10008d42:	000d      	movs	r5, r1
10008d44:	0016      	movs	r6, r2
10008d46:	2b00      	cmp	r3, #0
10008d48:	d117      	bne.n	10008d7a <hw_endpoint_xfer_start+0x3e>
10008d4a:	2300      	movs	r3, #0
10008d4c:	82e3      	strh	r3, [r4, #22]
10008d4e:	3301      	adds	r3, #1
10008d50:	0020      	movs	r0, r4
10008d52:	82a6      	strh	r6, [r4, #20]
10008d54:	76a3      	strb	r3, [r4, #26]
10008d56:	6125      	str	r5, [r4, #16]
10008d58:	f001 fd66 	bl	1000a828 <__e15_is_bulkin_ep_veneer>
10008d5c:	2800      	cmp	r0, #0
10008d5e:	d004      	beq.n	10008d6a <hw_endpoint_xfer_start+0x2e>
10008d60:	2180      	movs	r1, #128	; 0x80
10008d62:	2390      	movs	r3, #144	; 0x90
10008d64:	4a08      	ldr	r2, [pc, #32]	; (10008d88 <hw_endpoint_xfer_start+0x4c>)
10008d66:	0289      	lsls	r1, r1, #10
10008d68:	50d1      	str	r1, [r2, r3]
10008d6a:	0020      	movs	r0, r4
10008d6c:	f001 fd4c 	bl	1000a808 <__e15_is_critical_frame_period_veneer>
10008d70:	2800      	cmp	r0, #0
10008d72:	d005      	beq.n	10008d80 <hw_endpoint_xfer_start+0x44>
10008d74:	2301      	movs	r3, #1
10008d76:	7723      	strb	r3, [r4, #28]
10008d78:	bd70      	pop	{r4, r5, r6, pc}
10008d7a:	f001 fd4d 	bl	1000a818 <__hw_endpoint_reset_transfer_veneer>
10008d7e:	e7e4      	b.n	10008d4a <hw_endpoint_xfer_start+0xe>
10008d80:	0020      	movs	r0, r4
10008d82:	f001 fd31 	bl	1000a7e8 <__hw_endpoint_start_next_buffer_veneer>
10008d86:	e7f7      	b.n	10008d78 <hw_endpoint_xfer_start+0x3c>
10008d88:	50112000 	.word	0x50112000

10008d8c <tud_mounted>:
10008d8c:	4b02      	ldr	r3, [pc, #8]	; (10008d98 <tud_mounted+0xc>)
10008d8e:	7858      	ldrb	r0, [r3, #1]
10008d90:	1e43      	subs	r3, r0, #1
10008d92:	4198      	sbcs	r0, r3
10008d94:	b2c0      	uxtb	r0, r0
10008d96:	4770      	bx	lr
10008d98:	2000172c 	.word	0x2000172c

10008d9c <tud_suspended>:
10008d9c:	4b02      	ldr	r3, [pc, #8]	; (10008da8 <tud_suspended+0xc>)
10008d9e:	7818      	ldrb	r0, [r3, #0]
10008da0:	0740      	lsls	r0, r0, #29
10008da2:	0fc0      	lsrs	r0, r0, #31
10008da4:	4770      	bx	lr
10008da6:	46c0      	nop			; (mov r8, r8)
10008da8:	2000172c 	.word	0x2000172c

10008dac <tud_inited>:
10008dac:	4b03      	ldr	r3, [pc, #12]	; (10008dbc <tud_inited+0x10>)
10008dae:	7818      	ldrb	r0, [r3, #0]
10008db0:	38ff      	subs	r0, #255	; 0xff
10008db2:	1e43      	subs	r3, r0, #1
10008db4:	4198      	sbcs	r0, r3
10008db6:	b2c0      	uxtb	r0, r0
10008db8:	4770      	bx	lr
10008dba:	46c0      	nop			; (mov r8, r8)
10008dbc:	20001174 	.word	0x20001174

10008dc0 <tud_init>:
10008dc0:	b5f8      	push	{r3, r4, r5, r6, r7, lr}
10008dc2:	46ce      	mov	lr, r9
10008dc4:	4647      	mov	r7, r8
10008dc6:	b580      	push	{r7, lr}
10008dc8:	4e2c      	ldr	r6, [pc, #176]	; (10008e7c <tud_init+0xbc>)
10008dca:	0005      	movs	r5, r0
10008dcc:	7833      	ldrb	r3, [r6, #0]
10008dce:	2001      	movs	r0, #1
10008dd0:	2bff      	cmp	r3, #255	; 0xff
10008dd2:	d003      	beq.n	10008ddc <tud_init+0x1c>
10008dd4:	bcc0      	pop	{r6, r7}
10008dd6:	46b9      	mov	r9, r7
10008dd8:	46b0      	mov	r8, r6
10008dda:	bdf8      	pop	{r3, r4, r5, r6, r7, pc}
10008ddc:	2253      	movs	r2, #83	; 0x53
10008dde:	2100      	movs	r1, #0
10008de0:	4827      	ldr	r0, [pc, #156]	; (10008e80 <tud_init+0xc0>)
10008de2:	f7ff f87d 	bl	10007ee0 <__wrap_memset>
10008de6:	4c27      	ldr	r4, [pc, #156]	; (10008e84 <tud_init+0xc4>)
10008de8:	0020      	movs	r0, r4
10008dea:	f7fb fb5d 	bl	100044a8 <mutex_init>
10008dee:	4b26      	ldr	r3, [pc, #152]	; (10008e88 <tud_init+0xc8>)
10008df0:	601c      	str	r4, [r3, #0]
10008df2:	4c26      	ldr	r4, [pc, #152]	; (10008e8c <tud_init+0xcc>)
10008df4:	0020      	movs	r0, r4
10008df6:	3014      	adds	r0, #20
10008df8:	f7fb fb72 	bl	100044e0 <critical_section_init>
10008dfc:	0020      	movs	r0, r4
10008dfe:	f001 fbd1 	bl	1000a5a4 <tu_fifo_clear>
10008e02:	4b23      	ldr	r3, [pc, #140]	; (10008e90 <tud_init+0xd0>)
10008e04:	4f23      	ldr	r7, [pc, #140]	; (10008e94 <tud_init+0xd4>)
10008e06:	601c      	str	r4, [r3, #0]
10008e08:	4b23      	ldr	r3, [pc, #140]	; (10008e98 <tud_init+0xd8>)
10008e0a:	4698      	mov	r8, r3
10008e0c:	2b00      	cmp	r3, #0
10008e0e:	d004      	beq.n	10008e1a <tud_init+0x5a>
10008e10:	0038      	movs	r0, r7
10008e12:	f7ff fbf5 	bl	10008600 <usbd_app_driver_get_cb>
10008e16:	4b21      	ldr	r3, [pc, #132]	; (10008e9c <tud_init+0xdc>)
10008e18:	6018      	str	r0, [r3, #0]
10008e1a:	4642      	mov	r2, r8
10008e1c:	2400      	movs	r4, #0
10008e1e:	783b      	ldrb	r3, [r7, #0]
10008e20:	2a00      	cmp	r2, #0
10008e22:	d023      	beq.n	10008e6c <tud_init+0xac>
10008e24:	4a1e      	ldr	r2, [pc, #120]	; (10008ea0 <tud_init+0xe0>)
10008e26:	4690      	mov	r8, r2
10008e28:	4a1c      	ldr	r2, [pc, #112]	; (10008e9c <tud_init+0xdc>)
10008e2a:	4691      	mov	r9, r2
10008e2c:	42a3      	cmp	r3, r4
10008e2e:	d812      	bhi.n	10008e56 <tud_init+0x96>
10008e30:	d10f      	bne.n	10008e52 <tud_init+0x92>
10008e32:	4643      	mov	r3, r8
10008e34:	4798      	blx	r3
10008e36:	3401      	adds	r4, #1
10008e38:	783b      	ldrb	r3, [r7, #0]
10008e3a:	b2e4      	uxtb	r4, r4
10008e3c:	42a3      	cmp	r3, r4
10008e3e:	d2f5      	bcs.n	10008e2c <tud_init+0x6c>
10008e40:	0028      	movs	r0, r5
10008e42:	7035      	strb	r5, [r6, #0]
10008e44:	f7ff fe2c 	bl	10008aa0 <dcd_init>
10008e48:	0028      	movs	r0, r5
10008e4a:	f7ff fe11 	bl	10008a70 <dcd_int_enable>
10008e4e:	2001      	movs	r0, #1
10008e50:	e7c0      	b.n	10008dd4 <tud_init+0x14>
10008e52:	2000      	movs	r0, #0
10008e54:	e7be      	b.n	10008dd4 <tud_init+0x14>
10008e56:	464a      	mov	r2, r9
10008e58:	6812      	ldr	r2, [r2, #0]
10008e5a:	0063      	lsls	r3, r4, #1
10008e5c:	4694      	mov	ip, r2
10008e5e:	191b      	adds	r3, r3, r4
10008e60:	00db      	lsls	r3, r3, #3
10008e62:	4463      	add	r3, ip
10008e64:	2b00      	cmp	r3, #0
10008e66:	d0f4      	beq.n	10008e52 <tud_init+0x92>
10008e68:	681b      	ldr	r3, [r3, #0]
10008e6a:	e7e3      	b.n	10008e34 <tud_init+0x74>
10008e6c:	f000 feee 	bl	10009c4c <cdcd_init>
10008e70:	783b      	ldrb	r3, [r7, #0]
10008e72:	2000      	movs	r0, #0
10008e74:	2b00      	cmp	r3, #0
10008e76:	d1ad      	bne.n	10008dd4 <tud_init+0x14>
10008e78:	e7e2      	b.n	10008e40 <tud_init+0x80>
10008e7a:	46c0      	nop			; (mov r8, r8)
10008e7c:	20001174 	.word	0x20001174
10008e80:	2000172c 	.word	0x2000172c
10008e84:	200016e4 	.word	0x200016e4
10008e88:	20001780 	.word	0x20001780
10008e8c:	20001158 	.word	0x20001158
10008e90:	20001784 	.word	0x20001784
10008e94:	20002c7e 	.word	0x20002c7e
10008e98:	10008601 	.word	0x10008601
10008e9c:	20001404 	.word	0x20001404
10008ea0:	10009c4d 	.word	0x10009c4d

10008ea4 <tud_task_ext>:
10008ea4:	b5f0      	push	{r4, r5, r6, r7, lr}
10008ea6:	46de      	mov	lr, fp
10008ea8:	4657      	mov	r7, sl
10008eaa:	464e      	mov	r6, r9
10008eac:	4645      	mov	r5, r8
10008eae:	b5e0      	push	{r5, r6, r7, lr}
10008eb0:	b08b      	sub	sp, #44	; 0x2c
10008eb2:	f001 f8af 	bl	1000a014 <tusb_inited>
10008eb6:	2800      	cmp	r0, #0
10008eb8:	d100      	bne.n	10008ebc <tud_task_ext+0x18>
10008eba:	e10f      	b.n	100090dc <tud_task_ext+0x238>
10008ebc:	4bcd      	ldr	r3, [pc, #820]	; (100091f4 <tud_task_ext+0x350>)
10008ebe:	4dce      	ldr	r5, [pc, #824]	; (100091f8 <tud_task_ext+0x354>)
10008ec0:	4699      	mov	r9, r3
10008ec2:	4bce      	ldr	r3, [pc, #824]	; (100091fc <tud_task_ext+0x358>)
10008ec4:	ac07      	add	r4, sp, #28
10008ec6:	469b      	mov	fp, r3
10008ec8:	682e      	ldr	r6, [r5, #0]
10008eca:	6972      	ldr	r2, [r6, #20]
10008ecc:	f3ef 8110 	mrs	r1, PRIMASK
10008ed0:	b672      	cpsid	i
10008ed2:	6813      	ldr	r3, [r2, #0]
10008ed4:	2b00      	cmp	r3, #0
10008ed6:	d0fc      	beq.n	10008ed2 <tud_task_ext+0x2e>
10008ed8:	f3bf 8f5f 	dmb	sy
10008edc:	61b1      	str	r1, [r6, #24]
10008ede:	0030      	movs	r0, r6
10008ee0:	0021      	movs	r1, r4
10008ee2:	f001 f9a1 	bl	1000a228 <tu_fifo_read>
10008ee6:	6972      	ldr	r2, [r6, #20]
10008ee8:	69b3      	ldr	r3, [r6, #24]
10008eea:	f3bf 8f5f 	dmb	sy
10008eee:	2100      	movs	r1, #0
10008ef0:	6011      	str	r1, [r2, #0]
10008ef2:	f383 8810 	msr	PRIMASK, r3
10008ef6:	2800      	cmp	r0, #0
10008ef8:	d100      	bne.n	10008efc <tud_task_ext+0x58>
10008efa:	e0ef      	b.n	100090dc <tud_task_ext+0x238>
10008efc:	7863      	ldrb	r3, [r4, #1]
10008efe:	2b08      	cmp	r3, #8
10008f00:	d8e2      	bhi.n	10008ec8 <tud_task_ext+0x24>
10008f02:	464a      	mov	r2, r9
10008f04:	009b      	lsls	r3, r3, #2
10008f06:	58d3      	ldr	r3, [r2, r3]
10008f08:	469f      	mov	pc, r3
10008f0a:	6863      	ldr	r3, [r4, #4]
10008f0c:	2b00      	cmp	r3, #0
10008f0e:	d0db      	beq.n	10008ec8 <tud_task_ext+0x24>
10008f10:	68a0      	ldr	r0, [r4, #8]
10008f12:	4798      	blx	r3
10008f14:	e7d8      	b.n	10008ec8 <tud_task_ext+0x24>
10008f16:	227f      	movs	r2, #127	; 0x7f
10008f18:	7921      	ldrb	r1, [r4, #4]
10008f1a:	4eb8      	ldr	r6, [pc, #736]	; (100091fc <tud_task_ext+0x358>)
10008f1c:	400a      	ands	r2, r1
10008f1e:	0050      	lsls	r0, r2, #1
10008f20:	09cb      	lsrs	r3, r1, #7
10008f22:	1836      	adds	r6, r6, r0
10008f24:	18f6      	adds	r6, r6, r3
10008f26:	0030      	movs	r0, r6
10008f28:	2701      	movs	r7, #1
10008f2a:	3030      	adds	r0, #48	; 0x30
10008f2c:	78c3      	ldrb	r3, [r0, #3]
10008f2e:	43bb      	bics	r3, r7
10008f30:	70c3      	strb	r3, [r0, #3]
10008f32:	78c3      	ldrb	r3, [r0, #3]
10008f34:	3703      	adds	r7, #3
10008f36:	43bb      	bics	r3, r7
10008f38:	70c3      	strb	r3, [r0, #3]
10008f3a:	2a00      	cmp	r2, #0
10008f3c:	d100      	bne.n	10008f40 <tud_task_ext+0x9c>
10008f3e:	e0f2      	b.n	10009126 <tud_task_ext+0x282>
10008f40:	4aaf      	ldr	r2, [pc, #700]	; (10009200 <tud_task_ext+0x35c>)
10008f42:	7cf3      	ldrb	r3, [r6, #19]
10008f44:	2a00      	cmp	r2, #0
10008f46:	d006      	beq.n	10008f56 <tud_task_ext+0xb2>
10008f48:	4aae      	ldr	r2, [pc, #696]	; (10009204 <tud_task_ext+0x360>)
10008f4a:	7812      	ldrb	r2, [r2, #0]
10008f4c:	4293      	cmp	r3, r2
10008f4e:	d200      	bcs.n	10008f52 <tud_task_ext+0xae>
10008f50:	e144      	b.n	100091dc <tud_task_ext+0x338>
10008f52:	1a9b      	subs	r3, r3, r2
10008f54:	b2db      	uxtb	r3, r3
10008f56:	2b00      	cmp	r3, #0
10008f58:	d000      	beq.n	10008f5c <tud_task_ext+0xb8>
10008f5a:	e0bf      	b.n	100090dc <tud_task_ext+0x238>
10008f5c:	4eaa      	ldr	r6, [pc, #680]	; (10009208 <tud_task_ext+0x364>)
10008f5e:	7962      	ldrb	r2, [r4, #5]
10008f60:	7820      	ldrb	r0, [r4, #0]
10008f62:	68a3      	ldr	r3, [r4, #8]
10008f64:	47b0      	blx	r6
10008f66:	e7af      	b.n	10008ec8 <tud_task_ext+0x24>
10008f68:	465b      	mov	r3, fp
10008f6a:	2201      	movs	r2, #1
10008f6c:	781b      	ldrb	r3, [r3, #0]
10008f6e:	2101      	movs	r1, #1
10008f70:	4313      	orrs	r3, r2
10008f72:	465a      	mov	r2, fp
10008f74:	7013      	strb	r3, [r2, #0]
10008f76:	2333      	movs	r3, #51	; 0x33
10008f78:	4658      	mov	r0, fp
10008f7a:	5cd2      	ldrb	r2, [r2, r3]
10008f7c:	465e      	mov	r6, fp
10008f7e:	438a      	bics	r2, r1
10008f80:	54c2      	strb	r2, [r0, r3]
10008f82:	5cc2      	ldrb	r2, [r0, r3]
10008f84:	2004      	movs	r0, #4
10008f86:	4382      	bics	r2, r0
10008f88:	54f2      	strb	r2, [r6, r3]
10008f8a:	3301      	adds	r3, #1
10008f8c:	5cf2      	ldrb	r2, [r6, r3]
10008f8e:	438a      	bics	r2, r1
10008f90:	54f2      	strb	r2, [r6, r3]
10008f92:	5cf2      	ldrb	r2, [r6, r3]
10008f94:	4382      	bics	r2, r0
10008f96:	54f2      	strb	r2, [r6, r3]
10008f98:	7823      	ldrb	r3, [r4, #0]
10008f9a:	2000      	movs	r0, #0
10008f9c:	469a      	mov	sl, r3
10008f9e:	f000 fd05 	bl	100099ac <usbd_control_set_complete_callback>
10008fa2:	2260      	movs	r2, #96	; 0x60
10008fa4:	7923      	ldrb	r3, [r4, #4]
10008fa6:	401a      	ands	r2, r3
10008fa8:	2a60      	cmp	r2, #96	; 0x60
10008faa:	d00d      	beq.n	10008fc8 <tud_task_ext+0x124>
10008fac:	2a40      	cmp	r2, #64	; 0x40
10008fae:	d100      	bne.n	10008fb2 <tud_task_ext+0x10e>
10008fb0:	e0bf      	b.n	10009132 <tud_task_ext+0x28e>
10008fb2:	06db      	lsls	r3, r3, #27
10008fb4:	0edb      	lsrs	r3, r3, #27
10008fb6:	2b01      	cmp	r3, #1
10008fb8:	d100      	bne.n	10008fbc <tud_task_ext+0x118>
10008fba:	e137      	b.n	1000922c <tud_task_ext+0x388>
10008fbc:	2b02      	cmp	r3, #2
10008fbe:	d100      	bne.n	10008fc2 <tud_task_ext+0x11e>
10008fc0:	e0d4      	b.n	1000916c <tud_task_ext+0x2c8>
10008fc2:	2b00      	cmp	r3, #0
10008fc4:	d100      	bne.n	10008fc8 <tud_task_ext+0x124>
10008fc6:	e0c3      	b.n	10009150 <tud_task_ext+0x2ac>
10008fc8:	7820      	ldrb	r0, [r4, #0]
10008fca:	2100      	movs	r1, #0
10008fcc:	f7ff fe5c 	bl	10008c88 <dcd_edpt_stall>
10008fd0:	2180      	movs	r1, #128	; 0x80
10008fd2:	7820      	ldrb	r0, [r4, #0]
10008fd4:	f7ff fe58 	bl	10008c88 <dcd_edpt_stall>
10008fd8:	e776      	b.n	10008ec8 <tud_task_ext+0x24>
10008fda:	4e88      	ldr	r6, [pc, #544]	; (100091fc <tud_task_ext+0x358>)
10008fdc:	7833      	ldrb	r3, [r6, #0]
10008fde:	07db      	lsls	r3, r3, #31
10008fe0:	d400      	bmi.n	10008fe4 <tud_task_ext+0x140>
10008fe2:	e771      	b.n	10008ec8 <tud_task_ext+0x24>
10008fe4:	4b89      	ldr	r3, [pc, #548]	; (1000920c <tud_task_ext+0x368>)
10008fe6:	2b00      	cmp	r3, #0
10008fe8:	d100      	bne.n	10008fec <tud_task_ext+0x148>
10008fea:	e76d      	b.n	10008ec8 <tud_task_ext+0x24>
10008fec:	e000      	b.n	10008ff0 <tud_task_ext+0x14c>
10008fee:	bf00      	nop
10008ff0:	e76a      	b.n	10008ec8 <tud_task_ext+0x24>
10008ff2:	4e82      	ldr	r6, [pc, #520]	; (100091fc <tud_task_ext+0x358>)
10008ff4:	7833      	ldrb	r3, [r6, #0]
10008ff6:	07db      	lsls	r3, r3, #31
10008ff8:	d400      	bmi.n	10008ffc <tud_task_ext+0x158>
10008ffa:	e765      	b.n	10008ec8 <tud_task_ext+0x24>
10008ffc:	4b84      	ldr	r3, [pc, #528]	; (10009210 <tud_task_ext+0x36c>)
10008ffe:	2b00      	cmp	r3, #0
10009000:	d100      	bne.n	10009004 <tud_task_ext+0x160>
10009002:	e761      	b.n	10008ec8 <tud_task_ext+0x24>
10009004:	7830      	ldrb	r0, [r6, #0]
10009006:	0700      	lsls	r0, r0, #28
10009008:	0fc0      	lsrs	r0, r0, #31
1000900a:	e000      	b.n	1000900e <tud_task_ext+0x16a>
1000900c:	bf00      	nop
1000900e:	e75b      	b.n	10008ec8 <tud_task_ext+0x24>
10009010:	4b7c      	ldr	r3, [pc, #496]	; (10009204 <tud_task_ext+0x360>)
10009012:	4a7b      	ldr	r2, [pc, #492]	; (10009200 <tud_task_ext+0x35c>)
10009014:	4698      	mov	r8, r3
10009016:	2600      	movs	r6, #0
10009018:	7827      	ldrb	r7, [r4, #0]
1000901a:	781b      	ldrb	r3, [r3, #0]
1000901c:	2a00      	cmp	r2, #0
1000901e:	d100      	bne.n	10009022 <tud_task_ext+0x17e>
10009020:	e079      	b.n	10009116 <tud_task_ext+0x272>
10009022:	4a7c      	ldr	r2, [pc, #496]	; (10009214 <tud_task_ext+0x370>)
10009024:	4692      	mov	sl, r2
10009026:	429e      	cmp	r6, r3
10009028:	d35f      	bcc.n	100090ea <tud_task_ext+0x246>
1000902a:	d119      	bne.n	10009060 <tud_task_ext+0x1bc>
1000902c:	4b7a      	ldr	r3, [pc, #488]	; (10009218 <tud_task_ext+0x374>)
1000902e:	0038      	movs	r0, r7
10009030:	4798      	blx	r3
10009032:	4643      	mov	r3, r8
10009034:	3601      	adds	r6, #1
10009036:	781b      	ldrb	r3, [r3, #0]
10009038:	b2f6      	uxtb	r6, r6
1000903a:	42b3      	cmp	r3, r6
1000903c:	d2f3      	bcs.n	10009026 <tud_task_ext+0x182>
1000903e:	4e6f      	ldr	r6, [pc, #444]	; (100091fc <tud_task_ext+0x358>)
10009040:	2253      	movs	r2, #83	; 0x53
10009042:	2100      	movs	r1, #0
10009044:	0030      	movs	r0, r6
10009046:	f7fe ff4b 	bl	10007ee0 <__wrap_memset>
1000904a:	2210      	movs	r2, #16
1000904c:	21ff      	movs	r1, #255	; 0xff
1000904e:	1cf0      	adds	r0, r6, #3
10009050:	f7fe ff46 	bl	10007ee0 <__wrap_memset>
10009054:	0030      	movs	r0, r6
10009056:	2220      	movs	r2, #32
10009058:	21ff      	movs	r1, #255	; 0xff
1000905a:	3013      	adds	r0, #19
1000905c:	f7fe ff40 	bl	10007ee0 <__wrap_memset>
10009060:	f000 fc9a 	bl	10009998 <usbd_control_reset>
10009064:	4b6d      	ldr	r3, [pc, #436]	; (1000921c <tud_task_ext+0x378>)
10009066:	2b00      	cmp	r3, #0
10009068:	d100      	bne.n	1000906c <tud_task_ext+0x1c8>
1000906a:	e72d      	b.n	10008ec8 <tud_task_ext+0x24>
1000906c:	e000      	b.n	10009070 <tud_task_ext+0x1cc>
1000906e:	bf00      	nop
10009070:	e72a      	b.n	10008ec8 <tud_task_ext+0x24>
10009072:	4b64      	ldr	r3, [pc, #400]	; (10009204 <tud_task_ext+0x360>)
10009074:	4a62      	ldr	r2, [pc, #392]	; (10009200 <tud_task_ext+0x35c>)
10009076:	4698      	mov	r8, r3
10009078:	2600      	movs	r6, #0
1000907a:	7827      	ldrb	r7, [r4, #0]
1000907c:	781b      	ldrb	r3, [r3, #0]
1000907e:	2a00      	cmp	r2, #0
10009080:	d01f      	beq.n	100090c2 <tud_task_ext+0x21e>
10009082:	4a64      	ldr	r2, [pc, #400]	; (10009214 <tud_task_ext+0x370>)
10009084:	4692      	mov	sl, r2
10009086:	429e      	cmp	r6, r3
10009088:	d33a      	bcc.n	10009100 <tud_task_ext+0x25c>
1000908a:	d121      	bne.n	100090d0 <tud_task_ext+0x22c>
1000908c:	4b62      	ldr	r3, [pc, #392]	; (10009218 <tud_task_ext+0x374>)
1000908e:	0038      	movs	r0, r7
10009090:	4798      	blx	r3
10009092:	4643      	mov	r3, r8
10009094:	3601      	adds	r6, #1
10009096:	781b      	ldrb	r3, [r3, #0]
10009098:	b2f6      	uxtb	r6, r6
1000909a:	42b3      	cmp	r3, r6
1000909c:	d2f3      	bcs.n	10009086 <tud_task_ext+0x1e2>
1000909e:	4e57      	ldr	r6, [pc, #348]	; (100091fc <tud_task_ext+0x358>)
100090a0:	2253      	movs	r2, #83	; 0x53
100090a2:	2100      	movs	r1, #0
100090a4:	0030      	movs	r0, r6
100090a6:	f7fe ff1b 	bl	10007ee0 <__wrap_memset>
100090aa:	2210      	movs	r2, #16
100090ac:	21ff      	movs	r1, #255	; 0xff
100090ae:	1cf0      	adds	r0, r6, #3
100090b0:	f7fe ff16 	bl	10007ee0 <__wrap_memset>
100090b4:	0030      	movs	r0, r6
100090b6:	2220      	movs	r2, #32
100090b8:	21ff      	movs	r1, #255	; 0xff
100090ba:	3013      	adds	r0, #19
100090bc:	f7fe ff10 	bl	10007ee0 <__wrap_memset>
100090c0:	e007      	b.n	100090d2 <tud_task_ext+0x22e>
100090c2:	0038      	movs	r0, r7
100090c4:	f000 fe00 	bl	10009cc8 <cdcd_reset>
100090c8:	4643      	mov	r3, r8
100090ca:	781b      	ldrb	r3, [r3, #0]
100090cc:	2b00      	cmp	r3, #0
100090ce:	d0e6      	beq.n	1000909e <tud_task_ext+0x1fa>
100090d0:	4e4a      	ldr	r6, [pc, #296]	; (100091fc <tud_task_ext+0x358>)
100090d2:	f000 fc61 	bl	10009998 <usbd_control_reset>
100090d6:	7923      	ldrb	r3, [r4, #4]
100090d8:	70b3      	strb	r3, [r6, #2]
100090da:	e6f5      	b.n	10008ec8 <tud_task_ext+0x24>
100090dc:	b00b      	add	sp, #44	; 0x2c
100090de:	bcf0      	pop	{r4, r5, r6, r7}
100090e0:	46bb      	mov	fp, r7
100090e2:	46b2      	mov	sl, r6
100090e4:	46a9      	mov	r9, r5
100090e6:	46a0      	mov	r8, r4
100090e8:	bdf0      	pop	{r4, r5, r6, r7, pc}
100090ea:	4652      	mov	r2, sl
100090ec:	6812      	ldr	r2, [r2, #0]
100090ee:	0073      	lsls	r3, r6, #1
100090f0:	4694      	mov	ip, r2
100090f2:	199b      	adds	r3, r3, r6
100090f4:	00db      	lsls	r3, r3, #3
100090f6:	4463      	add	r3, ip
100090f8:	2b00      	cmp	r3, #0
100090fa:	d0b1      	beq.n	10009060 <tud_task_ext+0x1bc>
100090fc:	685b      	ldr	r3, [r3, #4]
100090fe:	e796      	b.n	1000902e <tud_task_ext+0x18a>
10009100:	4652      	mov	r2, sl
10009102:	6812      	ldr	r2, [r2, #0]
10009104:	0073      	lsls	r3, r6, #1
10009106:	4694      	mov	ip, r2
10009108:	199b      	adds	r3, r3, r6
1000910a:	00db      	lsls	r3, r3, #3
1000910c:	4463      	add	r3, ip
1000910e:	2b00      	cmp	r3, #0
10009110:	d0de      	beq.n	100090d0 <tud_task_ext+0x22c>
10009112:	685b      	ldr	r3, [r3, #4]
10009114:	e7bb      	b.n	1000908e <tud_task_ext+0x1ea>
10009116:	0038      	movs	r0, r7
10009118:	f000 fdd6 	bl	10009cc8 <cdcd_reset>
1000911c:	4643      	mov	r3, r8
1000911e:	781b      	ldrb	r3, [r3, #0]
10009120:	2b00      	cmp	r3, #0
10009122:	d19d      	bne.n	10009060 <tud_task_ext+0x1bc>
10009124:	e78b      	b.n	1000903e <tud_task_ext+0x19a>
10009126:	7962      	ldrb	r2, [r4, #5]
10009128:	7820      	ldrb	r0, [r4, #0]
1000912a:	68a3      	ldr	r3, [r4, #8]
1000912c:	f000 fc52 	bl	100099d4 <usbd_control_xfer_cb>
10009130:	e6ca      	b.n	10008ec8 <tud_task_ext+0x24>
10009132:	483b      	ldr	r0, [pc, #236]	; (10009220 <tud_task_ext+0x37c>)
10009134:	2800      	cmp	r0, #0
10009136:	d100      	bne.n	1000913a <tud_task_ext+0x296>
10009138:	e746      	b.n	10008fc8 <tud_task_ext+0x124>
1000913a:	f000 fc37 	bl	100099ac <usbd_control_set_complete_callback>
1000913e:	2101      	movs	r1, #1
10009140:	4650      	mov	r0, sl
10009142:	aa08      	add	r2, sp, #32
10009144:	e000      	b.n	10009148 <tud_task_ext+0x2a4>
10009146:	bf00      	nop
10009148:	2800      	cmp	r0, #0
1000914a:	d000      	beq.n	1000914e <tud_task_ext+0x2aa>
1000914c:	e6bc      	b.n	10008ec8 <tud_task_ext+0x24>
1000914e:	e73b      	b.n	10008fc8 <tud_task_ext+0x124>
10009150:	2a20      	cmp	r2, #32
10009152:	d100      	bne.n	10009156 <tud_task_ext+0x2b2>
10009154:	e09f      	b.n	10009296 <tud_task_ext+0x3f2>
10009156:	2a00      	cmp	r2, #0
10009158:	d000      	beq.n	1000915c <tud_task_ext+0x2b8>
1000915a:	e735      	b.n	10008fc8 <tud_task_ext+0x124>
1000915c:	7963      	ldrb	r3, [r4, #5]
1000915e:	2b09      	cmp	r3, #9
10009160:	d900      	bls.n	10009164 <tud_task_ext+0x2c0>
10009162:	e731      	b.n	10008fc8 <tud_task_ext+0x124>
10009164:	4a2f      	ldr	r2, [pc, #188]	; (10009224 <tud_task_ext+0x380>)
10009166:	009b      	lsls	r3, r3, #2
10009168:	58d3      	ldr	r3, [r2, r3]
1000916a:	469f      	mov	pc, r3
1000916c:	2370      	movs	r3, #112	; 0x70
1000916e:	7a21      	ldrb	r1, [r4, #8]
10009170:	420b      	tst	r3, r1
10009172:	d000      	beq.n	10009176 <tud_task_ext+0x2d2>
10009174:	e728      	b.n	10008fc8 <tud_task_ext+0x124>
10009176:	4658      	mov	r0, fp
10009178:	330f      	adds	r3, #15
1000917a:	400b      	ands	r3, r1
1000917c:	005b      	lsls	r3, r3, #1
1000917e:	09ce      	lsrs	r6, r1, #7
10009180:	18c0      	adds	r0, r0, r3
10009182:	4f1f      	ldr	r7, [pc, #124]	; (10009200 <tud_task_ext+0x35c>)
10009184:	1980      	adds	r0, r0, r6
10009186:	7cc0      	ldrb	r0, [r0, #19]
10009188:	2f00      	cmp	r7, #0
1000918a:	d006      	beq.n	1000919a <tud_task_ext+0x2f6>
1000918c:	4f1d      	ldr	r7, [pc, #116]	; (10009204 <tud_task_ext+0x360>)
1000918e:	783f      	ldrb	r7, [r7, #0]
10009190:	42b8      	cmp	r0, r7
10009192:	d200      	bcs.n	10009196 <tud_task_ext+0x2f2>
10009194:	e0a1      	b.n	100092da <tud_task_ext+0x436>
10009196:	1bc0      	subs	r0, r0, r7
10009198:	b2c0      	uxtb	r0, r0
1000919a:	2800      	cmp	r0, #0
1000919c:	d000      	beq.n	100091a0 <tud_task_ext+0x2fc>
1000919e:	e097      	b.n	100092d0 <tud_task_ext+0x42c>
100091a0:	2a00      	cmp	r2, #0
100091a2:	d000      	beq.n	100091a6 <tud_task_ext+0x302>
100091a4:	e148      	b.n	10009438 <tud_task_ext+0x594>
100091a6:	4f20      	ldr	r7, [pc, #128]	; (10009228 <tud_task_ext+0x384>)
100091a8:	2002      	movs	r0, #2
100091aa:	7962      	ldrb	r2, [r4, #5]
100091ac:	4690      	mov	r8, r2
100091ae:	4382      	bics	r2, r0
100091b0:	2a01      	cmp	r2, #1
100091b2:	d100      	bne.n	100091b6 <tud_task_ext+0x312>
100091b4:	e143      	b.n	1000943e <tud_task_ext+0x59a>
100091b6:	4642      	mov	r2, r8
100091b8:	2a00      	cmp	r2, #0
100091ba:	d000      	beq.n	100091be <tud_task_ext+0x31a>
100091bc:	e704      	b.n	10008fc8 <tud_task_ext+0x124>
100091be:	445b      	add	r3, fp
100091c0:	199e      	adds	r6, r3, r6
100091c2:	3630      	adds	r6, #48	; 0x30
100091c4:	78f3      	ldrb	r3, [r6, #3]
100091c6:	aa06      	add	r2, sp, #24
100091c8:	079b      	lsls	r3, r3, #30
100091ca:	0fdb      	lsrs	r3, r3, #31
100091cc:	3202      	adds	r2, #2
100091ce:	8013      	strh	r3, [r2, #0]
100091d0:	4650      	mov	r0, sl
100091d2:	2302      	movs	r3, #2
100091d4:	a908      	add	r1, sp, #32
100091d6:	f000 fb81 	bl	100098dc <tud_control_xfer>
100091da:	e675      	b.n	10008ec8 <tud_task_ext+0x24>
100091dc:	005a      	lsls	r2, r3, #1
100091de:	18d3      	adds	r3, r2, r3
100091e0:	4a0c      	ldr	r2, [pc, #48]	; (10009214 <tud_task_ext+0x370>)
100091e2:	00db      	lsls	r3, r3, #3
100091e4:	6812      	ldr	r2, [r2, #0]
100091e6:	18d3      	adds	r3, r2, r3
100091e8:	2b00      	cmp	r3, #0
100091ea:	d100      	bne.n	100091ee <tud_task_ext+0x34a>
100091ec:	e776      	b.n	100090dc <tud_task_ext+0x238>
100091ee:	691e      	ldr	r6, [r3, #16]
100091f0:	e6b5      	b.n	10008f5e <tud_task_ext+0xba>
100091f2:	46c0      	nop			; (mov r8, r8)
100091f4:	10042604 	.word	0x10042604
100091f8:	20001784 	.word	0x20001784
100091fc:	2000172c 	.word	0x2000172c
10009200:	10008601 	.word	0x10008601
10009204:	20002c7e 	.word	0x20002c7e
10009208:	10009ec1 	.word	0x10009ec1
	...
10009214:	20001404 	.word	0x20001404
10009218:	10009cc9 	.word	0x10009cc9
	...
10009224:	10042628 	.word	0x10042628
10009228:	10042690 	.word	0x10042690
1000922c:	7a23      	ldrb	r3, [r4, #8]
1000922e:	2b0f      	cmp	r3, #15
10009230:	d900      	bls.n	10009234 <tud_task_ext+0x390>
10009232:	e6c9      	b.n	10008fc8 <tud_task_ext+0x124>
10009234:	4aaa      	ldr	r2, [pc, #680]	; (100094e0 <tud_task_ext+0x63c>)
10009236:	445b      	add	r3, fp
10009238:	78db      	ldrb	r3, [r3, #3]
1000923a:	2a00      	cmp	r2, #0
1000923c:	d005      	beq.n	1000924a <tud_task_ext+0x3a6>
1000923e:	4aa9      	ldr	r2, [pc, #676]	; (100094e4 <tud_task_ext+0x640>)
10009240:	7812      	ldrb	r2, [r2, #0]
10009242:	4293      	cmp	r3, r2
10009244:	d35e      	bcc.n	10009304 <tud_task_ext+0x460>
10009246:	1a9b      	subs	r3, r3, r2
10009248:	b2db      	uxtb	r3, r3
1000924a:	2b00      	cmp	r3, #0
1000924c:	d000      	beq.n	10009250 <tud_task_ext+0x3ac>
1000924e:	e6bb      	b.n	10008fc8 <tud_task_ext+0x124>
10009250:	48a5      	ldr	r0, [pc, #660]	; (100094e8 <tud_task_ext+0x644>)
10009252:	4ea6      	ldr	r6, [pc, #664]	; (100094ec <tud_task_ext+0x648>)
10009254:	f000 fbaa 	bl	100099ac <usbd_control_set_complete_callback>
10009258:	2101      	movs	r1, #1
1000925a:	4650      	mov	r0, sl
1000925c:	68f3      	ldr	r3, [r6, #12]
1000925e:	aa08      	add	r2, sp, #32
10009260:	4798      	blx	r3
10009262:	2800      	cmp	r0, #0
10009264:	d000      	beq.n	10009268 <tud_task_ext+0x3c4>
10009266:	e62f      	b.n	10008ec8 <tud_task_ext+0x24>
10009268:	2260      	movs	r2, #96	; 0x60
1000926a:	0016      	movs	r6, r2
1000926c:	7923      	ldrb	r3, [r4, #4]
1000926e:	401e      	ands	r6, r3
10009270:	421a      	tst	r2, r3
10009272:	d000      	beq.n	10009276 <tud_task_ext+0x3d2>
10009274:	e6a8      	b.n	10008fc8 <tud_task_ext+0x124>
10009276:	7963      	ldrb	r3, [r4, #5]
10009278:	3b0a      	subs	r3, #10
1000927a:	2b01      	cmp	r3, #1
1000927c:	d900      	bls.n	10009280 <tud_task_ext+0x3dc>
1000927e:	e6a3      	b.n	10008fc8 <tud_task_ext+0x124>
10009280:	f000 fb94 	bl	100099ac <usbd_control_set_complete_callback>
10009284:	7963      	ldrb	r3, [r4, #5]
10009286:	2b0a      	cmp	r3, #10
10009288:	d100      	bne.n	1000928c <tud_task_ext+0x3e8>
1000928a:	e120      	b.n	100094ce <tud_task_ext+0x62a>
1000928c:	4650      	mov	r0, sl
1000928e:	a908      	add	r1, sp, #32
10009290:	f000 fb0c 	bl	100098ac <tud_control_status>
10009294:	e618      	b.n	10008ec8 <tud_task_ext+0x24>
10009296:	7a23      	ldrb	r3, [r4, #8]
10009298:	2b0f      	cmp	r3, #15
1000929a:	d900      	bls.n	1000929e <tud_task_ext+0x3fa>
1000929c:	e694      	b.n	10008fc8 <tud_task_ext+0x124>
1000929e:	4a90      	ldr	r2, [pc, #576]	; (100094e0 <tud_task_ext+0x63c>)
100092a0:	445b      	add	r3, fp
100092a2:	78db      	ldrb	r3, [r3, #3]
100092a4:	2a00      	cmp	r2, #0
100092a6:	d006      	beq.n	100092b6 <tud_task_ext+0x412>
100092a8:	4a8e      	ldr	r2, [pc, #568]	; (100094e4 <tud_task_ext+0x640>)
100092aa:	7812      	ldrb	r2, [r2, #0]
100092ac:	4293      	cmp	r3, r2
100092ae:	d200      	bcs.n	100092b2 <tud_task_ext+0x40e>
100092b0:	e0e6      	b.n	10009480 <tud_task_ext+0x5dc>
100092b2:	1a9b      	subs	r3, r3, r2
100092b4:	b2db      	uxtb	r3, r3
100092b6:	2b00      	cmp	r3, #0
100092b8:	d000      	beq.n	100092bc <tud_task_ext+0x418>
100092ba:	e685      	b.n	10008fc8 <tud_task_ext+0x124>
100092bc:	488a      	ldr	r0, [pc, #552]	; (100094e8 <tud_task_ext+0x644>)
100092be:	4e8b      	ldr	r6, [pc, #556]	; (100094ec <tud_task_ext+0x648>)
100092c0:	f000 fb74 	bl	100099ac <usbd_control_set_complete_callback>
100092c4:	2101      	movs	r1, #1
100092c6:	4650      	mov	r0, sl
100092c8:	68f3      	ldr	r3, [r6, #12]
100092ca:	aa08      	add	r2, sp, #32
100092cc:	4798      	blx	r3
100092ce:	e73b      	b.n	10009148 <tud_task_ext+0x2a4>
100092d0:	2700      	movs	r7, #0
100092d2:	2a00      	cmp	r2, #0
100092d4:	d100      	bne.n	100092d8 <tud_task_ext+0x434>
100092d6:	e767      	b.n	100091a8 <tud_task_ext+0x304>
100092d8:	e676      	b.n	10008fc8 <tud_task_ext+0x124>
100092da:	0047      	lsls	r7, r0, #1
100092dc:	1838      	adds	r0, r7, r0
100092de:	4f84      	ldr	r7, [pc, #528]	; (100094f0 <tud_task_ext+0x64c>)
100092e0:	00c0      	lsls	r0, r0, #3
100092e2:	683f      	ldr	r7, [r7, #0]
100092e4:	183f      	adds	r7, r7, r0
100092e6:	2a00      	cmp	r2, #0
100092e8:	d100      	bne.n	100092ec <tud_task_ext+0x448>
100092ea:	e75d      	b.n	100091a8 <tud_task_ext+0x304>
100092ec:	2f00      	cmp	r7, #0
100092ee:	d100      	bne.n	100092f2 <tud_task_ext+0x44e>
100092f0:	e66a      	b.n	10008fc8 <tud_task_ext+0x124>
100092f2:	68f8      	ldr	r0, [r7, #12]
100092f4:	f000 fb5a 	bl	100099ac <usbd_control_set_complete_callback>
100092f8:	2101      	movs	r1, #1
100092fa:	4650      	mov	r0, sl
100092fc:	68fb      	ldr	r3, [r7, #12]
100092fe:	aa08      	add	r2, sp, #32
10009300:	4798      	blx	r3
10009302:	e721      	b.n	10009148 <tud_task_ext+0x2a4>
10009304:	4a7a      	ldr	r2, [pc, #488]	; (100094f0 <tud_task_ext+0x64c>)
10009306:	005e      	lsls	r6, r3, #1
10009308:	18f3      	adds	r3, r6, r3
1000930a:	6816      	ldr	r6, [r2, #0]
1000930c:	00db      	lsls	r3, r3, #3
1000930e:	18f6      	adds	r6, r6, r3
10009310:	2e00      	cmp	r6, #0
10009312:	d100      	bne.n	10009316 <tud_task_ext+0x472>
10009314:	e658      	b.n	10008fc8 <tud_task_ext+0x124>
10009316:	68f0      	ldr	r0, [r6, #12]
10009318:	e79c      	b.n	10009254 <tud_task_ext+0x3b0>
1000931a:	79a2      	ldrb	r2, [r4, #6]
1000931c:	9201      	str	r2, [sp, #4]
1000931e:	7873      	ldrb	r3, [r6, #1]
10009320:	429a      	cmp	r2, r3
10009322:	d007      	beq.n	10009334 <tud_task_ext+0x490>
10009324:	7873      	ldrb	r3, [r6, #1]
10009326:	2b00      	cmp	r3, #0
10009328:	d000      	beq.n	1000932c <tud_task_ext+0x488>
1000932a:	e145      	b.n	100095b8 <tud_task_ext+0x714>
1000932c:	9b01      	ldr	r3, [sp, #4]
1000932e:	2b00      	cmp	r3, #0
10009330:	d000      	beq.n	10009334 <tud_task_ext+0x490>
10009332:	e0e9      	b.n	10009508 <tud_task_ext+0x664>
10009334:	465b      	mov	r3, fp
10009336:	9a01      	ldr	r2, [sp, #4]
10009338:	4650      	mov	r0, sl
1000933a:	a908      	add	r1, sp, #32
1000933c:	705a      	strb	r2, [r3, #1]
1000933e:	f000 fab5 	bl	100098ac <tud_control_status>
10009342:	e5c1      	b.n	10008ec8 <tud_task_ext+0x24>
10009344:	7873      	ldrb	r3, [r6, #1]
10009346:	aa06      	add	r2, sp, #24
10009348:	3202      	adds	r2, #2
1000934a:	7013      	strb	r3, [r2, #0]
1000934c:	4650      	mov	r0, sl
1000934e:	2301      	movs	r3, #1
10009350:	a908      	add	r1, sp, #32
10009352:	f000 fac3 	bl	100098dc <tud_control_xfer>
10009356:	e5b7      	b.n	10008ec8 <tud_task_ext+0x24>
10009358:	88e0      	ldrh	r0, [r4, #6]
1000935a:	0a03      	lsrs	r3, r0, #8
1000935c:	b2c0      	uxtb	r0, r0
1000935e:	2b0f      	cmp	r3, #15
10009360:	d900      	bls.n	10009364 <tud_task_ext+0x4c0>
10009362:	e631      	b.n	10008fc8 <tud_task_ext+0x124>
10009364:	4963      	ldr	r1, [pc, #396]	; (100094f4 <tud_task_ext+0x650>)
10009366:	009a      	lsls	r2, r3, #2
10009368:	588a      	ldr	r2, [r1, r2]
1000936a:	4697      	mov	pc, r2
1000936c:	a808      	add	r0, sp, #32
1000936e:	f000 fb23 	bl	100099b8 <usbd_control_set_request>
10009372:	4650      	mov	r0, sl
10009374:	79a1      	ldrb	r1, [r4, #6]
10009376:	f7ff fb81 	bl	10008a7c <dcd_set_address>
1000937a:	2202      	movs	r2, #2
1000937c:	7833      	ldrb	r3, [r6, #0]
1000937e:	4313      	orrs	r3, r2
10009380:	7033      	strb	r3, [r6, #0]
10009382:	e5a1      	b.n	10008ec8 <tud_task_ext+0x24>
10009384:	88e3      	ldrh	r3, [r4, #6]
10009386:	2b01      	cmp	r3, #1
10009388:	d000      	beq.n	1000938c <tud_task_ext+0x4e8>
1000938a:	e61d      	b.n	10008fc8 <tud_task_ext+0x124>
1000938c:	2208      	movs	r2, #8
1000938e:	7833      	ldrb	r3, [r6, #0]
10009390:	4393      	bics	r3, r2
10009392:	465a      	mov	r2, fp
10009394:	7013      	strb	r3, [r2, #0]
10009396:	e779      	b.n	1000928c <tud_task_ext+0x3e8>
10009398:	2002      	movs	r0, #2
1000939a:	7831      	ldrb	r1, [r6, #0]
1000939c:	ab06      	add	r3, sp, #24
1000939e:	1c9a      	adds	r2, r3, #2
100093a0:	068b      	lsls	r3, r1, #26
100093a2:	0889      	lsrs	r1, r1, #2
100093a4:	0fdb      	lsrs	r3, r3, #31
100093a6:	4001      	ands	r1, r0
100093a8:	430b      	orrs	r3, r1
100093aa:	e710      	b.n	100091ce <tud_task_ext+0x32a>
100093ac:	88e3      	ldrh	r3, [r4, #6]
100093ae:	2b01      	cmp	r3, #1
100093b0:	d000      	beq.n	100093b4 <tud_task_ext+0x510>
100093b2:	e609      	b.n	10008fc8 <tud_task_ext+0x124>
100093b4:	2208      	movs	r2, #8
100093b6:	7833      	ldrb	r3, [r6, #0]
100093b8:	4313      	orrs	r3, r2
100093ba:	e7ea      	b.n	10009392 <tud_task_ext+0x4ee>
100093bc:	4b4e      	ldr	r3, [pc, #312]	; (100094f8 <tud_task_ext+0x654>)
100093be:	2b00      	cmp	r3, #0
100093c0:	d100      	bne.n	100093c4 <tud_task_ext+0x520>
100093c2:	e601      	b.n	10008fc8 <tud_task_ext+0x124>
100093c4:	e000      	b.n	100093c8 <tud_task_ext+0x524>
100093c6:	bf00      	nop
100093c8:	1e02      	subs	r2, r0, #0
100093ca:	d100      	bne.n	100093ce <tud_task_ext+0x52a>
100093cc:	e5fc      	b.n	10008fc8 <tud_task_ext+0x124>
100093ce:	78d3      	ldrb	r3, [r2, #3]
100093d0:	7891      	ldrb	r1, [r2, #2]
100093d2:	021b      	lsls	r3, r3, #8
100093d4:	430b      	orrs	r3, r1
100093d6:	4650      	mov	r0, sl
100093d8:	a908      	add	r1, sp, #32
100093da:	f000 fa7f 	bl	100098dc <tud_control_xfer>
100093de:	e6b3      	b.n	10009148 <tud_task_ext+0x2a4>
100093e0:	4b46      	ldr	r3, [pc, #280]	; (100094fc <tud_task_ext+0x658>)
100093e2:	2b00      	cmp	r3, #0
100093e4:	d100      	bne.n	100093e8 <tud_task_ext+0x544>
100093e6:	e5ef      	b.n	10008fc8 <tud_task_ext+0x124>
100093e8:	e000      	b.n	100093ec <tud_task_ext+0x548>
100093ea:	bf00      	nop
100093ec:	1e02      	subs	r2, r0, #0
100093ee:	d100      	bne.n	100093f2 <tud_task_ext+0x54e>
100093f0:	e5ea      	b.n	10008fc8 <tud_task_ext+0x124>
100093f2:	4650      	mov	r0, sl
100093f4:	7813      	ldrb	r3, [r2, #0]
100093f6:	a908      	add	r1, sp, #32
100093f8:	f000 fa70 	bl	100098dc <tud_control_xfer>
100093fc:	e6a4      	b.n	10009148 <tud_task_ext+0x2a4>
100093fe:	8921      	ldrh	r1, [r4, #8]
10009400:	f7ff fafc 	bl	100089fc <tud_descriptor_string_cb>
10009404:	1e02      	subs	r2, r0, #0
10009406:	d1f4      	bne.n	100093f2 <tud_task_ext+0x54e>
10009408:	e5de      	b.n	10008fc8 <tud_task_ext+0x124>
1000940a:	2b02      	cmp	r3, #2
1000940c:	d100      	bne.n	10009410 <tud_task_ext+0x56c>
1000940e:	e111      	b.n	10009634 <tud_task_ext+0x790>
10009410:	4b3b      	ldr	r3, [pc, #236]	; (10009500 <tud_task_ext+0x65c>)
10009412:	2b00      	cmp	r3, #0
10009414:	d100      	bne.n	10009418 <tud_task_ext+0x574>
10009416:	e5d7      	b.n	10008fc8 <tud_task_ext+0x124>
10009418:	e000      	b.n	1000941c <tud_task_ext+0x578>
1000941a:	bf00      	nop
1000941c:	0002      	movs	r2, r0
1000941e:	2a00      	cmp	r2, #0
10009420:	d100      	bne.n	10009424 <tud_task_ext+0x580>
10009422:	e5d1      	b.n	10008fc8 <tud_task_ext+0x124>
10009424:	e7d3      	b.n	100093ce <tud_task_ext+0x52a>
10009426:	f7ff fae1 	bl	100089ec <tud_descriptor_device_cb>
1000942a:	2312      	movs	r3, #18
1000942c:	0002      	movs	r2, r0
1000942e:	a908      	add	r1, sp, #32
10009430:	4650      	mov	r0, sl
10009432:	f000 fa53 	bl	100098dc <tud_control_xfer>
10009436:	e687      	b.n	10009148 <tud_task_ext+0x2a4>
10009438:	482b      	ldr	r0, [pc, #172]	; (100094e8 <tud_task_ext+0x644>)
1000943a:	4f2c      	ldr	r7, [pc, #176]	; (100094ec <tud_task_ext+0x648>)
1000943c:	e75a      	b.n	100092f4 <tud_task_ext+0x450>
1000943e:	88e2      	ldrh	r2, [r4, #6]
10009440:	2a00      	cmp	r2, #0
10009442:	d108      	bne.n	10009456 <tud_task_ext+0x5b2>
10009444:	4642      	mov	r2, r8
10009446:	445b      	add	r3, fp
10009448:	199e      	adds	r6, r3, r6
1000944a:	3630      	adds	r6, #48	; 0x30
1000944c:	78f3      	ldrb	r3, [r6, #3]
1000944e:	2a01      	cmp	r2, #1
10009450:	d021      	beq.n	10009496 <tud_task_ext+0x5f2>
10009452:	079b      	lsls	r3, r3, #30
10009454:	d52e      	bpl.n	100094b4 <tud_task_ext+0x610>
10009456:	2f00      	cmp	r7, #0
10009458:	d100      	bne.n	1000945c <tud_task_ext+0x5b8>
1000945a:	e535      	b.n	10008ec8 <tud_task_ext+0x24>
1000945c:	68f8      	ldr	r0, [r7, #12]
1000945e:	f000 faa5 	bl	100099ac <usbd_control_set_complete_callback>
10009462:	68fb      	ldr	r3, [r7, #12]
10009464:	aa08      	add	r2, sp, #32
10009466:	2101      	movs	r1, #1
10009468:	4650      	mov	r0, sl
1000946a:	4798      	blx	r3
1000946c:	2000      	movs	r0, #0
1000946e:	f000 fa9d 	bl	100099ac <usbd_control_set_complete_callback>
10009472:	2334      	movs	r3, #52	; 0x34
10009474:	465a      	mov	r2, fp
10009476:	5cd3      	ldrb	r3, [r2, r3]
10009478:	07db      	lsls	r3, r3, #31
1000947a:	d500      	bpl.n	1000947e <tud_task_ext+0x5da>
1000947c:	e524      	b.n	10008ec8 <tud_task_ext+0x24>
1000947e:	e705      	b.n	1000928c <tud_task_ext+0x3e8>
10009480:	4a1b      	ldr	r2, [pc, #108]	; (100094f0 <tud_task_ext+0x64c>)
10009482:	005e      	lsls	r6, r3, #1
10009484:	18f3      	adds	r3, r6, r3
10009486:	6816      	ldr	r6, [r2, #0]
10009488:	00db      	lsls	r3, r3, #3
1000948a:	18f6      	adds	r6, r6, r3
1000948c:	2e00      	cmp	r6, #0
1000948e:	d100      	bne.n	10009492 <tud_task_ext+0x5ee>
10009490:	e59a      	b.n	10008fc8 <tud_task_ext+0x124>
10009492:	68f0      	ldr	r0, [r6, #12]
10009494:	e714      	b.n	100092c0 <tud_task_ext+0x41c>
10009496:	079b      	lsls	r3, r3, #30
10009498:	d5dd      	bpl.n	10009456 <tud_task_ext+0x5b2>
1000949a:	4b1a      	ldr	r3, [pc, #104]	; (10009504 <tud_task_ext+0x660>)
1000949c:	7818      	ldrb	r0, [r3, #0]
1000949e:	f7ff fc0f 	bl	10008cc0 <dcd_edpt_clear_stall>
100094a2:	2202      	movs	r2, #2
100094a4:	78f3      	ldrb	r3, [r6, #3]
100094a6:	4393      	bics	r3, r2
100094a8:	4642      	mov	r2, r8
100094aa:	70f3      	strb	r3, [r6, #3]
100094ac:	78f3      	ldrb	r3, [r6, #3]
100094ae:	4393      	bics	r3, r2
100094b0:	70f3      	strb	r3, [r6, #3]
100094b2:	e7d0      	b.n	10009456 <tud_task_ext+0x5b2>
100094b4:	4b13      	ldr	r3, [pc, #76]	; (10009504 <tud_task_ext+0x660>)
100094b6:	7818      	ldrb	r0, [r3, #0]
100094b8:	f7ff fbe6 	bl	10008c88 <dcd_edpt_stall>
100094bc:	2202      	movs	r2, #2
100094be:	78f3      	ldrb	r3, [r6, #3]
100094c0:	4313      	orrs	r3, r2
100094c2:	2201      	movs	r2, #1
100094c4:	70f3      	strb	r3, [r6, #3]
100094c6:	78f3      	ldrb	r3, [r6, #3]
100094c8:	4313      	orrs	r3, r2
100094ca:	70f3      	strb	r3, [r6, #3]
100094cc:	e7c3      	b.n	10009456 <tud_task_ext+0x5b2>
100094ce:	ab06      	add	r3, sp, #24
100094d0:	1c9a      	adds	r2, r3, #2
100094d2:	4650      	mov	r0, sl
100094d4:	2301      	movs	r3, #1
100094d6:	a908      	add	r1, sp, #32
100094d8:	7016      	strb	r6, [r2, #0]
100094da:	f000 f9ff 	bl	100098dc <tud_control_xfer>
100094de:	e4f3      	b.n	10008ec8 <tud_task_ext+0x24>
100094e0:	10008601 	.word	0x10008601
100094e4:	20002c7e 	.word	0x20002c7e
100094e8:	10009ddd 	.word	0x10009ddd
100094ec:	10042690 	.word	0x10042690
100094f0:	20001404 	.word	0x20001404
100094f4:	10042650 	.word	0x10042650
	...
10009504:	20001174 	.word	0x20001174
10009508:	1e58      	subs	r0, r3, #1
1000950a:	b2c0      	uxtb	r0, r0
1000950c:	f7ff fa72 	bl	100089f4 <tud_descriptor_configuration_cb>
10009510:	2800      	cmp	r0, #0
10009512:	d100      	bne.n	10009516 <tud_task_ext+0x672>
10009514:	e558      	b.n	10008fc8 <tud_task_ext+0x124>
10009516:	7843      	ldrb	r3, [r0, #1]
10009518:	9305      	str	r3, [sp, #20]
1000951a:	2b02      	cmp	r3, #2
1000951c:	d000      	beq.n	10009520 <tud_task_ext+0x67c>
1000951e:	e553      	b.n	10008fc8 <tud_task_ext+0x124>
10009520:	2101      	movs	r1, #1
10009522:	79c2      	ldrb	r2, [r0, #7]
10009524:	0007      	movs	r7, r0
10009526:	1193      	asrs	r3, r2, #6
10009528:	1152      	asrs	r2, r2, #5
1000952a:	400b      	ands	r3, r1
1000952c:	400a      	ands	r2, r1
1000952e:	0112      	lsls	r2, r2, #4
10009530:	015b      	lsls	r3, r3, #5
10009532:	4313      	orrs	r3, r2
10009534:	465a      	mov	r2, fp
10009536:	7812      	ldrb	r2, [r2, #0]
10009538:	312f      	adds	r1, #47	; 0x2f
1000953a:	438a      	bics	r2, r1
1000953c:	4313      	orrs	r3, r2
1000953e:	465a      	mov	r2, fp
10009540:	7013      	strb	r3, [r2, #0]
10009542:	78c3      	ldrb	r3, [r0, #3]
10009544:	7882      	ldrb	r2, [r0, #2]
10009546:	021b      	lsls	r3, r3, #8
10009548:	4313      	orrs	r3, r2
1000954a:	18c3      	adds	r3, r0, r3
1000954c:	3709      	adds	r7, #9
1000954e:	9303      	str	r3, [sp, #12]
10009550:	9b03      	ldr	r3, [sp, #12]
10009552:	42bb      	cmp	r3, r7
10009554:	d800      	bhi.n	10009558 <tud_task_ext+0x6b4>
10009556:	e0ac      	b.n	100096b2 <tud_task_ext+0x80e>
10009558:	2201      	movs	r2, #1
1000955a:	787b      	ldrb	r3, [r7, #1]
1000955c:	9200      	str	r2, [sp, #0]
1000955e:	2b0b      	cmp	r3, #11
10009560:	d103      	bne.n	1000956a <tud_task_ext+0x6c6>
10009562:	78fb      	ldrb	r3, [r7, #3]
10009564:	9300      	str	r3, [sp, #0]
10009566:	783b      	ldrb	r3, [r7, #0]
10009568:	18ff      	adds	r7, r7, r3
1000956a:	787b      	ldrb	r3, [r7, #1]
1000956c:	2b04      	cmp	r3, #4
1000956e:	d000      	beq.n	10009572 <tud_task_ext+0x6ce>
10009570:	e52a      	b.n	10008fc8 <tud_task_ext+0x124>
10009572:	2600      	movs	r6, #0
10009574:	9b03      	ldr	r3, [sp, #12]
10009576:	4a58      	ldr	r2, [pc, #352]	; (100096d8 <tud_task_ext+0x834>)
10009578:	1bdb      	subs	r3, r3, r7
1000957a:	b29b      	uxth	r3, r3
1000957c:	9302      	str	r3, [sp, #8]
1000957e:	4b57      	ldr	r3, [pc, #348]	; (100096dc <tud_task_ext+0x838>)
10009580:	9304      	str	r3, [sp, #16]
10009582:	781b      	ldrb	r3, [r3, #0]
10009584:	42b2      	cmp	r2, r6
10009586:	d063      	beq.n	10009650 <tud_task_ext+0x7ac>
10009588:	46b8      	mov	r8, r7
1000958a:	42b3      	cmp	r3, r6
1000958c:	d856      	bhi.n	1000963c <tud_task_ext+0x798>
1000958e:	d000      	beq.n	10009592 <tud_task_ext+0x6ee>
10009590:	e51a      	b.n	10008fc8 <tud_task_ext+0x124>
10009592:	4b53      	ldr	r3, [pc, #332]	; (100096e0 <tud_task_ext+0x83c>)
10009594:	4f53      	ldr	r7, [pc, #332]	; (100096e4 <tud_task_ext+0x840>)
10009596:	4641      	mov	r1, r8
10009598:	4650      	mov	r0, sl
1000959a:	9a02      	ldr	r2, [sp, #8]
1000959c:	4798      	blx	r3
1000959e:	2808      	cmp	r0, #8
100095a0:	d903      	bls.n	100095aa <tud_task_ext+0x706>
100095a2:	9a02      	ldr	r2, [sp, #8]
100095a4:	4282      	cmp	r2, r0
100095a6:	d300      	bcc.n	100095aa <tud_task_ext+0x706>
100095a8:	e08a      	b.n	100096c0 <tud_task_ext+0x81c>
100095aa:	9b04      	ldr	r3, [sp, #16]
100095ac:	3601      	adds	r6, #1
100095ae:	781b      	ldrb	r3, [r3, #0]
100095b0:	b2f6      	uxtb	r6, r6
100095b2:	42b3      	cmp	r3, r6
100095b4:	d2e9      	bcs.n	1000958a <tud_task_ext+0x6e6>
100095b6:	e507      	b.n	10008fc8 <tud_task_ext+0x124>
100095b8:	4650      	mov	r0, sl
100095ba:	f7ff fb4f 	bl	10008c5c <dcd_edpt_close_all>
100095be:	78b3      	ldrb	r3, [r6, #2]
100095c0:	4a45      	ldr	r2, [pc, #276]	; (100096d8 <tud_task_ext+0x834>)
100095c2:	9300      	str	r3, [sp, #0]
100095c4:	4b45      	ldr	r3, [pc, #276]	; (100096dc <tud_task_ext+0x838>)
100095c6:	2600      	movs	r6, #0
100095c8:	4698      	mov	r8, r3
100095ca:	781b      	ldrb	r3, [r3, #0]
100095cc:	2a00      	cmp	r2, #0
100095ce:	d00d      	beq.n	100095ec <tud_task_ext+0x748>
100095d0:	4f45      	ldr	r7, [pc, #276]	; (100096e8 <tud_task_ext+0x844>)
100095d2:	42b3      	cmp	r3, r6
100095d4:	d825      	bhi.n	10009622 <tud_task_ext+0x77e>
100095d6:	d120      	bne.n	1000961a <tud_task_ext+0x776>
100095d8:	4b44      	ldr	r3, [pc, #272]	; (100096ec <tud_task_ext+0x848>)
100095da:	4650      	mov	r0, sl
100095dc:	4798      	blx	r3
100095de:	4643      	mov	r3, r8
100095e0:	3601      	adds	r6, #1
100095e2:	781b      	ldrb	r3, [r3, #0]
100095e4:	b2f6      	uxtb	r6, r6
100095e6:	42b3      	cmp	r3, r6
100095e8:	d2f3      	bcs.n	100095d2 <tud_task_ext+0x72e>
100095ea:	e006      	b.n	100095fa <tud_task_ext+0x756>
100095ec:	4650      	mov	r0, sl
100095ee:	f000 fb6b 	bl	10009cc8 <cdcd_reset>
100095f2:	4643      	mov	r3, r8
100095f4:	781b      	ldrb	r3, [r3, #0]
100095f6:	2b00      	cmp	r3, #0
100095f8:	d10f      	bne.n	1000961a <tud_task_ext+0x776>
100095fa:	2253      	movs	r2, #83	; 0x53
100095fc:	2100      	movs	r1, #0
100095fe:	4658      	mov	r0, fp
10009600:	f7fe fc6e 	bl	10007ee0 <__wrap_memset>
10009604:	465b      	mov	r3, fp
10009606:	2210      	movs	r2, #16
10009608:	21ff      	movs	r1, #255	; 0xff
1000960a:	1cd8      	adds	r0, r3, #3
1000960c:	f7fe fc68 	bl	10007ee0 <__wrap_memset>
10009610:	2220      	movs	r2, #32
10009612:	21ff      	movs	r1, #255	; 0xff
10009614:	4836      	ldr	r0, [pc, #216]	; (100096f0 <tud_task_ext+0x84c>)
10009616:	f7fe fc63 	bl	10007ee0 <__wrap_memset>
1000961a:	465b      	mov	r3, fp
1000961c:	9a00      	ldr	r2, [sp, #0]
1000961e:	709a      	strb	r2, [r3, #2]
10009620:	e684      	b.n	1000932c <tud_task_ext+0x488>
10009622:	2318      	movs	r3, #24
10009624:	683a      	ldr	r2, [r7, #0]
10009626:	4373      	muls	r3, r6
10009628:	4694      	mov	ip, r2
1000962a:	4463      	add	r3, ip
1000962c:	2b00      	cmp	r3, #0
1000962e:	d0f4      	beq.n	1000961a <tud_task_ext+0x776>
10009630:	685b      	ldr	r3, [r3, #4]
10009632:	e7d2      	b.n	100095da <tud_task_ext+0x736>
10009634:	f7ff f9de 	bl	100089f4 <tud_descriptor_configuration_cb>
10009638:	0002      	movs	r2, r0
1000963a:	e6f0      	b.n	1000941e <tud_task_ext+0x57a>
1000963c:	4b2a      	ldr	r3, [pc, #168]	; (100096e8 <tud_task_ext+0x844>)
1000963e:	681f      	ldr	r7, [r3, #0]
10009640:	2318      	movs	r3, #24
10009642:	4373      	muls	r3, r6
10009644:	18ff      	adds	r7, r7, r3
10009646:	2f00      	cmp	r7, #0
10009648:	d100      	bne.n	1000964c <tud_task_ext+0x7a8>
1000964a:	e4bd      	b.n	10008fc8 <tud_task_ext+0x124>
1000964c:	68bb      	ldr	r3, [r7, #8]
1000964e:	e7a2      	b.n	10009596 <tud_task_ext+0x6f2>
10009650:	9b02      	ldr	r3, [sp, #8]
10009652:	0039      	movs	r1, r7
10009654:	001a      	movs	r2, r3
10009656:	4650      	mov	r0, sl
10009658:	4698      	mov	r8, r3
1000965a:	f000 fb4b 	bl	10009cf4 <cdcd_open>
1000965e:	2808      	cmp	r0, #8
10009660:	d800      	bhi.n	10009664 <tud_task_ext+0x7c0>
10009662:	e4b1      	b.n	10008fc8 <tud_task_ext+0x124>
10009664:	4642      	mov	r2, r8
10009666:	4282      	cmp	r2, r0
10009668:	d200      	bcs.n	1000966c <tud_task_ext+0x7c8>
1000966a:	e4ad      	b.n	10008fc8 <tud_task_ext+0x124>
1000966c:	4b1d      	ldr	r3, [pc, #116]	; (100096e4 <tud_task_ext+0x840>)
1000966e:	4698      	mov	r8, r3
10009670:	9b00      	ldr	r3, [sp, #0]
10009672:	2b01      	cmp	r3, #1
10009674:	d028      	beq.n	100096c8 <tud_task_ext+0x824>
10009676:	2200      	movs	r2, #0
10009678:	e00a      	b.n	10009690 <tud_task_ext+0x7ec>
1000967a:	78bb      	ldrb	r3, [r7, #2]
1000967c:	18d3      	adds	r3, r2, r3
1000967e:	b2db      	uxtb	r3, r3
10009680:	445b      	add	r3, fp
10009682:	78d9      	ldrb	r1, [r3, #3]
10009684:	29ff      	cmp	r1, #255	; 0xff
10009686:	d000      	beq.n	1000968a <tud_task_ext+0x7e6>
10009688:	e49e      	b.n	10008fc8 <tud_task_ext+0x124>
1000968a:	3201      	adds	r2, #1
1000968c:	70de      	strb	r6, [r3, #3]
1000968e:	b2d2      	uxtb	r2, r2
10009690:	9b00      	ldr	r3, [sp, #0]
10009692:	429a      	cmp	r2, r3
10009694:	d1f1      	bne.n	1000967a <tud_task_ext+0x7d6>
10009696:	4680      	mov	r8, r0
10009698:	0033      	movs	r3, r6
1000969a:	0002      	movs	r2, r0
1000969c:	0039      	movs	r1, r7
1000969e:	4814      	ldr	r0, [pc, #80]	; (100096f0 <tud_task_ext+0x84c>)
100096a0:	f000 fd3c 	bl	1000a11c <tu_edpt_bind_driver>
100096a4:	9b04      	ldr	r3, [sp, #16]
100096a6:	4447      	add	r7, r8
100096a8:	781b      	ldrb	r3, [r3, #0]
100096aa:	42b3      	cmp	r3, r6
100096ac:	d300      	bcc.n	100096b0 <tud_task_ext+0x80c>
100096ae:	e74f      	b.n	10009550 <tud_task_ext+0x6ac>
100096b0:	e48a      	b.n	10008fc8 <tud_task_ext+0x124>
100096b2:	4b10      	ldr	r3, [pc, #64]	; (100096f4 <tud_task_ext+0x850>)
100096b4:	2b00      	cmp	r3, #0
100096b6:	d100      	bne.n	100096ba <tud_task_ext+0x816>
100096b8:	e63c      	b.n	10009334 <tud_task_ext+0x490>
100096ba:	e000      	b.n	100096be <tud_task_ext+0x81a>
100096bc:	bf00      	nop
100096be:	e639      	b.n	10009334 <tud_task_ext+0x490>
100096c0:	003b      	movs	r3, r7
100096c2:	4647      	mov	r7, r8
100096c4:	4698      	mov	r8, r3
100096c6:	e7d3      	b.n	10009670 <tud_task_ext+0x7cc>
100096c8:	4642      	mov	r2, r8
100096ca:	4b05      	ldr	r3, [pc, #20]	; (100096e0 <tud_task_ext+0x83c>)
100096cc:	6892      	ldr	r2, [r2, #8]
100096ce:	429a      	cmp	r2, r3
100096d0:	d1d1      	bne.n	10009676 <tud_task_ext+0x7d2>
100096d2:	9b05      	ldr	r3, [sp, #20]
100096d4:	9300      	str	r3, [sp, #0]
100096d6:	e7ce      	b.n	10009676 <tud_task_ext+0x7d2>
100096d8:	10008601 	.word	0x10008601
100096dc:	20002c7e 	.word	0x20002c7e
100096e0:	10009cf5 	.word	0x10009cf5
100096e4:	10042690 	.word	0x10042690
100096e8:	20001404 	.word	0x20001404
100096ec:	10009cc9 	.word	0x10009cc9
100096f0:	2000173f 	.word	0x2000173f
100096f4:	00000000 	.word	0x00000000

100096f8 <usbd_open_edpt_pair>:
100096f8:	b5f8      	push	{r3, r4, r5, r6, r7, lr}
100096fa:	4657      	mov	r7, sl
100096fc:	464e      	mov	r6, r9
100096fe:	46de      	mov	lr, fp
10009700:	4645      	mov	r5, r8
10009702:	000c      	movs	r4, r1
10009704:	b5e0      	push	{r5, r6, r7, lr}
10009706:	0016      	movs	r6, r2
10009708:	001f      	movs	r7, r3
1000970a:	2a00      	cmp	r2, #0
1000970c:	d03c      	beq.n	10009788 <usbd_open_edpt_pair+0x90>
1000970e:	2370      	movs	r3, #112	; 0x70
10009710:	4698      	mov	r8, r3
10009712:	4b1e      	ldr	r3, [pc, #120]	; (1000978c <usbd_open_edpt_pair+0x94>)
10009714:	2500      	movs	r5, #0
10009716:	469b      	mov	fp, r3
10009718:	4b1d      	ldr	r3, [pc, #116]	; (10009790 <usbd_open_edpt_pair+0x98>)
1000971a:	469a      	mov	sl, r3
1000971c:	e01a      	b.n	10009754 <usbd_open_edpt_pair+0x5c>
1000971e:	465b      	mov	r3, fp
10009720:	781b      	ldrb	r3, [r3, #0]
10009722:	0020      	movs	r0, r4
10009724:	4699      	mov	r9, r3
10009726:	4653      	mov	r3, sl
10009728:	7899      	ldrb	r1, [r3, #2]
1000972a:	f000 fcbb 	bl	1000a0a4 <tu_edpt_validate>
1000972e:	2800      	cmp	r0, #0
10009730:	d01c      	beq.n	1000976c <usbd_open_edpt_pair+0x74>
10009732:	0021      	movs	r1, r4
10009734:	4648      	mov	r0, r9
10009736:	f7ff fa0d 	bl	10008b54 <dcd_edpt_open>
1000973a:	2800      	cmp	r0, #0
1000973c:	d016      	beq.n	1000976c <usbd_open_edpt_pair+0x74>
1000973e:	78a3      	ldrb	r3, [r4, #2]
10009740:	09da      	lsrs	r2, r3, #7
10009742:	2a01      	cmp	r2, #1
10009744:	d019      	beq.n	1000977a <usbd_open_edpt_pair+0x82>
10009746:	9a0a      	ldr	r2, [sp, #40]	; 0x28
10009748:	3501      	adds	r5, #1
1000974a:	7013      	strb	r3, [r2, #0]
1000974c:	7823      	ldrb	r3, [r4, #0]
1000974e:	18e4      	adds	r4, r4, r3
10009750:	42b5      	cmp	r5, r6
10009752:	da19      	bge.n	10009788 <usbd_open_edpt_pair+0x90>
10009754:	7863      	ldrb	r3, [r4, #1]
10009756:	2b05      	cmp	r3, #5
10009758:	d108      	bne.n	1000976c <usbd_open_edpt_pair+0x74>
1000975a:	78e3      	ldrb	r3, [r4, #3]
1000975c:	079b      	lsls	r3, r3, #30
1000975e:	0f9b      	lsrs	r3, r3, #30
10009760:	42bb      	cmp	r3, r7
10009762:	d103      	bne.n	1000976c <usbd_open_edpt_pair+0x74>
10009764:	4642      	mov	r2, r8
10009766:	78a3      	ldrb	r3, [r4, #2]
10009768:	421a      	tst	r2, r3
1000976a:	d0d8      	beq.n	1000971e <usbd_open_edpt_pair+0x26>
1000976c:	2000      	movs	r0, #0
1000976e:	bcf0      	pop	{r4, r5, r6, r7}
10009770:	46bb      	mov	fp, r7
10009772:	46b2      	mov	sl, r6
10009774:	46a9      	mov	r9, r5
10009776:	46a0      	mov	r8, r4
10009778:	bdf8      	pop	{r3, r4, r5, r6, r7, pc}
1000977a:	9a0b      	ldr	r2, [sp, #44]	; 0x2c
1000977c:	3501      	adds	r5, #1
1000977e:	7013      	strb	r3, [r2, #0]
10009780:	7823      	ldrb	r3, [r4, #0]
10009782:	18e4      	adds	r4, r4, r3
10009784:	42b5      	cmp	r5, r6
10009786:	dbe5      	blt.n	10009754 <usbd_open_edpt_pair+0x5c>
10009788:	2001      	movs	r0, #1
1000978a:	e7f0      	b.n	1000976e <usbd_open_edpt_pair+0x76>
1000978c:	20001174 	.word	0x20001174
10009790:	2000172c 	.word	0x2000172c

10009794 <usbd_defer_func>:
10009794:	2380      	movs	r3, #128	; 0x80
10009796:	b510      	push	{r4, lr}
10009798:	011b      	lsls	r3, r3, #4
1000979a:	b084      	sub	sp, #16
1000979c:	9301      	str	r3, [sp, #4]
1000979e:	4b0e      	ldr	r3, [pc, #56]	; (100097d8 <usbd_defer_func+0x44>)
100097a0:	9002      	str	r0, [sp, #8]
100097a2:	681c      	ldr	r4, [r3, #0]
100097a4:	9103      	str	r1, [sp, #12]
100097a6:	6962      	ldr	r2, [r4, #20]
100097a8:	f3ef 8310 	mrs	r3, PRIMASK
100097ac:	b672      	cpsid	i
100097ae:	6811      	ldr	r1, [r2, #0]
100097b0:	2900      	cmp	r1, #0
100097b2:	d0fc      	beq.n	100097ae <usbd_defer_func+0x1a>
100097b4:	f3bf 8f5f 	dmb	sy
100097b8:	61a3      	str	r3, [r4, #24]
100097ba:	0020      	movs	r0, r4
100097bc:	a901      	add	r1, sp, #4
100097be:	f000 fdf9 	bl	1000a3b4 <tu_fifo_write>
100097c2:	6962      	ldr	r2, [r4, #20]
100097c4:	69a3      	ldr	r3, [r4, #24]
100097c6:	f3bf 8f5f 	dmb	sy
100097ca:	2100      	movs	r1, #0
100097cc:	6011      	str	r1, [r2, #0]
100097ce:	f383 8810 	msr	PRIMASK, r3
100097d2:	b004      	add	sp, #16
100097d4:	bd10      	pop	{r4, pc}
100097d6:	46c0      	nop			; (mov r8, r8)
100097d8:	20001784 	.word	0x20001784

100097dc <usbd_edpt_open>:
100097dc:	2270      	movs	r2, #112	; 0x70
100097de:	b570      	push	{r4, r5, r6, lr}
100097e0:	788b      	ldrb	r3, [r1, #2]
100097e2:	000c      	movs	r4, r1
100097e4:	421a      	tst	r2, r3
100097e6:	d001      	beq.n	100097ec <usbd_edpt_open+0x10>
100097e8:	2000      	movs	r0, #0
100097ea:	bd70      	pop	{r4, r5, r6, pc}
100097ec:	4b06      	ldr	r3, [pc, #24]	; (10009808 <usbd_edpt_open+0x2c>)
100097ee:	0020      	movs	r0, r4
100097f0:	781d      	ldrb	r5, [r3, #0]
100097f2:	4b06      	ldr	r3, [pc, #24]	; (1000980c <usbd_edpt_open+0x30>)
100097f4:	7899      	ldrb	r1, [r3, #2]
100097f6:	f000 fc55 	bl	1000a0a4 <tu_edpt_validate>
100097fa:	2800      	cmp	r0, #0
100097fc:	d0f4      	beq.n	100097e8 <usbd_edpt_open+0xc>
100097fe:	0021      	movs	r1, r4
10009800:	0028      	movs	r0, r5
10009802:	f7ff f9a7 	bl	10008b54 <dcd_edpt_open>
10009806:	e7f0      	b.n	100097ea <usbd_edpt_open+0xe>
10009808:	20001174 	.word	0x20001174
1000980c:	2000172c 	.word	0x2000172c

10009810 <usbd_edpt_claim>:
10009810:	4b07      	ldr	r3, [pc, #28]	; (10009830 <usbd_edpt_claim+0x20>)
10009812:	0008      	movs	r0, r1
10009814:	6819      	ldr	r1, [r3, #0]
10009816:	237f      	movs	r3, #127	; 0x7f
10009818:	b510      	push	{r4, lr}
1000981a:	4003      	ands	r3, r0
1000981c:	09c0      	lsrs	r0, r0, #7
1000981e:	005b      	lsls	r3, r3, #1
10009820:	3033      	adds	r0, #51	; 0x33
10009822:	1818      	adds	r0, r3, r0
10009824:	4b03      	ldr	r3, [pc, #12]	; (10009834 <usbd_edpt_claim+0x24>)
10009826:	1818      	adds	r0, r3, r0
10009828:	f000 fbf8 	bl	1000a01c <tu_edpt_claim>
1000982c:	bd10      	pop	{r4, pc}
1000982e:	46c0      	nop			; (mov r8, r8)
10009830:	20001780 	.word	0x20001780
10009834:	2000172c 	.word	0x2000172c

10009838 <usbd_edpt_release>:
10009838:	4b07      	ldr	r3, [pc, #28]	; (10009858 <usbd_edpt_release+0x20>)
1000983a:	0008      	movs	r0, r1
1000983c:	6819      	ldr	r1, [r3, #0]
1000983e:	237f      	movs	r3, #127	; 0x7f
10009840:	b510      	push	{r4, lr}
10009842:	4003      	ands	r3, r0
10009844:	09c0      	lsrs	r0, r0, #7
10009846:	005b      	lsls	r3, r3, #1
10009848:	3033      	adds	r0, #51	; 0x33
1000984a:	1818      	adds	r0, r3, r0
1000984c:	4b03      	ldr	r3, [pc, #12]	; (1000985c <usbd_edpt_release+0x24>)
1000984e:	1818      	adds	r0, r3, r0
10009850:	f000 fc0c 	bl	1000a06c <tu_edpt_release>
10009854:	bd10      	pop	{r4, pc}
10009856:	46c0      	nop			; (mov r8, r8)
10009858:	20001780 	.word	0x20001780
1000985c:	2000172c 	.word	0x2000172c

10009860 <usbd_edpt_xfer>:
10009860:	207f      	movs	r0, #127	; 0x7f
10009862:	b570      	push	{r4, r5, r6, lr}
10009864:	4008      	ands	r0, r1
10009866:	4c0f      	ldr	r4, [pc, #60]	; (100098a4 <usbd_edpt_xfer+0x44>)
10009868:	0040      	lsls	r0, r0, #1
1000986a:	09cd      	lsrs	r5, r1, #7
1000986c:	1824      	adds	r4, r4, r0
1000986e:	1964      	adds	r4, r4, r5
10009870:	3430      	adds	r4, #48	; 0x30
10009872:	78e5      	ldrb	r5, [r4, #3]
10009874:	2000      	movs	r0, #0
10009876:	07ed      	lsls	r5, r5, #31
10009878:	d500      	bpl.n	1000987c <usbd_edpt_xfer+0x1c>
1000987a:	bd70      	pop	{r4, r5, r6, pc}
1000987c:	2601      	movs	r6, #1
1000987e:	78e5      	ldrb	r5, [r4, #3]
10009880:	4809      	ldr	r0, [pc, #36]	; (100098a8 <usbd_edpt_xfer+0x48>)
10009882:	4335      	orrs	r5, r6
10009884:	7800      	ldrb	r0, [r0, #0]
10009886:	70e5      	strb	r5, [r4, #3]
10009888:	f7ff f9ec 	bl	10008c64 <dcd_edpt_xfer>
1000988c:	2800      	cmp	r0, #0
1000988e:	d1f4      	bne.n	1000987a <usbd_edpt_xfer+0x1a>
10009890:	2201      	movs	r2, #1
10009892:	78e3      	ldrb	r3, [r4, #3]
10009894:	4393      	bics	r3, r2
10009896:	70e3      	strb	r3, [r4, #3]
10009898:	78e3      	ldrb	r3, [r4, #3]
1000989a:	3203      	adds	r2, #3
1000989c:	4393      	bics	r3, r2
1000989e:	70e3      	strb	r3, [r4, #3]
100098a0:	e7eb      	b.n	1000987a <usbd_edpt_xfer+0x1a>
100098a2:	46c0      	nop			; (mov r8, r8)
100098a4:	2000172c 	.word	0x2000172c
100098a8:	20001174 	.word	0x20001174

100098ac <tud_control_status>:
100098ac:	b570      	push	{r4, r5, r6, lr}
100098ae:	4e0a      	ldr	r6, [pc, #40]	; (100098d8 <tud_control_status+0x2c>)
100098b0:	0005      	movs	r5, r0
100098b2:	0030      	movs	r0, r6
100098b4:	2208      	movs	r2, #8
100098b6:	000c      	movs	r4, r1
100098b8:	f7fe fb18 	bl	10007eec <__wrap___aeabi_memcpy>
100098bc:	2300      	movs	r3, #0
100098be:	217f      	movs	r1, #127	; 0x7f
100098c0:	60f3      	str	r3, [r6, #12]
100098c2:	7822      	ldrb	r2, [r4, #0]
100098c4:	60b3      	str	r3, [r6, #8]
100098c6:	4291      	cmp	r1, r2
100098c8:	415b      	adcs	r3, r3
100098ca:	0028      	movs	r0, r5
100098cc:	01d9      	lsls	r1, r3, #7
100098ce:	2200      	movs	r2, #0
100098d0:	2300      	movs	r3, #0
100098d2:	f7ff ffc5 	bl	10009860 <usbd_edpt_xfer>
100098d6:	bd70      	pop	{r4, r5, r6, pc}
100098d8:	200016d0 	.word	0x200016d0

100098dc <tud_control_xfer>:
100098dc:	b5f8      	push	{r3, r4, r5, r6, r7, lr}
100098de:	46ce      	mov	lr, r9
100098e0:	4647      	mov	r7, r8
100098e2:	4691      	mov	r9, r2
100098e4:	4e2a      	ldr	r6, [pc, #168]	; (10009990 <tud_control_xfer+0xb4>)
100098e6:	b580      	push	{r7, lr}
100098e8:	2208      	movs	r2, #8
100098ea:	0007      	movs	r7, r0
100098ec:	0030      	movs	r0, r6
100098ee:	000d      	movs	r5, r1
100098f0:	4698      	mov	r8, r3
100098f2:	f7fe fafb 	bl	10007eec <__wrap___aeabi_memcpy>
100098f6:	464b      	mov	r3, r9
100098f8:	60b3      	str	r3, [r6, #8]
100098fa:	2300      	movs	r3, #0
100098fc:	81f3      	strh	r3, [r6, #14]
100098fe:	79ec      	ldrb	r4, [r5, #7]
10009900:	79a9      	ldrb	r1, [r5, #6]
10009902:	0224      	lsls	r4, r4, #8
10009904:	430c      	orrs	r4, r1
10009906:	1c23      	adds	r3, r4, #0
10009908:	4544      	cmp	r4, r8
1000990a:	d900      	bls.n	1000990e <tud_control_xfer+0x32>
1000990c:	4643      	mov	r3, r8
1000990e:	b29a      	uxth	r2, r3
10009910:	4690      	mov	r8, r2
10009912:	81b3      	strh	r3, [r6, #12]
10009914:	2c00      	cmp	r4, #0
10009916:	d013      	beq.n	10009940 <tud_control_xfer+0x64>
10009918:	2a00      	cmp	r2, #0
1000991a:	d01f      	beq.n	1000995c <tud_control_xfer+0x80>
1000991c:	464b      	mov	r3, r9
1000991e:	2b00      	cmp	r3, #0
10009920:	d034      	beq.n	1000998c <tud_control_xfer+0xb0>
10009922:	1c13      	adds	r3, r2, #0
10009924:	2a40      	cmp	r2, #64	; 0x40
10009926:	d81f      	bhi.n	10009968 <tud_control_xfer+0x8c>
10009928:	b29b      	uxth	r3, r3
1000992a:	4698      	mov	r8, r3
1000992c:	7833      	ldrb	r3, [r6, #0]
1000992e:	2b7f      	cmp	r3, #127	; 0x7f
10009930:	d820      	bhi.n	10009974 <tud_control_xfer+0x98>
10009932:	2100      	movs	r1, #0
10009934:	4a17      	ldr	r2, [pc, #92]	; (10009994 <tud_control_xfer+0xb8>)
10009936:	4643      	mov	r3, r8
10009938:	0038      	movs	r0, r7
1000993a:	f7ff ff91 	bl	10009860 <usbd_edpt_xfer>
1000993e:	e009      	b.n	10009954 <tud_control_xfer+0x78>
10009940:	227f      	movs	r2, #127	; 0x7f
10009942:	782b      	ldrb	r3, [r5, #0]
10009944:	0038      	movs	r0, r7
10009946:	429a      	cmp	r2, r3
10009948:	4164      	adcs	r4, r4
1000994a:	2300      	movs	r3, #0
1000994c:	2200      	movs	r2, #0
1000994e:	01e1      	lsls	r1, r4, #7
10009950:	f7ff ff86 	bl	10009860 <usbd_edpt_xfer>
10009954:	bcc0      	pop	{r6, r7}
10009956:	46b9      	mov	r9, r7
10009958:	46b0      	mov	r8, r6
1000995a:	bdf8      	pop	{r3, r4, r5, r6, r7, pc}
1000995c:	7833      	ldrb	r3, [r6, #0]
1000995e:	2b7f      	cmp	r3, #127	; 0x7f
10009960:	d911      	bls.n	10009986 <tud_control_xfer+0xaa>
10009962:	2180      	movs	r1, #128	; 0x80
10009964:	2200      	movs	r2, #0
10009966:	e7e6      	b.n	10009936 <tud_control_xfer+0x5a>
10009968:	2340      	movs	r3, #64	; 0x40
1000996a:	b29b      	uxth	r3, r3
1000996c:	4698      	mov	r8, r3
1000996e:	7833      	ldrb	r3, [r6, #0]
10009970:	2b7f      	cmp	r3, #127	; 0x7f
10009972:	d9de      	bls.n	10009932 <tud_control_xfer+0x56>
10009974:	4c07      	ldr	r4, [pc, #28]	; (10009994 <tud_control_xfer+0xb8>)
10009976:	4642      	mov	r2, r8
10009978:	4649      	mov	r1, r9
1000997a:	0020      	movs	r0, r4
1000997c:	f7fe fab6 	bl	10007eec <__wrap___aeabi_memcpy>
10009980:	2180      	movs	r1, #128	; 0x80
10009982:	0022      	movs	r2, r4
10009984:	e7d7      	b.n	10009936 <tud_control_xfer+0x5a>
10009986:	2100      	movs	r1, #0
10009988:	2200      	movs	r2, #0
1000998a:	e7d4      	b.n	10009936 <tud_control_xfer+0x5a>
1000998c:	2000      	movs	r0, #0
1000998e:	e7e1      	b.n	10009954 <tud_control_xfer+0x78>
10009990:	200016d0 	.word	0x200016d0
10009994:	200016ec 	.word	0x200016ec

10009998 <usbd_control_reset>:
10009998:	b510      	push	{r4, lr}
1000999a:	2214      	movs	r2, #20
1000999c:	2100      	movs	r1, #0
1000999e:	4802      	ldr	r0, [pc, #8]	; (100099a8 <usbd_control_reset+0x10>)
100099a0:	f7fe fa9e 	bl	10007ee0 <__wrap_memset>
100099a4:	bd10      	pop	{r4, pc}
100099a6:	46c0      	nop			; (mov r8, r8)
100099a8:	200016d0 	.word	0x200016d0

100099ac <usbd_control_set_complete_callback>:
100099ac:	4b01      	ldr	r3, [pc, #4]	; (100099b4 <usbd_control_set_complete_callback+0x8>)
100099ae:	6118      	str	r0, [r3, #16]
100099b0:	4770      	bx	lr
100099b2:	46c0      	nop			; (mov r8, r8)
100099b4:	200016d0 	.word	0x200016d0

100099b8 <usbd_control_set_request>:
100099b8:	b510      	push	{r4, lr}
100099ba:	4c05      	ldr	r4, [pc, #20]	; (100099d0 <usbd_control_set_request+0x18>)
100099bc:	0001      	movs	r1, r0
100099be:	2208      	movs	r2, #8
100099c0:	0020      	movs	r0, r4
100099c2:	f7fe fa93 	bl	10007eec <__wrap___aeabi_memcpy>
100099c6:	2300      	movs	r3, #0
100099c8:	60a3      	str	r3, [r4, #8]
100099ca:	60e3      	str	r3, [r4, #12]
100099cc:	bd10      	pop	{r4, pc}
100099ce:	46c0      	nop			; (mov r8, r8)
100099d0:	200016d0 	.word	0x200016d0

100099d4 <usbd_control_xfer_cb>:
100099d4:	b5f8      	push	{r3, r4, r5, r6, r7, lr}
100099d6:	4c3b      	ldr	r4, [pc, #236]	; (10009ac4 <usbd_control_xfer_cb+0xf0>)
100099d8:	001d      	movs	r5, r3
100099da:	7823      	ldrb	r3, [r4, #0]
100099dc:	0006      	movs	r6, r0
100099de:	09da      	lsrs	r2, r3, #7
100099e0:	09c9      	lsrs	r1, r1, #7
100099e2:	428a      	cmp	r2, r1
100099e4:	d013      	beq.n	10009a0e <usbd_control_xfer_cb+0x3a>
100099e6:	2000      	movs	r0, #0
100099e8:	2d00      	cmp	r5, #0
100099ea:	d000      	beq.n	100099ee <usbd_control_xfer_cb+0x1a>
100099ec:	bdf8      	pop	{r3, r4, r5, r6, r7, pc}
100099ee:	4b36      	ldr	r3, [pc, #216]	; (10009ac8 <usbd_control_xfer_cb+0xf4>)
100099f0:	2b00      	cmp	r3, #0
100099f2:	d003      	beq.n	100099fc <usbd_control_xfer_cb+0x28>
100099f4:	0021      	movs	r1, r4
100099f6:	0030      	movs	r0, r6
100099f8:	f7ff f89e 	bl	10008b38 <dcd_edpt0_status_complete>
100099fc:	6923      	ldr	r3, [r4, #16]
100099fe:	2b00      	cmp	r3, #0
10009a00:	d044      	beq.n	10009a8c <usbd_control_xfer_cb+0xb8>
10009a02:	0022      	movs	r2, r4
10009a04:	2103      	movs	r1, #3
10009a06:	0030      	movs	r0, r6
10009a08:	4798      	blx	r3
10009a0a:	2001      	movs	r0, #1
10009a0c:	e7ee      	b.n	100099ec <usbd_control_xfer_cb+0x18>
10009a0e:	2b7f      	cmp	r3, #127	; 0x7f
10009a10:	d806      	bhi.n	10009a20 <usbd_control_xfer_cb+0x4c>
10009a12:	68a0      	ldr	r0, [r4, #8]
10009a14:	2800      	cmp	r0, #0
10009a16:	d037      	beq.n	10009a88 <usbd_control_xfer_cb+0xb4>
10009a18:	002a      	movs	r2, r5
10009a1a:	492c      	ldr	r1, [pc, #176]	; (10009acc <usbd_control_xfer_cb+0xf8>)
10009a1c:	f7fe fa66 	bl	10007eec <__wrap___aeabi_memcpy>
10009a20:	68a3      	ldr	r3, [r4, #8]
10009a22:	89e2      	ldrh	r2, [r4, #14]
10009a24:	1959      	adds	r1, r3, r5
10009a26:	1952      	adds	r2, r2, r5
10009a28:	88e3      	ldrh	r3, [r4, #6]
10009a2a:	b292      	uxth	r2, r2
10009a2c:	81e2      	strh	r2, [r4, #14]
10009a2e:	60a1      	str	r1, [r4, #8]
10009a30:	4293      	cmp	r3, r2
10009a32:	d014      	beq.n	10009a5e <usbd_control_xfer_cb+0x8a>
10009a34:	2d3f      	cmp	r5, #63	; 0x3f
10009a36:	d912      	bls.n	10009a5e <usbd_control_xfer_cb+0x8a>
10009a38:	89a5      	ldrh	r5, [r4, #12]
10009a3a:	1aa8      	subs	r0, r5, r2
10009a3c:	1c07      	adds	r7, r0, #0
10009a3e:	b280      	uxth	r0, r0
10009a40:	2840      	cmp	r0, #64	; 0x40
10009a42:	d82f      	bhi.n	10009aa4 <usbd_control_xfer_cb+0xd0>
10009a44:	7823      	ldrb	r3, [r4, #0]
10009a46:	b2bf      	uxth	r7, r7
10009a48:	2b7f      	cmp	r3, #127	; 0x7f
10009a4a:	d82d      	bhi.n	10009aa8 <usbd_control_xfer_cb+0xd4>
10009a4c:	2100      	movs	r1, #0
10009a4e:	42aa      	cmp	r2, r5
10009a50:	d035      	beq.n	10009abe <usbd_control_xfer_cb+0xea>
10009a52:	4a1e      	ldr	r2, [pc, #120]	; (10009acc <usbd_control_xfer_cb+0xf8>)
10009a54:	003b      	movs	r3, r7
10009a56:	0030      	movs	r0, r6
10009a58:	f7ff ff02 	bl	10009860 <usbd_edpt_xfer>
10009a5c:	e7c6      	b.n	100099ec <usbd_control_xfer_cb+0x18>
10009a5e:	6923      	ldr	r3, [r4, #16]
10009a60:	2b00      	cmp	r3, #0
10009a62:	d005      	beq.n	10009a70 <usbd_control_xfer_cb+0x9c>
10009a64:	0022      	movs	r2, r4
10009a66:	2102      	movs	r1, #2
10009a68:	0030      	movs	r0, r6
10009a6a:	4798      	blx	r3
10009a6c:	2800      	cmp	r0, #0
10009a6e:	d00f      	beq.n	10009a90 <usbd_control_xfer_cb+0xbc>
10009a70:	227f      	movs	r2, #127	; 0x7f
10009a72:	2100      	movs	r1, #0
10009a74:	7823      	ldrb	r3, [r4, #0]
10009a76:	0030      	movs	r0, r6
10009a78:	429a      	cmp	r2, r3
10009a7a:	4149      	adcs	r1, r1
10009a7c:	2300      	movs	r3, #0
10009a7e:	2200      	movs	r2, #0
10009a80:	01c9      	lsls	r1, r1, #7
10009a82:	f7ff feed 	bl	10009860 <usbd_edpt_xfer>
10009a86:	e7b1      	b.n	100099ec <usbd_control_xfer_cb+0x18>
10009a88:	2000      	movs	r0, #0
10009a8a:	e7af      	b.n	100099ec <usbd_control_xfer_cb+0x18>
10009a8c:	2001      	movs	r0, #1
10009a8e:	e7ad      	b.n	100099ec <usbd_control_xfer_cb+0x18>
10009a90:	2100      	movs	r1, #0
10009a92:	0030      	movs	r0, r6
10009a94:	f7ff f8f8 	bl	10008c88 <dcd_edpt_stall>
10009a98:	0030      	movs	r0, r6
10009a9a:	2180      	movs	r1, #128	; 0x80
10009a9c:	f7ff f8f4 	bl	10008c88 <dcd_edpt_stall>
10009aa0:	2001      	movs	r0, #1
10009aa2:	e7a3      	b.n	100099ec <usbd_control_xfer_cb+0x18>
10009aa4:	2740      	movs	r7, #64	; 0x40
10009aa6:	e7cd      	b.n	10009a44 <usbd_control_xfer_cb+0x70>
10009aa8:	42aa      	cmp	r2, r5
10009aaa:	d007      	beq.n	10009abc <usbd_control_xfer_cb+0xe8>
10009aac:	4c07      	ldr	r4, [pc, #28]	; (10009acc <usbd_control_xfer_cb+0xf8>)
10009aae:	003a      	movs	r2, r7
10009ab0:	0020      	movs	r0, r4
10009ab2:	f7fe fa1b 	bl	10007eec <__wrap___aeabi_memcpy>
10009ab6:	2180      	movs	r1, #128	; 0x80
10009ab8:	0022      	movs	r2, r4
10009aba:	e7cb      	b.n	10009a54 <usbd_control_xfer_cb+0x80>
10009abc:	2180      	movs	r1, #128	; 0x80
10009abe:	2200      	movs	r2, #0
10009ac0:	e7c8      	b.n	10009a54 <usbd_control_xfer_cb+0x80>
10009ac2:	46c0      	nop			; (mov r8, r8)
10009ac4:	200016d0 	.word	0x200016d0
10009ac8:	10008b39 	.word	0x10008b39
10009acc:	200016ec 	.word	0x200016ec

10009ad0 <tud_cdc_n_connected>:
10009ad0:	b510      	push	{r4, lr}
10009ad2:	0004      	movs	r4, r0
10009ad4:	f7ff f95a 	bl	10008d8c <tud_mounted>
10009ad8:	2800      	cmp	r0, #0
10009ada:	d101      	bne.n	10009ae0 <tud_cdc_n_connected+0x10>
10009adc:	2000      	movs	r0, #0
10009ade:	bd10      	pop	{r4, pc}
10009ae0:	f7ff f95c 	bl	10008d9c <tud_suspended>
10009ae4:	2800      	cmp	r0, #0
10009ae6:	d1f9      	bne.n	10009adc <tud_cdc_n_connected+0xc>
10009ae8:	20b2      	movs	r0, #178	; 0xb2
10009aea:	0080      	lsls	r0, r0, #2
10009aec:	4344      	muls	r4, r0
10009aee:	4803      	ldr	r0, [pc, #12]	; (10009afc <tud_cdc_n_connected+0x2c>)
10009af0:	1900      	adds	r0, r0, r4
10009af2:	7903      	ldrb	r3, [r0, #4]
10009af4:	2001      	movs	r0, #1
10009af6:	4018      	ands	r0, r3
10009af8:	e7f1      	b.n	10009ade <tud_cdc_n_connected+0xe>
10009afa:	46c0      	nop			; (mov r8, r8)
10009afc:	20001408 	.word	0x20001408

10009b00 <tud_cdc_n_available>:
10009b00:	23b2      	movs	r3, #178	; 0xb2
10009b02:	009b      	lsls	r3, r3, #2
10009b04:	4358      	muls	r0, r3
10009b06:	b510      	push	{r4, lr}
10009b08:	4b02      	ldr	r3, [pc, #8]	; (10009b14 <tud_cdc_n_available+0x14>)
10009b0a:	3010      	adds	r0, #16
10009b0c:	18c0      	adds	r0, r0, r3
10009b0e:	f000 fb57 	bl	1000a1c0 <tu_fifo_count>
10009b12:	bd10      	pop	{r4, pc}
10009b14:	20001408 	.word	0x20001408

10009b18 <tud_cdc_n_read>:
10009b18:	b5f0      	push	{r4, r5, r6, r7, lr}
10009b1a:	25b2      	movs	r5, #178	; 0xb2
10009b1c:	00ad      	lsls	r5, r5, #2
10009b1e:	4345      	muls	r5, r0
10009b20:	002c      	movs	r4, r5
10009b22:	46c6      	mov	lr, r8
10009b24:	4f17      	ldr	r7, [pc, #92]	; (10009b84 <tud_cdc_n_read+0x6c>)
10009b26:	3410      	adds	r4, #16
10009b28:	19e4      	adds	r4, r4, r7
10009b2a:	b500      	push	{lr}
10009b2c:	0020      	movs	r0, r4
10009b2e:	b292      	uxth	r2, r2
10009b30:	f000 fbca 	bl	1000a2c8 <tu_fifo_read_n>
10009b34:	0006      	movs	r6, r0
10009b36:	0020      	movs	r0, r4
10009b38:	f000 fb60 	bl	1000a1fc <tu_fifo_remaining>
10009b3c:	283f      	cmp	r0, #63	; 0x3f
10009b3e:	d803      	bhi.n	10009b48 <tud_cdc_n_read+0x30>
10009b40:	0030      	movs	r0, r6
10009b42:	bc80      	pop	{r7}
10009b44:	46b8      	mov	r8, r7
10009b46:	bdf0      	pop	{r4, r5, r6, r7, pc}
10009b48:	197b      	adds	r3, r7, r5
10009b4a:	2000      	movs	r0, #0
10009b4c:	78d9      	ldrb	r1, [r3, #3]
10009b4e:	4698      	mov	r8, r3
10009b50:	f7ff fe5e 	bl	10009810 <usbd_edpt_claim>
10009b54:	2800      	cmp	r0, #0
10009b56:	d0f3      	beq.n	10009b40 <tud_cdc_n_read+0x28>
10009b58:	0020      	movs	r0, r4
10009b5a:	f000 fb4f 	bl	1000a1fc <tu_fifo_remaining>
10009b5e:	283f      	cmp	r0, #63	; 0x3f
10009b60:	d90a      	bls.n	10009b78 <tud_cdc_n_read+0x60>
10009b62:	2392      	movs	r3, #146	; 0x92
10009b64:	009b      	lsls	r3, r3, #2
10009b66:	18ea      	adds	r2, r5, r3
10009b68:	4643      	mov	r3, r8
10009b6a:	19d2      	adds	r2, r2, r7
10009b6c:	78d9      	ldrb	r1, [r3, #3]
10009b6e:	2000      	movs	r0, #0
10009b70:	2340      	movs	r3, #64	; 0x40
10009b72:	f7ff fe75 	bl	10009860 <usbd_edpt_xfer>
10009b76:	e7e3      	b.n	10009b40 <tud_cdc_n_read+0x28>
10009b78:	4643      	mov	r3, r8
10009b7a:	2000      	movs	r0, #0
10009b7c:	78d9      	ldrb	r1, [r3, #3]
10009b7e:	f7ff fe5b 	bl	10009838 <usbd_edpt_release>
10009b82:	e7dd      	b.n	10009b40 <tud_cdc_n_read+0x28>
10009b84:	20001408 	.word	0x20001408

10009b88 <tud_cdc_n_write_flush>:
10009b88:	b5f8      	push	{r3, r4, r5, r6, r7, lr}
10009b8a:	0004      	movs	r4, r0
10009b8c:	f7ff f8fe 	bl	10008d8c <tud_mounted>
10009b90:	2800      	cmp	r0, #0
10009b92:	d101      	bne.n	10009b98 <tud_cdc_n_write_flush+0x10>
10009b94:	2000      	movs	r0, #0
10009b96:	bdf8      	pop	{r3, r4, r5, r6, r7, pc}
10009b98:	f7ff f900 	bl	10008d9c <tud_suspended>
10009b9c:	2800      	cmp	r0, #0
10009b9e:	d1f9      	bne.n	10009b94 <tud_cdc_n_write_flush+0xc>
10009ba0:	20b2      	movs	r0, #178	; 0xb2
10009ba2:	0080      	lsls	r0, r0, #2
10009ba4:	4344      	muls	r4, r0
10009ba6:	0025      	movs	r5, r4
10009ba8:	4e14      	ldr	r6, [pc, #80]	; (10009bfc <tud_cdc_n_write_flush+0x74>)
10009baa:	3524      	adds	r5, #36	; 0x24
10009bac:	19ad      	adds	r5, r5, r6
10009bae:	0028      	movs	r0, r5
10009bb0:	f000 fb06 	bl	1000a1c0 <tu_fifo_count>
10009bb4:	2800      	cmp	r0, #0
10009bb6:	d0ed      	beq.n	10009b94 <tud_cdc_n_write_flush+0xc>
10009bb8:	1937      	adds	r7, r6, r4
10009bba:	2000      	movs	r0, #0
10009bbc:	78b9      	ldrb	r1, [r7, #2]
10009bbe:	f7ff fe27 	bl	10009810 <usbd_edpt_claim>
10009bc2:	2800      	cmp	r0, #0
10009bc4:	d0e6      	beq.n	10009b94 <tud_cdc_n_write_flush+0xc>
10009bc6:	23a2      	movs	r3, #162	; 0xa2
10009bc8:	009b      	lsls	r3, r3, #2
10009bca:	469c      	mov	ip, r3
10009bcc:	4464      	add	r4, ip
10009bce:	19a4      	adds	r4, r4, r6
10009bd0:	0021      	movs	r1, r4
10009bd2:	0028      	movs	r0, r5
10009bd4:	2240      	movs	r2, #64	; 0x40
10009bd6:	f000 fb77 	bl	1000a2c8 <tu_fifo_read_n>
10009bda:	78b9      	ldrb	r1, [r7, #2]
10009bdc:	1e05      	subs	r5, r0, #0
10009bde:	d008      	beq.n	10009bf2 <tud_cdc_n_write_flush+0x6a>
10009be0:	0003      	movs	r3, r0
10009be2:	0022      	movs	r2, r4
10009be4:	2000      	movs	r0, #0
10009be6:	f7ff fe3b 	bl	10009860 <usbd_edpt_xfer>
10009bea:	2800      	cmp	r0, #0
10009bec:	d0d2      	beq.n	10009b94 <tud_cdc_n_write_flush+0xc>
10009bee:	0028      	movs	r0, r5
10009bf0:	e7d1      	b.n	10009b96 <tud_cdc_n_write_flush+0xe>
10009bf2:	2000      	movs	r0, #0
10009bf4:	f7ff fe20 	bl	10009838 <usbd_edpt_release>
10009bf8:	e7cc      	b.n	10009b94 <tud_cdc_n_write_flush+0xc>
10009bfa:	46c0      	nop			; (mov r8, r8)
10009bfc:	20001408 	.word	0x20001408

10009c00 <tud_cdc_n_write>:
10009c00:	b570      	push	{r4, r5, r6, lr}
10009c02:	24b2      	movs	r4, #178	; 0xb2
10009c04:	00a4      	lsls	r4, r4, #2
10009c06:	4344      	muls	r4, r0
10009c08:	4b09      	ldr	r3, [pc, #36]	; (10009c30 <tud_cdc_n_write+0x30>)
10009c0a:	3424      	adds	r4, #36	; 0x24
10009c0c:	18e4      	adds	r4, r4, r3
10009c0e:	0005      	movs	r5, r0
10009c10:	b292      	uxth	r2, r2
10009c12:	0020      	movs	r0, r4
10009c14:	f000 fc12 	bl	1000a43c <tu_fifo_write_n>
10009c18:	0006      	movs	r6, r0
10009c1a:	0020      	movs	r0, r4
10009c1c:	f000 fad0 	bl	1000a1c0 <tu_fifo_count>
10009c20:	283f      	cmp	r0, #63	; 0x3f
10009c22:	d801      	bhi.n	10009c28 <tud_cdc_n_write+0x28>
10009c24:	0030      	movs	r0, r6
10009c26:	bd70      	pop	{r4, r5, r6, pc}
10009c28:	0028      	movs	r0, r5
10009c2a:	f7ff ffad 	bl	10009b88 <tud_cdc_n_write_flush>
10009c2e:	e7f9      	b.n	10009c24 <tud_cdc_n_write+0x24>
10009c30:	20001408 	.word	0x20001408

10009c34 <tud_cdc_n_write_available>:
10009c34:	23b2      	movs	r3, #178	; 0xb2
10009c36:	009b      	lsls	r3, r3, #2
10009c38:	4358      	muls	r0, r3
10009c3a:	b510      	push	{r4, lr}
10009c3c:	4b02      	ldr	r3, [pc, #8]	; (10009c48 <tud_cdc_n_write_available+0x14>)
10009c3e:	3024      	adds	r0, #36	; 0x24
10009c40:	18c0      	adds	r0, r0, r3
10009c42:	f000 fadb 	bl	1000a1fc <tu_fifo_remaining>
10009c46:	bd10      	pop	{r4, pc}
10009c48:	20001408 	.word	0x20001408

10009c4c <cdcd_init>:
10009c4c:	22b2      	movs	r2, #178	; 0xb2
10009c4e:	b5f0      	push	{r4, r5, r6, r7, lr}
10009c50:	4c1b      	ldr	r4, [pc, #108]	; (10009cc0 <cdcd_init+0x74>)
10009c52:	b083      	sub	sp, #12
10009c54:	2100      	movs	r1, #0
10009c56:	0020      	movs	r0, r4
10009c58:	0092      	lsls	r2, r2, #2
10009c5a:	f7fe f941 	bl	10007ee0 <__wrap_memset>
10009c5e:	23ff      	movs	r3, #255	; 0xff
10009c60:	7163      	strb	r3, [r4, #5]
10009c62:	4b18      	ldr	r3, [pc, #96]	; (10009cc4 <cdcd_init+0x78>)
10009c64:	2680      	movs	r6, #128	; 0x80
10009c66:	2500      	movs	r5, #0
10009c68:	80e3      	strh	r3, [r4, #6]
10009c6a:	2701      	movs	r7, #1
10009c6c:	2308      	movs	r3, #8
10009c6e:	0021      	movs	r1, r4
10009c70:	0020      	movs	r0, r4
10009c72:	0076      	lsls	r6, r6, #1
10009c74:	7323      	strb	r3, [r4, #12]
10009c76:	0032      	movs	r2, r6
10009c78:	8127      	strh	r7, [r4, #8]
10009c7a:	3138      	adds	r1, #56	; 0x38
10009c7c:	9500      	str	r5, [sp, #0]
10009c7e:	3b07      	subs	r3, #7
10009c80:	3010      	adds	r0, #16
10009c82:	f000 fa65 	bl	1000a150 <tu_fifo_config>
10009c86:	0021      	movs	r1, r4
10009c88:	0020      	movs	r0, r4
10009c8a:	3139      	adds	r1, #57	; 0x39
10009c8c:	0032      	movs	r2, r6
10009c8e:	31ff      	adds	r1, #255	; 0xff
10009c90:	2301      	movs	r3, #1
10009c92:	9700      	str	r7, [sp, #0]
10009c94:	3024      	adds	r0, #36	; 0x24
10009c96:	f000 fa5b 	bl	1000a150 <tu_fifo_config>
10009c9a:	238e      	movs	r3, #142	; 0x8e
10009c9c:	009b      	lsls	r3, r3, #2
10009c9e:	18e6      	adds	r6, r4, r3
10009ca0:	0030      	movs	r0, r6
10009ca2:	f7fa fc01 	bl	100044a8 <mutex_init>
10009ca6:	2390      	movs	r3, #144	; 0x90
10009ca8:	009b      	lsls	r3, r3, #2
10009caa:	6226      	str	r6, [r4, #32]
10009cac:	18e6      	adds	r6, r4, r3
10009cae:	0030      	movs	r0, r6
10009cb0:	61e5      	str	r5, [r4, #28]
10009cb2:	f7fa fbf9 	bl	100044a8 <mutex_init>
10009cb6:	6326      	str	r6, [r4, #48]	; 0x30
10009cb8:	6365      	str	r5, [r4, #52]	; 0x34
10009cba:	b003      	add	sp, #12
10009cbc:	bdf0      	pop	{r4, r5, r6, r7, pc}
10009cbe:	46c0      	nop			; (mov r8, r8)
10009cc0:	20001408 	.word	0x20001408
10009cc4:	ffffc200 	.word	0xffffc200

10009cc8 <cdcd_reset>:
10009cc8:	b510      	push	{r4, lr}
10009cca:	4c09      	ldr	r4, [pc, #36]	; (10009cf0 <cdcd_reset+0x28>)
10009ccc:	2205      	movs	r2, #5
10009cce:	2100      	movs	r1, #0
10009cd0:	0020      	movs	r0, r4
10009cd2:	f7fe f905 	bl	10007ee0 <__wrap_memset>
10009cd6:	0020      	movs	r0, r4
10009cd8:	3424      	adds	r4, #36	; 0x24
10009cda:	3010      	adds	r0, #16
10009cdc:	f000 fc62 	bl	1000a5a4 <tu_fifo_clear>
10009ce0:	0020      	movs	r0, r4
10009ce2:	f000 fc5f 	bl	1000a5a4 <tu_fifo_clear>
10009ce6:	2101      	movs	r1, #1
10009ce8:	0020      	movs	r0, r4
10009cea:	f000 fc7b 	bl	1000a5e4 <tu_fifo_set_overwritable>
10009cee:	bd10      	pop	{r4, pc}
10009cf0:	20001408 	.word	0x20001408

10009cf4 <cdcd_open>:
10009cf4:	b5f0      	push	{r4, r5, r6, r7, lr}
10009cf6:	794b      	ldrb	r3, [r1, #5]
10009cf8:	0006      	movs	r6, r0
10009cfa:	b083      	sub	sp, #12
10009cfc:	2b02      	cmp	r3, #2
10009cfe:	d102      	bne.n	10009d06 <cdcd_open+0x12>
10009d00:	798b      	ldrb	r3, [r1, #6]
10009d02:	2b02      	cmp	r3, #2
10009d04:	d003      	beq.n	10009d0e <cdcd_open+0x1a>
10009d06:	2500      	movs	r5, #0
10009d08:	0028      	movs	r0, r5
10009d0a:	b003      	add	sp, #12
10009d0c:	bdf0      	pop	{r4, r5, r6, r7, pc}
10009d0e:	4f30      	ldr	r7, [pc, #192]	; (10009dd0 <cdcd_open+0xdc>)
10009d10:	78bb      	ldrb	r3, [r7, #2]
10009d12:	2b00      	cmp	r3, #0
10009d14:	d1f7      	bne.n	10009d06 <cdcd_open+0x12>
10009d16:	788b      	ldrb	r3, [r1, #2]
10009d18:	2509      	movs	r5, #9
10009d1a:	703b      	strb	r3, [r7, #0]
10009d1c:	780c      	ldrb	r4, [r1, #0]
10009d1e:	190c      	adds	r4, r1, r4
10009d20:	7863      	ldrb	r3, [r4, #1]
10009d22:	2b24      	cmp	r3, #36	; 0x24
10009d24:	d10b      	bne.n	10009d3e <cdcd_open+0x4a>
10009d26:	2a08      	cmp	r2, #8
10009d28:	d802      	bhi.n	10009d30 <cdcd_open+0x3c>
10009d2a:	e00f      	b.n	10009d4c <cdcd_open+0x58>
10009d2c:	42aa      	cmp	r2, r5
10009d2e:	d30d      	bcc.n	10009d4c <cdcd_open+0x58>
10009d30:	7823      	ldrb	r3, [r4, #0]
10009d32:	18e4      	adds	r4, r4, r3
10009d34:	18ed      	adds	r5, r5, r3
10009d36:	7863      	ldrb	r3, [r4, #1]
10009d38:	b2ad      	uxth	r5, r5
10009d3a:	2b24      	cmp	r3, #36	; 0x24
10009d3c:	d0f6      	beq.n	10009d2c <cdcd_open+0x38>
10009d3e:	2b05      	cmp	r3, #5
10009d40:	d021      	beq.n	10009d86 <cdcd_open+0x92>
10009d42:	2b04      	cmp	r3, #4
10009d44:	d102      	bne.n	10009d4c <cdcd_open+0x58>
10009d46:	7963      	ldrb	r3, [r4, #5]
10009d48:	2b0a      	cmp	r3, #10
10009d4a:	d02f      	beq.n	10009dac <cdcd_open+0xb8>
10009d4c:	4c21      	ldr	r4, [pc, #132]	; (10009dd4 <cdcd_open+0xe0>)
10009d4e:	0020      	movs	r0, r4
10009d50:	f000 fa54 	bl	1000a1fc <tu_fifo_remaining>
10009d54:	283f      	cmp	r0, #63	; 0x3f
10009d56:	d9d7      	bls.n	10009d08 <cdcd_open+0x14>
10009d58:	0026      	movs	r6, r4
10009d5a:	3e10      	subs	r6, #16
10009d5c:	2000      	movs	r0, #0
10009d5e:	78f1      	ldrb	r1, [r6, #3]
10009d60:	f7ff fd56 	bl	10009810 <usbd_edpt_claim>
10009d64:	2800      	cmp	r0, #0
10009d66:	d0cf      	beq.n	10009d08 <cdcd_open+0x14>
10009d68:	0020      	movs	r0, r4
10009d6a:	f000 fa47 	bl	1000a1fc <tu_fifo_remaining>
10009d6e:	283f      	cmp	r0, #63	; 0x3f
10009d70:	d917      	bls.n	10009da2 <cdcd_open+0xae>
10009d72:	238e      	movs	r3, #142	; 0x8e
10009d74:	009b      	lsls	r3, r3, #2
10009d76:	18e2      	adds	r2, r4, r3
10009d78:	3bf9      	subs	r3, #249	; 0xf9
10009d7a:	78f1      	ldrb	r1, [r6, #3]
10009d7c:	3bff      	subs	r3, #255	; 0xff
10009d7e:	2000      	movs	r0, #0
10009d80:	f7ff fd6e 	bl	10009860 <usbd_edpt_xfer>
10009d84:	e7c0      	b.n	10009d08 <cdcd_open+0x14>
10009d86:	0021      	movs	r1, r4
10009d88:	0030      	movs	r0, r6
10009d8a:	f7ff fd27 	bl	100097dc <usbd_edpt_open>
10009d8e:	2800      	cmp	r0, #0
10009d90:	d0b9      	beq.n	10009d06 <cdcd_open+0x12>
10009d92:	78a3      	ldrb	r3, [r4, #2]
10009d94:	707b      	strb	r3, [r7, #1]
10009d96:	7823      	ldrb	r3, [r4, #0]
10009d98:	18ed      	adds	r5, r5, r3
10009d9a:	18e4      	adds	r4, r4, r3
10009d9c:	7863      	ldrb	r3, [r4, #1]
10009d9e:	b2ad      	uxth	r5, r5
10009da0:	e7cf      	b.n	10009d42 <cdcd_open+0x4e>
10009da2:	78f1      	ldrb	r1, [r6, #3]
10009da4:	2000      	movs	r0, #0
10009da6:	f7ff fd47 	bl	10009838 <usbd_edpt_release>
10009daa:	e7ad      	b.n	10009d08 <cdcd_open+0x14>
10009dac:	4b0a      	ldr	r3, [pc, #40]	; (10009dd8 <cdcd_open+0xe4>)
10009dae:	7827      	ldrb	r7, [r4, #0]
10009db0:	9301      	str	r3, [sp, #4]
10009db2:	3301      	adds	r3, #1
10009db4:	9300      	str	r3, [sp, #0]
10009db6:	2202      	movs	r2, #2
10009db8:	2302      	movs	r3, #2
10009dba:	0030      	movs	r0, r6
10009dbc:	19e1      	adds	r1, r4, r7
10009dbe:	f7ff fc9b 	bl	100096f8 <usbd_open_edpt_pair>
10009dc2:	2800      	cmp	r0, #0
10009dc4:	d09f      	beq.n	10009d06 <cdcd_open+0x12>
10009dc6:	350e      	adds	r5, #14
10009dc8:	19ed      	adds	r5, r5, r7
10009dca:	b2ad      	uxth	r5, r5
10009dcc:	e7be      	b.n	10009d4c <cdcd_open+0x58>
10009dce:	46c0      	nop			; (mov r8, r8)
10009dd0:	20001408 	.word	0x20001408
10009dd4:	20001418 	.word	0x20001418
10009dd8:	2000140a 	.word	0x2000140a

10009ddc <cdcd_control_xfer_cb>:
10009ddc:	b5f8      	push	{r3, r4, r5, r6, r7, lr}
10009dde:	2360      	movs	r3, #96	; 0x60
10009de0:	0014      	movs	r4, r2
10009de2:	7812      	ldrb	r2, [r2, #0]
10009de4:	0005      	movs	r5, r0
10009de6:	4013      	ands	r3, r2
10009de8:	2000      	movs	r0, #0
10009dea:	2b20      	cmp	r3, #32
10009dec:	d112      	bne.n	10009e14 <cdcd_control_xfer_cb+0x38>
10009dee:	4a2f      	ldr	r2, [pc, #188]	; (10009eac <cdcd_control_xfer_cb+0xd0>)
10009df0:	7963      	ldrb	r3, [r4, #5]
10009df2:	7927      	ldrb	r7, [r4, #4]
10009df4:	7816      	ldrb	r6, [r2, #0]
10009df6:	021b      	lsls	r3, r3, #8
10009df8:	433b      	orrs	r3, r7
10009dfa:	429e      	cmp	r6, r3
10009dfc:	d10a      	bne.n	10009e14 <cdcd_control_xfer_cb+0x38>
10009dfe:	7863      	ldrb	r3, [r4, #1]
10009e00:	2b22      	cmp	r3, #34	; 0x22
10009e02:	d027      	beq.n	10009e54 <cdcd_control_xfer_cb+0x78>
10009e04:	d807      	bhi.n	10009e16 <cdcd_control_xfer_cb+0x3a>
10009e06:	2b20      	cmp	r3, #32
10009e08:	d017      	beq.n	10009e3a <cdcd_control_xfer_cb+0x5e>
10009e0a:	2b21      	cmp	r3, #33	; 0x21
10009e0c:	d102      	bne.n	10009e14 <cdcd_control_xfer_cb+0x38>
10009e0e:	2901      	cmp	r1, #1
10009e10:	d03d      	beq.n	10009e8e <cdcd_control_xfer_cb+0xb2>
10009e12:	2001      	movs	r0, #1
10009e14:	bdf8      	pop	{r3, r4, r5, r6, r7, pc}
10009e16:	2b23      	cmp	r3, #35	; 0x23
10009e18:	d1fc      	bne.n	10009e14 <cdcd_control_xfer_cb+0x38>
10009e1a:	2901      	cmp	r1, #1
10009e1c:	d03f      	beq.n	10009e9e <cdcd_control_xfer_cb+0xc2>
10009e1e:	2903      	cmp	r1, #3
10009e20:	d1f7      	bne.n	10009e12 <cdcd_control_xfer_cb+0x36>
10009e22:	4b23      	ldr	r3, [pc, #140]	; (10009eb0 <cdcd_control_xfer_cb+0xd4>)
10009e24:	2b00      	cmp	r3, #0
10009e26:	d0f4      	beq.n	10009e12 <cdcd_control_xfer_cb+0x36>
10009e28:	78e1      	ldrb	r1, [r4, #3]
10009e2a:	78a3      	ldrb	r3, [r4, #2]
10009e2c:	0209      	lsls	r1, r1, #8
10009e2e:	2000      	movs	r0, #0
10009e30:	4319      	orrs	r1, r3
10009e32:	e000      	b.n	10009e36 <cdcd_control_xfer_cb+0x5a>
10009e34:	bf00      	nop
10009e36:	2001      	movs	r0, #1
10009e38:	e7ec      	b.n	10009e14 <cdcd_control_xfer_cb+0x38>
10009e3a:	2901      	cmp	r1, #1
10009e3c:	d027      	beq.n	10009e8e <cdcd_control_xfer_cb+0xb2>
10009e3e:	2903      	cmp	r1, #3
10009e40:	d1e7      	bne.n	10009e12 <cdcd_control_xfer_cb+0x36>
10009e42:	4b1c      	ldr	r3, [pc, #112]	; (10009eb4 <cdcd_control_xfer_cb+0xd8>)
10009e44:	2b00      	cmp	r3, #0
10009e46:	d0e4      	beq.n	10009e12 <cdcd_control_xfer_cb+0x36>
10009e48:	2000      	movs	r0, #0
10009e4a:	1d91      	adds	r1, r2, #6
10009e4c:	f7fe fbde 	bl	1000860c <tud_cdc_line_coding_cb>
10009e50:	2001      	movs	r0, #1
10009e52:	e7df      	b.n	10009e14 <cdcd_control_xfer_cb+0x38>
10009e54:	2901      	cmp	r1, #1
10009e56:	d022      	beq.n	10009e9e <cdcd_control_xfer_cb+0xc2>
10009e58:	2903      	cmp	r1, #3
10009e5a:	d1da      	bne.n	10009e12 <cdcd_control_xfer_cb+0x36>
10009e5c:	2501      	movs	r5, #1
10009e5e:	002e      	movs	r6, r5
10009e60:	78a3      	ldrb	r3, [r4, #2]
10009e62:	78e4      	ldrb	r4, [r4, #3]
10009e64:	3902      	subs	r1, #2
10009e66:	0224      	lsls	r4, r4, #8
10009e68:	431c      	orrs	r4, r3
10009e6a:	7114      	strb	r4, [r2, #4]
10009e6c:	4026      	ands	r6, r4
10009e6e:	3224      	adds	r2, #36	; 0x24
10009e70:	0010      	movs	r0, r2
10009e72:	4071      	eors	r1, r6
10009e74:	f000 fbb6 	bl	1000a5e4 <tu_fifo_set_overwritable>
10009e78:	4b0f      	ldr	r3, [pc, #60]	; (10009eb8 <cdcd_control_xfer_cb+0xdc>)
10009e7a:	2b00      	cmp	r3, #0
10009e7c:	d0c9      	beq.n	10009e12 <cdcd_control_xfer_cb+0x36>
10009e7e:	0862      	lsrs	r2, r4, #1
10009e80:	2000      	movs	r0, #0
10009e82:	0031      	movs	r1, r6
10009e84:	402a      	ands	r2, r5
10009e86:	e000      	b.n	10009e8a <cdcd_control_xfer_cb+0xae>
10009e88:	bf00      	nop
10009e8a:	2001      	movs	r0, #1
10009e8c:	e7c2      	b.n	10009e14 <cdcd_control_xfer_cb+0x38>
10009e8e:	2307      	movs	r3, #7
10009e90:	0021      	movs	r1, r4
10009e92:	0028      	movs	r0, r5
10009e94:	4a09      	ldr	r2, [pc, #36]	; (10009ebc <cdcd_control_xfer_cb+0xe0>)
10009e96:	f7ff fd21 	bl	100098dc <tud_control_xfer>
10009e9a:	2001      	movs	r0, #1
10009e9c:	e7ba      	b.n	10009e14 <cdcd_control_xfer_cb+0x38>
10009e9e:	0021      	movs	r1, r4
10009ea0:	0028      	movs	r0, r5
10009ea2:	f7ff fd03 	bl	100098ac <tud_control_status>
10009ea6:	2001      	movs	r0, #1
10009ea8:	e7b4      	b.n	10009e14 <cdcd_control_xfer_cb+0x38>
10009eaa:	46c0      	nop			; (mov r8, r8)
10009eac:	20001408 	.word	0x20001408
10009eb0:	00000000 	.word	0x00000000
10009eb4:	1000860d 	.word	0x1000860d
10009eb8:	00000000 	.word	0x00000000
10009ebc:	2000140e 	.word	0x2000140e

10009ec0 <cdcd_xfer_cb>:
10009ec0:	b5f8      	push	{r3, r4, r5, r6, r7, lr}
10009ec2:	4657      	mov	r7, sl
10009ec4:	464e      	mov	r6, r9
10009ec6:	4645      	mov	r5, r8
10009ec8:	46de      	mov	lr, fp
10009eca:	b5e0      	push	{r5, r6, r7, lr}
10009ecc:	4f49      	ldr	r7, [pc, #292]	; (10009ff4 <cdcd_xfer_cb+0x134>)
10009ece:	4680      	mov	r8, r0
10009ed0:	78fa      	ldrb	r2, [r7, #3]
10009ed2:	000c      	movs	r4, r1
10009ed4:	001e      	movs	r6, r3
10009ed6:	428a      	cmp	r2, r1
10009ed8:	d164      	bne.n	10009fa4 <cdcd_xfer_cb+0xe4>
10009eda:	b29a      	uxth	r2, r3
10009edc:	2392      	movs	r3, #146	; 0x92
10009ede:	009b      	lsls	r3, r3, #2
10009ee0:	18fd      	adds	r5, r7, r3
10009ee2:	2310      	movs	r3, #16
10009ee4:	469b      	mov	fp, r3
10009ee6:	44bb      	add	fp, r7
10009ee8:	0029      	movs	r1, r5
10009eea:	4658      	mov	r0, fp
10009eec:	f000 faa6 	bl	1000a43c <tu_fifo_write_n>
10009ef0:	4b41      	ldr	r3, [pc, #260]	; (10009ff8 <cdcd_xfer_cb+0x138>)
10009ef2:	46d9      	mov	r9, fp
10009ef4:	2b00      	cmp	r3, #0
10009ef6:	d018      	beq.n	10009f2a <cdcd_xfer_cb+0x6a>
10009ef8:	797b      	ldrb	r3, [r7, #5]
10009efa:	46d9      	mov	r9, fp
10009efc:	2bff      	cmp	r3, #255	; 0xff
10009efe:	d014      	beq.n	10009f2a <cdcd_xfer_cb+0x6a>
10009f00:	2e00      	cmp	r6, #0
10009f02:	d012      	beq.n	10009f2a <cdcd_xfer_cb+0x6a>
10009f04:	19aa      	adds	r2, r5, r6
10009f06:	4692      	mov	sl, r2
10009f08:	e003      	b.n	10009f12 <cdcd_xfer_cb+0x52>
10009f0a:	3501      	adds	r5, #1
10009f0c:	4555      	cmp	r5, sl
10009f0e:	d00c      	beq.n	10009f2a <cdcd_xfer_cb+0x6a>
10009f10:	797b      	ldrb	r3, [r7, #5]
10009f12:	782a      	ldrb	r2, [r5, #0]
10009f14:	429a      	cmp	r2, r3
10009f16:	d1f8      	bne.n	10009f0a <cdcd_xfer_cb+0x4a>
10009f18:	4648      	mov	r0, r9
10009f1a:	f000 f967 	bl	1000a1ec <tu_fifo_empty>
10009f1e:	2800      	cmp	r0, #0
10009f20:	d1f3      	bne.n	10009f0a <cdcd_xfer_cb+0x4a>
10009f22:	7979      	ldrb	r1, [r7, #5]
10009f24:	e000      	b.n	10009f28 <cdcd_xfer_cb+0x68>
10009f26:	bf00      	nop
10009f28:	e7ef      	b.n	10009f0a <cdcd_xfer_cb+0x4a>
10009f2a:	4b34      	ldr	r3, [pc, #208]	; (10009ffc <cdcd_xfer_cb+0x13c>)
10009f2c:	2b00      	cmp	r3, #0
10009f2e:	d004      	beq.n	10009f3a <cdcd_xfer_cb+0x7a>
10009f30:	4648      	mov	r0, r9
10009f32:	f000 f95b 	bl	1000a1ec <tu_fifo_empty>
10009f36:	2800      	cmp	r0, #0
10009f38:	d052      	beq.n	10009fe0 <cdcd_xfer_cb+0x120>
10009f3a:	4648      	mov	r0, r9
10009f3c:	f000 f95e 	bl	1000a1fc <tu_fifo_remaining>
10009f40:	283f      	cmp	r0, #63	; 0x3f
10009f42:	d834      	bhi.n	10009fae <cdcd_xfer_cb+0xee>
10009f44:	464a      	mov	r2, r9
10009f46:	3a10      	subs	r2, #16
10009f48:	7893      	ldrb	r3, [r2, #2]
10009f4a:	42a3      	cmp	r3, r4
10009f4c:	d007      	beq.n	10009f5e <cdcd_xfer_cb+0x9e>
10009f4e:	2401      	movs	r4, #1
10009f50:	0020      	movs	r0, r4
10009f52:	bcf0      	pop	{r4, r5, r6, r7}
10009f54:	46bb      	mov	fp, r7
10009f56:	46b2      	mov	sl, r6
10009f58:	46a9      	mov	r9, r5
10009f5a:	46a0      	mov	r8, r4
10009f5c:	bdf8      	pop	{r3, r4, r5, r6, r7, pc}
10009f5e:	4b28      	ldr	r3, [pc, #160]	; (1000a000 <cdcd_xfer_cb+0x140>)
10009f60:	2b00      	cmp	r3, #0
10009f62:	d002      	beq.n	10009f6a <cdcd_xfer_cb+0xaa>
10009f64:	2000      	movs	r0, #0
10009f66:	e000      	b.n	10009f6a <cdcd_xfer_cb+0xaa>
10009f68:	bf00      	nop
10009f6a:	2000      	movs	r0, #0
10009f6c:	f7ff fe0c 	bl	10009b88 <tud_cdc_n_write_flush>
10009f70:	2800      	cmp	r0, #0
10009f72:	d1ec      	bne.n	10009f4e <cdcd_xfer_cb+0x8e>
10009f74:	4d23      	ldr	r5, [pc, #140]	; (1000a004 <cdcd_xfer_cb+0x144>)
10009f76:	0028      	movs	r0, r5
10009f78:	f000 f922 	bl	1000a1c0 <tu_fifo_count>
10009f7c:	2800      	cmp	r0, #0
10009f7e:	d1e6      	bne.n	10009f4e <cdcd_xfer_cb+0x8e>
10009f80:	2e00      	cmp	r6, #0
10009f82:	d0e4      	beq.n	10009f4e <cdcd_xfer_cb+0x8e>
10009f84:	06b3      	lsls	r3, r6, #26
10009f86:	d1e2      	bne.n	10009f4e <cdcd_xfer_cb+0x8e>
10009f88:	3d24      	subs	r5, #36	; 0x24
10009f8a:	4640      	mov	r0, r8
10009f8c:	78a9      	ldrb	r1, [r5, #2]
10009f8e:	f7ff fc3f 	bl	10009810 <usbd_edpt_claim>
10009f92:	1e04      	subs	r4, r0, #0
10009f94:	d0db      	beq.n	10009f4e <cdcd_xfer_cb+0x8e>
10009f96:	2300      	movs	r3, #0
10009f98:	2200      	movs	r2, #0
10009f9a:	4640      	mov	r0, r8
10009f9c:	78a9      	ldrb	r1, [r5, #2]
10009f9e:	f7ff fc5f 	bl	10009860 <usbd_edpt_xfer>
10009fa2:	e7d5      	b.n	10009f50 <cdcd_xfer_cb+0x90>
10009fa4:	78bb      	ldrb	r3, [r7, #2]
10009fa6:	428b      	cmp	r3, r1
10009fa8:	d0d9      	beq.n	10009f5e <cdcd_xfer_cb+0x9e>
10009faa:	2400      	movs	r4, #0
10009fac:	e7d0      	b.n	10009f50 <cdcd_xfer_cb+0x90>
10009fae:	464d      	mov	r5, r9
10009fb0:	3d10      	subs	r5, #16
10009fb2:	2000      	movs	r0, #0
10009fb4:	78e9      	ldrb	r1, [r5, #3]
10009fb6:	f7ff fc2b 	bl	10009810 <usbd_edpt_claim>
10009fba:	2800      	cmp	r0, #0
10009fbc:	d101      	bne.n	10009fc2 <cdcd_xfer_cb+0x102>
10009fbe:	78ab      	ldrb	r3, [r5, #2]
10009fc0:	e7c3      	b.n	10009f4a <cdcd_xfer_cb+0x8a>
10009fc2:	4648      	mov	r0, r9
10009fc4:	f000 f91a 	bl	1000a1fc <tu_fifo_remaining>
10009fc8:	283f      	cmp	r0, #63	; 0x3f
10009fca:	d90c      	bls.n	10009fe6 <cdcd_xfer_cb+0x126>
10009fcc:	228e      	movs	r2, #142	; 0x8e
10009fce:	0092      	lsls	r2, r2, #2
10009fd0:	2340      	movs	r3, #64	; 0x40
10009fd2:	2000      	movs	r0, #0
10009fd4:	78e9      	ldrb	r1, [r5, #3]
10009fd6:	444a      	add	r2, r9
10009fd8:	f7ff fc42 	bl	10009860 <usbd_edpt_xfer>
10009fdc:	78ab      	ldrb	r3, [r5, #2]
10009fde:	e7b4      	b.n	10009f4a <cdcd_xfer_cb+0x8a>
10009fe0:	f7fe fc86 	bl	100088f0 <tud_cdc_rx_cb>
10009fe4:	e7a9      	b.n	10009f3a <cdcd_xfer_cb+0x7a>
10009fe6:	2000      	movs	r0, #0
10009fe8:	78e9      	ldrb	r1, [r5, #3]
10009fea:	f7ff fc25 	bl	10009838 <usbd_edpt_release>
10009fee:	78ab      	ldrb	r3, [r5, #2]
10009ff0:	e7ab      	b.n	10009f4a <cdcd_xfer_cb+0x8a>
10009ff2:	46c0      	nop			; (mov r8, r8)
10009ff4:	20001408 	.word	0x20001408
10009ff8:	00000000 	.word	0x00000000
10009ffc:	100088f1 	.word	0x100088f1
1000a000:	00000000 	.word	0x00000000
1000a004:	2000142c 	.word	0x2000142c

1000a008 <tusb_init>:
1000a008:	b510      	push	{r4, lr}
1000a00a:	2000      	movs	r0, #0
1000a00c:	f7fe fed8 	bl	10008dc0 <tud_init>
1000a010:	bd10      	pop	{r4, pc}
1000a012:	46c0      	nop			; (mov r8, r8)

1000a014 <tusb_inited>:
1000a014:	b510      	push	{r4, lr}
1000a016:	f7fe fec9 	bl	10008dac <tud_inited>
1000a01a:	bd10      	pop	{r4, pc}

1000a01c <tu_edpt_claim>:
1000a01c:	7803      	ldrb	r3, [r0, #0]
1000a01e:	b570      	push	{r4, r5, r6, lr}
1000a020:	07db      	lsls	r3, r3, #31
1000a022:	0004      	movs	r4, r0
1000a024:	000e      	movs	r6, r1
1000a026:	0fdd      	lsrs	r5, r3, #31
1000a028:	2b00      	cmp	r3, #0
1000a02a:	d117      	bne.n	1000a05c <tu_edpt_claim+0x40>
1000a02c:	7803      	ldrb	r3, [r0, #0]
1000a02e:	075b      	lsls	r3, r3, #29
1000a030:	d501      	bpl.n	1000a036 <tu_edpt_claim+0x1a>
1000a032:	0028      	movs	r0, r5
1000a034:	bd70      	pop	{r4, r5, r6, pc}
1000a036:	2101      	movs	r1, #1
1000a038:	0030      	movs	r0, r6
1000a03a:	4249      	negs	r1, r1
1000a03c:	f000 fbbc 	bl	1000a7b8 <__mutex_enter_timeout_ms_veneer>
1000a040:	7823      	ldrb	r3, [r4, #0]
1000a042:	07db      	lsls	r3, r3, #31
1000a044:	0fdd      	lsrs	r5, r3, #31
1000a046:	2b00      	cmp	r3, #0
1000a048:	d10a      	bne.n	1000a060 <tu_edpt_claim+0x44>
1000a04a:	7823      	ldrb	r3, [r4, #0]
1000a04c:	075b      	lsls	r3, r3, #29
1000a04e:	d408      	bmi.n	1000a062 <tu_edpt_claim+0x46>
1000a050:	2204      	movs	r2, #4
1000a052:	7823      	ldrb	r3, [r4, #0]
1000a054:	2501      	movs	r5, #1
1000a056:	4313      	orrs	r3, r2
1000a058:	7023      	strb	r3, [r4, #0]
1000a05a:	e002      	b.n	1000a062 <tu_edpt_claim+0x46>
1000a05c:	2500      	movs	r5, #0
1000a05e:	e7e8      	b.n	1000a032 <tu_edpt_claim+0x16>
1000a060:	2500      	movs	r5, #0
1000a062:	0030      	movs	r0, r6
1000a064:	f000 fb78 	bl	1000a758 <__mutex_exit_veneer>
1000a068:	e7e3      	b.n	1000a032 <tu_edpt_claim+0x16>
1000a06a:	46c0      	nop			; (mov r8, r8)

1000a06c <tu_edpt_release>:
1000a06c:	b570      	push	{r4, r5, r6, lr}
1000a06e:	000d      	movs	r5, r1
1000a070:	2101      	movs	r1, #1
1000a072:	0004      	movs	r4, r0
1000a074:	4249      	negs	r1, r1
1000a076:	0028      	movs	r0, r5
1000a078:	f000 fb9e 	bl	1000a7b8 <__mutex_enter_timeout_ms_veneer>
1000a07c:	7823      	ldrb	r3, [r4, #0]
1000a07e:	075b      	lsls	r3, r3, #29
1000a080:	0fde      	lsrs	r6, r3, #31
1000a082:	2b00      	cmp	r3, #0
1000a084:	db04      	blt.n	1000a090 <tu_edpt_release+0x24>
1000a086:	0028      	movs	r0, r5
1000a088:	f000 fb66 	bl	1000a758 <__mutex_exit_veneer>
1000a08c:	0030      	movs	r0, r6
1000a08e:	bd70      	pop	{r4, r5, r6, pc}
1000a090:	7823      	ldrb	r3, [r4, #0]
1000a092:	07db      	lsls	r3, r3, #31
1000a094:	d404      	bmi.n	1000a0a0 <tu_edpt_release+0x34>
1000a096:	2204      	movs	r2, #4
1000a098:	7823      	ldrb	r3, [r4, #0]
1000a09a:	4393      	bics	r3, r2
1000a09c:	7023      	strb	r3, [r4, #0]
1000a09e:	e7f2      	b.n	1000a086 <tu_edpt_release+0x1a>
1000a0a0:	2600      	movs	r6, #0
1000a0a2:	e7f0      	b.n	1000a086 <tu_edpt_release+0x1a>

1000a0a4 <tu_edpt_validate>:
1000a0a4:	b510      	push	{r4, lr}
1000a0a6:	7943      	ldrb	r3, [r0, #5]
1000a0a8:	7904      	ldrb	r4, [r0, #4]
1000a0aa:	021b      	lsls	r3, r3, #8
1000a0ac:	4323      	orrs	r3, r4
1000a0ae:	055b      	lsls	r3, r3, #21
1000a0b0:	0d5a      	lsrs	r2, r3, #21
1000a0b2:	78c3      	ldrb	r3, [r0, #3]
1000a0b4:	079b      	lsls	r3, r3, #30
1000a0b6:	0f9b      	lsrs	r3, r3, #30
1000a0b8:	2b02      	cmp	r3, #2
1000a0ba:	d005      	beq.n	1000a0c8 <tu_edpt_validate+0x24>
1000a0bc:	2b03      	cmp	r3, #3
1000a0be:	d015      	beq.n	1000a0ec <tu_edpt_validate+0x48>
1000a0c0:	2000      	movs	r0, #0
1000a0c2:	2b01      	cmp	r3, #1
1000a0c4:	d008      	beq.n	1000a0d8 <tu_edpt_validate+0x34>
1000a0c6:	bd10      	pop	{r4, pc}
1000a0c8:	2902      	cmp	r1, #2
1000a0ca:	d01c      	beq.n	1000a106 <tu_edpt_validate+0x62>
1000a0cc:	2000      	movs	r0, #0
1000a0ce:	2340      	movs	r3, #64	; 0x40
1000a0d0:	4293      	cmp	r3, r2
1000a0d2:	4140      	adcs	r0, r0
1000a0d4:	b2c0      	uxtb	r0, r0
1000a0d6:	e7f6      	b.n	1000a0c6 <tu_edpt_validate+0x22>
1000a0d8:	3902      	subs	r1, #2
1000a0da:	424b      	negs	r3, r1
1000a0dc:	4159      	adcs	r1, r3
1000a0de:	4b0d      	ldr	r3, [pc, #52]	; (1000a114 <tu_edpt_validate+0x70>)
1000a0e0:	469c      	mov	ip, r3
1000a0e2:	4461      	add	r1, ip
1000a0e4:	4291      	cmp	r1, r2
1000a0e6:	4140      	adcs	r0, r0
1000a0e8:	b2c0      	uxtb	r0, r0
1000a0ea:	e7ec      	b.n	1000a0c6 <tu_edpt_validate+0x22>
1000a0ec:	3902      	subs	r1, #2
1000a0ee:	424b      	negs	r3, r1
1000a0f0:	4159      	adcs	r1, r3
1000a0f2:	23f0      	movs	r3, #240	; 0xf0
1000a0f4:	2000      	movs	r0, #0
1000a0f6:	4249      	negs	r1, r1
1000a0f8:	009b      	lsls	r3, r3, #2
1000a0fa:	4019      	ands	r1, r3
1000a0fc:	3140      	adds	r1, #64	; 0x40
1000a0fe:	4291      	cmp	r1, r2
1000a100:	4140      	adcs	r0, r0
1000a102:	b2c0      	uxtb	r0, r0
1000a104:	e7df      	b.n	1000a0c6 <tu_edpt_validate+0x22>
1000a106:	4b04      	ldr	r3, [pc, #16]	; (1000a118 <tu_edpt_validate+0x74>)
1000a108:	18d3      	adds	r3, r2, r3
1000a10a:	425a      	negs	r2, r3
1000a10c:	4153      	adcs	r3, r2
1000a10e:	b2d8      	uxtb	r0, r3
1000a110:	e7d9      	b.n	1000a0c6 <tu_edpt_validate+0x22>
1000a112:	46c0      	nop			; (mov r8, r8)
1000a114:	000003ff 	.word	0x000003ff
1000a118:	fffffe00 	.word	0xfffffe00

1000a11c <tu_edpt_bind_driver>:
1000a11c:	188a      	adds	r2, r1, r2
1000a11e:	b570      	push	{r4, r5, r6, lr}
1000a120:	4291      	cmp	r1, r2
1000a122:	d207      	bcs.n	1000a134 <tu_edpt_bind_driver+0x18>
1000a124:	267f      	movs	r6, #127	; 0x7f
1000a126:	784c      	ldrb	r4, [r1, #1]
1000a128:	2c05      	cmp	r4, #5
1000a12a:	d004      	beq.n	1000a136 <tu_edpt_bind_driver+0x1a>
1000a12c:	780c      	ldrb	r4, [r1, #0]
1000a12e:	1909      	adds	r1, r1, r4
1000a130:	428a      	cmp	r2, r1
1000a132:	d8f8      	bhi.n	1000a126 <tu_edpt_bind_driver+0xa>
1000a134:	bd70      	pop	{r4, r5, r6, pc}
1000a136:	0034      	movs	r4, r6
1000a138:	788d      	ldrb	r5, [r1, #2]
1000a13a:	402c      	ands	r4, r5
1000a13c:	0064      	lsls	r4, r4, #1
1000a13e:	1904      	adds	r4, r0, r4
1000a140:	09ed      	lsrs	r5, r5, #7
1000a142:	5563      	strb	r3, [r4, r5]
1000a144:	780c      	ldrb	r4, [r1, #0]
1000a146:	1909      	adds	r1, r1, r4
1000a148:	428a      	cmp	r2, r1
1000a14a:	d8ec      	bhi.n	1000a126 <tu_edpt_bind_driver+0xa>
1000a14c:	e7f2      	b.n	1000a134 <tu_edpt_bind_driver+0x18>
1000a14e:	46c0      	nop			; (mov r8, r8)

1000a150 <tu_fifo_config>:
1000a150:	b5f0      	push	{r4, r5, r6, r7, lr}
1000a152:	46c6      	mov	lr, r8
1000a154:	b500      	push	{lr}
1000a156:	0004      	movs	r4, r0
1000a158:	a806      	add	r0, sp, #24
1000a15a:	7805      	ldrb	r5, [r0, #0]
1000a15c:	2080      	movs	r0, #128	; 0x80
1000a15e:	4688      	mov	r8, r1
1000a160:	0017      	movs	r7, r2
1000a162:	001e      	movs	r6, r3
1000a164:	0200      	lsls	r0, r0, #8
1000a166:	4282      	cmp	r2, r0
1000a168:	d827      	bhi.n	1000a1ba <tu_fifo_config+0x6a>
1000a16a:	68e0      	ldr	r0, [r4, #12]
1000a16c:	2800      	cmp	r0, #0
1000a16e:	d003      	beq.n	1000a178 <tu_fifo_config+0x28>
1000a170:	2101      	movs	r1, #1
1000a172:	4249      	negs	r1, r1
1000a174:	f000 fb20 	bl	1000a7b8 <__mutex_enter_timeout_ms_veneer>
1000a178:	6920      	ldr	r0, [r4, #16]
1000a17a:	2800      	cmp	r0, #0
1000a17c:	d003      	beq.n	1000a186 <tu_fifo_config+0x36>
1000a17e:	2101      	movs	r1, #1
1000a180:	4249      	negs	r1, r1
1000a182:	f000 fb19 	bl	1000a7b8 <__mutex_enter_timeout_ms_veneer>
1000a186:	4643      	mov	r3, r8
1000a188:	6023      	str	r3, [r4, #0]
1000a18a:	0473      	lsls	r3, r6, #17
1000a18c:	0c5b      	lsrs	r3, r3, #17
1000a18e:	03ed      	lsls	r5, r5, #15
1000a190:	431d      	orrs	r5, r3
1000a192:	2300      	movs	r3, #0
1000a194:	68e0      	ldr	r0, [r4, #12]
1000a196:	8163      	strh	r3, [r4, #10]
1000a198:	80a7      	strh	r7, [r4, #4]
1000a19a:	80e5      	strh	r5, [r4, #6]
1000a19c:	8123      	strh	r3, [r4, #8]
1000a19e:	2800      	cmp	r0, #0
1000a1a0:	d001      	beq.n	1000a1a6 <tu_fifo_config+0x56>
1000a1a2:	f000 fad9 	bl	1000a758 <__mutex_exit_veneer>
1000a1a6:	6920      	ldr	r0, [r4, #16]
1000a1a8:	2401      	movs	r4, #1
1000a1aa:	2800      	cmp	r0, #0
1000a1ac:	d001      	beq.n	1000a1b2 <tu_fifo_config+0x62>
1000a1ae:	f000 fad3 	bl	1000a758 <__mutex_exit_veneer>
1000a1b2:	0020      	movs	r0, r4
1000a1b4:	bc80      	pop	{r7}
1000a1b6:	46b8      	mov	r8, r7
1000a1b8:	bdf0      	pop	{r4, r5, r6, r7, pc}
1000a1ba:	2400      	movs	r4, #0
1000a1bc:	e7f9      	b.n	1000a1b2 <tu_fifo_config+0x62>
1000a1be:	46c0      	nop			; (mov r8, r8)

1000a1c0 <tu_fifo_count>:
1000a1c0:	b510      	push	{r4, lr}
1000a1c2:	8904      	ldrh	r4, [r0, #8]
1000a1c4:	8941      	ldrh	r1, [r0, #10]
1000a1c6:	8882      	ldrh	r2, [r0, #4]
1000a1c8:	b2a3      	uxth	r3, r4
1000a1ca:	b288      	uxth	r0, r1
1000a1cc:	428c      	cmp	r4, r1
1000a1ce:	d307      	bcc.n	1000a1e0 <tu_fifo_count+0x20>
1000a1d0:	1a1b      	subs	r3, r3, r0
1000a1d2:	b29b      	uxth	r3, r3
1000a1d4:	1c10      	adds	r0, r2, #0
1000a1d6:	429a      	cmp	r2, r3
1000a1d8:	d900      	bls.n	1000a1dc <tu_fifo_count+0x1c>
1000a1da:	1c18      	adds	r0, r3, #0
1000a1dc:	b280      	uxth	r0, r0
1000a1de:	bd10      	pop	{r4, pc}
1000a1e0:	0051      	lsls	r1, r2, #1
1000a1e2:	1a09      	subs	r1, r1, r0
1000a1e4:	185b      	adds	r3, r3, r1
1000a1e6:	b29b      	uxth	r3, r3
1000a1e8:	e7f4      	b.n	1000a1d4 <tu_fifo_count+0x14>
1000a1ea:	46c0      	nop			; (mov r8, r8)

1000a1ec <tu_fifo_empty>:
1000a1ec:	0003      	movs	r3, r0
1000a1ee:	8900      	ldrh	r0, [r0, #8]
1000a1f0:	895b      	ldrh	r3, [r3, #10]
1000a1f2:	1ac0      	subs	r0, r0, r3
1000a1f4:	4243      	negs	r3, r0
1000a1f6:	4158      	adcs	r0, r3
1000a1f8:	b2c0      	uxtb	r0, r0
1000a1fa:	4770      	bx	lr

1000a1fc <tu_fifo_remaining>:
1000a1fc:	b510      	push	{r4, lr}
1000a1fe:	8904      	ldrh	r4, [r0, #8]
1000a200:	8941      	ldrh	r1, [r0, #10]
1000a202:	8882      	ldrh	r2, [r0, #4]
1000a204:	b2a3      	uxth	r3, r4
1000a206:	b288      	uxth	r0, r1
1000a208:	428c      	cmp	r4, r1
1000a20a:	d307      	bcc.n	1000a21c <tu_fifo_remaining+0x20>
1000a20c:	1a1b      	subs	r3, r3, r0
1000a20e:	b29b      	uxth	r3, r3
1000a210:	2000      	movs	r0, #0
1000a212:	429a      	cmp	r2, r3
1000a214:	d901      	bls.n	1000a21a <tu_fifo_remaining+0x1e>
1000a216:	1ad3      	subs	r3, r2, r3
1000a218:	b298      	uxth	r0, r3
1000a21a:	bd10      	pop	{r4, pc}
1000a21c:	0051      	lsls	r1, r2, #1
1000a21e:	1a09      	subs	r1, r1, r0
1000a220:	185b      	adds	r3, r3, r1
1000a222:	b29b      	uxth	r3, r3
1000a224:	e7f4      	b.n	1000a210 <tu_fifo_remaining+0x14>
1000a226:	46c0      	nop			; (mov r8, r8)

1000a228 <tu_fifo_read>:
1000a228:	b570      	push	{r4, r5, r6, lr}
1000a22a:	0004      	movs	r4, r0
1000a22c:	6900      	ldr	r0, [r0, #16]
1000a22e:	000e      	movs	r6, r1
1000a230:	2800      	cmp	r0, #0
1000a232:	d003      	beq.n	1000a23c <tu_fifo_read+0x14>
1000a234:	2101      	movs	r1, #1
1000a236:	4249      	negs	r1, r1
1000a238:	f000 fabe 	bl	1000a7b8 <__mutex_enter_timeout_ms_veneer>
1000a23c:	8925      	ldrh	r5, [r4, #8]
1000a23e:	8960      	ldrh	r0, [r4, #10]
1000a240:	88a2      	ldrh	r2, [r4, #4]
1000a242:	b2a9      	uxth	r1, r5
1000a244:	b283      	uxth	r3, r0
1000a246:	4285      	cmp	r5, r0
1000a248:	d32c      	bcc.n	1000a2a4 <tu_fifo_read+0x7c>
1000a24a:	1acd      	subs	r5, r1, r3
1000a24c:	b2ad      	uxth	r5, r5
1000a24e:	2d00      	cmp	r5, #0
1000a250:	d02e      	beq.n	1000a2b0 <tu_fifo_read+0x88>
1000a252:	42aa      	cmp	r2, r5
1000a254:	d208      	bcs.n	1000a268 <tu_fifo_read+0x40>
1000a256:	4291      	cmp	r1, r2
1000a258:	d331      	bcc.n	1000a2be <tu_fifo_read+0x96>
1000a25a:	1a8b      	subs	r3, r1, r2
1000a25c:	b29b      	uxth	r3, r3
1000a25e:	8163      	strh	r3, [r4, #10]
1000a260:	429a      	cmp	r2, r3
1000a262:	d803      	bhi.n	1000a26c <tu_fifo_read+0x44>
1000a264:	1a9b      	subs	r3, r3, r2
1000a266:	b29b      	uxth	r3, r3
1000a268:	429a      	cmp	r2, r3
1000a26a:	d9fb      	bls.n	1000a264 <tu_fifo_read+0x3c>
1000a26c:	88e2      	ldrh	r2, [r4, #6]
1000a26e:	6821      	ldr	r1, [r4, #0]
1000a270:	0452      	lsls	r2, r2, #17
1000a272:	0c52      	lsrs	r2, r2, #17
1000a274:	4353      	muls	r3, r2
1000a276:	0030      	movs	r0, r6
1000a278:	18c9      	adds	r1, r1, r3
1000a27a:	f7fd fe37 	bl	10007eec <__wrap___aeabi_memcpy>
1000a27e:	8961      	ldrh	r1, [r4, #10]
1000a280:	2501      	movs	r5, #1
1000a282:	1c4b      	adds	r3, r1, #1
1000a284:	b29b      	uxth	r3, r3
1000a286:	88a2      	ldrh	r2, [r4, #4]
1000a288:	4299      	cmp	r1, r3
1000a28a:	d914      	bls.n	1000a2b6 <tu_fifo_read+0x8e>
1000a28c:	2300      	movs	r3, #0
1000a28e:	0052      	lsls	r2, r2, #1
1000a290:	1a9b      	subs	r3, r3, r2
1000a292:	b29b      	uxth	r3, r3
1000a294:	6920      	ldr	r0, [r4, #16]
1000a296:	8163      	strh	r3, [r4, #10]
1000a298:	2800      	cmp	r0, #0
1000a29a:	d001      	beq.n	1000a2a0 <tu_fifo_read+0x78>
1000a29c:	f000 fa5c 	bl	1000a758 <__mutex_exit_veneer>
1000a2a0:	0028      	movs	r0, r5
1000a2a2:	bd70      	pop	{r4, r5, r6, pc}
1000a2a4:	0055      	lsls	r5, r2, #1
1000a2a6:	1aed      	subs	r5, r5, r3
1000a2a8:	194d      	adds	r5, r1, r5
1000a2aa:	b2ad      	uxth	r5, r5
1000a2ac:	2d00      	cmp	r5, #0
1000a2ae:	d1d0      	bne.n	1000a252 <tu_fifo_read+0x2a>
1000a2b0:	2500      	movs	r5, #0
1000a2b2:	8963      	ldrh	r3, [r4, #10]
1000a2b4:	b29b      	uxth	r3, r3
1000a2b6:	0052      	lsls	r2, r2, #1
1000a2b8:	4293      	cmp	r3, r2
1000a2ba:	dbeb      	blt.n	1000a294 <tu_fifo_read+0x6c>
1000a2bc:	e7e8      	b.n	1000a290 <tu_fifo_read+0x68>
1000a2be:	1889      	adds	r1, r1, r2
1000a2c0:	b28b      	uxth	r3, r1
1000a2c2:	8163      	strh	r3, [r4, #10]
1000a2c4:	e7cc      	b.n	1000a260 <tu_fifo_read+0x38>
1000a2c6:	46c0      	nop			; (mov r8, r8)

1000a2c8 <tu_fifo_read_n>:
1000a2c8:	b5f0      	push	{r4, r5, r6, r7, lr}
1000a2ca:	4646      	mov	r6, r8
1000a2cc:	464f      	mov	r7, r9
1000a2ce:	46d6      	mov	lr, sl
1000a2d0:	b5c0      	push	{r6, r7, lr}
1000a2d2:	0006      	movs	r6, r0
1000a2d4:	6900      	ldr	r0, [r0, #16]
1000a2d6:	4689      	mov	r9, r1
1000a2d8:	4690      	mov	r8, r2
1000a2da:	2800      	cmp	r0, #0
1000a2dc:	d003      	beq.n	1000a2e6 <tu_fifo_read_n+0x1e>
1000a2de:	2101      	movs	r1, #1
1000a2e0:	4249      	negs	r1, r1
1000a2e2:	f000 fa69 	bl	1000a7b8 <__mutex_enter_timeout_ms_veneer>
1000a2e6:	8931      	ldrh	r1, [r6, #8]
1000a2e8:	8972      	ldrh	r2, [r6, #10]
1000a2ea:	88b5      	ldrh	r5, [r6, #4]
1000a2ec:	b28b      	uxth	r3, r1
1000a2ee:	b294      	uxth	r4, r2
1000a2f0:	4291      	cmp	r1, r2
1000a2f2:	d357      	bcc.n	1000a3a4 <tu_fifo_read_n+0xdc>
1000a2f4:	1b1f      	subs	r7, r3, r4
1000a2f6:	b2bf      	uxth	r7, r7
1000a2f8:	2f00      	cmp	r7, #0
1000a2fa:	d04d      	beq.n	1000a398 <tu_fifo_read_n+0xd0>
1000a2fc:	42bd      	cmp	r5, r7
1000a2fe:	d205      	bcs.n	1000a30c <tu_fifo_read_n+0x44>
1000a300:	42ab      	cmp	r3, r5
1000a302:	d254      	bcs.n	1000a3ae <tu_fifo_read_n+0xe6>
1000a304:	195b      	adds	r3, r3, r5
1000a306:	b29c      	uxth	r4, r3
1000a308:	002f      	movs	r7, r5
1000a30a:	8174      	strh	r4, [r6, #10]
1000a30c:	4643      	mov	r3, r8
1000a30e:	45b8      	cmp	r8, r7
1000a310:	d840      	bhi.n	1000a394 <tu_fifo_read_n+0xcc>
1000a312:	b29f      	uxth	r7, r3
1000a314:	42a5      	cmp	r5, r4
1000a316:	d803      	bhi.n	1000a320 <tu_fifo_read_n+0x58>
1000a318:	1b64      	subs	r4, r4, r5
1000a31a:	b2a4      	uxth	r4, r4
1000a31c:	42a5      	cmp	r5, r4
1000a31e:	d9fb      	bls.n	1000a318 <tu_fifo_read_n+0x50>
1000a320:	88f2      	ldrh	r2, [r6, #6]
1000a322:	1b28      	subs	r0, r5, r4
1000a324:	0452      	lsls	r2, r2, #17
1000a326:	0c53      	lsrs	r3, r2, #17
1000a328:	0019      	movs	r1, r3
1000a32a:	4698      	mov	r8, r3
1000a32c:	6833      	ldr	r3, [r6, #0]
1000a32e:	4361      	muls	r1, r4
1000a330:	469c      	mov	ip, r3
1000a332:	b280      	uxth	r0, r0
1000a334:	4461      	add	r1, ip
1000a336:	4287      	cmp	r7, r0
1000a338:	d926      	bls.n	1000a388 <tu_fifo_read_n+0xc0>
1000a33a:	4643      	mov	r3, r8
1000a33c:	4358      	muls	r0, r3
1000a33e:	b283      	uxth	r3, r0
1000a340:	001a      	movs	r2, r3
1000a342:	4648      	mov	r0, r9
1000a344:	469a      	mov	sl, r3
1000a346:	f7fd fdd1 	bl	10007eec <__wrap___aeabi_memcpy>
1000a34a:	4643      	mov	r3, r8
1000a34c:	4648      	mov	r0, r9
1000a34e:	1b7d      	subs	r5, r7, r5
1000a350:	1964      	adds	r4, r4, r5
1000a352:	435c      	muls	r4, r3
1000a354:	6831      	ldr	r1, [r6, #0]
1000a356:	4450      	add	r0, sl
1000a358:	b2a2      	uxth	r2, r4
1000a35a:	f7fd fdc7 	bl	10007eec <__wrap___aeabi_memcpy>
1000a35e:	8971      	ldrh	r1, [r6, #10]
1000a360:	88b5      	ldrh	r5, [r6, #4]
1000a362:	19cb      	adds	r3, r1, r7
1000a364:	b29b      	uxth	r3, r3
1000a366:	006a      	lsls	r2, r5, #1
1000a368:	4299      	cmp	r1, r3
1000a36a:	d917      	bls.n	1000a39c <tu_fifo_read_n+0xd4>
1000a36c:	1a9b      	subs	r3, r3, r2
1000a36e:	b29b      	uxth	r3, r3
1000a370:	6930      	ldr	r0, [r6, #16]
1000a372:	8173      	strh	r3, [r6, #10]
1000a374:	2800      	cmp	r0, #0
1000a376:	d001      	beq.n	1000a37c <tu_fifo_read_n+0xb4>
1000a378:	f000 f9ee 	bl	1000a758 <__mutex_exit_veneer>
1000a37c:	0038      	movs	r0, r7
1000a37e:	bce0      	pop	{r5, r6, r7}
1000a380:	46ba      	mov	sl, r7
1000a382:	46b1      	mov	r9, r6
1000a384:	46a8      	mov	r8, r5
1000a386:	bdf0      	pop	{r4, r5, r6, r7, pc}
1000a388:	4642      	mov	r2, r8
1000a38a:	4648      	mov	r0, r9
1000a38c:	437a      	muls	r2, r7
1000a38e:	f7fd fdad 	bl	10007eec <__wrap___aeabi_memcpy>
1000a392:	e7e4      	b.n	1000a35e <tu_fifo_read_n+0x96>
1000a394:	1c3b      	adds	r3, r7, #0
1000a396:	e7bc      	b.n	1000a312 <tu_fifo_read_n+0x4a>
1000a398:	8973      	ldrh	r3, [r6, #10]
1000a39a:	b29b      	uxth	r3, r3
1000a39c:	006a      	lsls	r2, r5, #1
1000a39e:	4293      	cmp	r3, r2
1000a3a0:	dbe6      	blt.n	1000a370 <tu_fifo_read_n+0xa8>
1000a3a2:	e7e3      	b.n	1000a36c <tu_fifo_read_n+0xa4>
1000a3a4:	006f      	lsls	r7, r5, #1
1000a3a6:	1b3f      	subs	r7, r7, r4
1000a3a8:	19df      	adds	r7, r3, r7
1000a3aa:	b2bf      	uxth	r7, r7
1000a3ac:	e7a4      	b.n	1000a2f8 <tu_fifo_read_n+0x30>
1000a3ae:	1b5b      	subs	r3, r3, r5
1000a3b0:	b29c      	uxth	r4, r3
1000a3b2:	e7a9      	b.n	1000a308 <tu_fifo_read_n+0x40>

1000a3b4 <tu_fifo_write>:
1000a3b4:	b5f8      	push	{r3, r4, r5, r6, r7, lr}
1000a3b6:	0004      	movs	r4, r0
1000a3b8:	68c0      	ldr	r0, [r0, #12]
1000a3ba:	000e      	movs	r6, r1
1000a3bc:	2800      	cmp	r0, #0
1000a3be:	d003      	beq.n	1000a3c8 <tu_fifo_write+0x14>
1000a3c0:	2101      	movs	r1, #1
1000a3c2:	4249      	negs	r1, r1
1000a3c4:	f000 f9f8 	bl	1000a7b8 <__mutex_enter_timeout_ms_veneer>
1000a3c8:	8925      	ldrh	r5, [r4, #8]
1000a3ca:	8920      	ldrh	r0, [r4, #8]
1000a3cc:	8961      	ldrh	r1, [r4, #10]
1000a3ce:	88a2      	ldrh	r2, [r4, #4]
1000a3d0:	b2ad      	uxth	r5, r5
1000a3d2:	b283      	uxth	r3, r0
1000a3d4:	b28f      	uxth	r7, r1
1000a3d6:	4288      	cmp	r0, r1
1000a3d8:	d328      	bcc.n	1000a42c <tu_fifo_write+0x78>
1000a3da:	1bdb      	subs	r3, r3, r7
1000a3dc:	b29b      	uxth	r3, r3
1000a3de:	429a      	cmp	r2, r3
1000a3e0:	d809      	bhi.n	1000a3f6 <tu_fifo_write+0x42>
1000a3e2:	79e7      	ldrb	r7, [r4, #7]
1000a3e4:	09ff      	lsrs	r7, r7, #7
1000a3e6:	d106      	bne.n	1000a3f6 <tu_fifo_write+0x42>
1000a3e8:	68e0      	ldr	r0, [r4, #12]
1000a3ea:	2800      	cmp	r0, #0
1000a3ec:	d001      	beq.n	1000a3f2 <tu_fifo_write+0x3e>
1000a3ee:	f000 f9b3 	bl	1000a758 <__mutex_exit_veneer>
1000a3f2:	0038      	movs	r0, r7
1000a3f4:	bdf8      	pop	{r3, r4, r5, r6, r7, pc}
1000a3f6:	002b      	movs	r3, r5
1000a3f8:	4295      	cmp	r5, r2
1000a3fa:	d303      	bcc.n	1000a404 <tu_fifo_write+0x50>
1000a3fc:	1a9b      	subs	r3, r3, r2
1000a3fe:	b29b      	uxth	r3, r3
1000a400:	4293      	cmp	r3, r2
1000a402:	d2fb      	bcs.n	1000a3fc <tu_fifo_write+0x48>
1000a404:	88e2      	ldrh	r2, [r4, #6]
1000a406:	6821      	ldr	r1, [r4, #0]
1000a408:	0452      	lsls	r2, r2, #17
1000a40a:	0c52      	lsrs	r2, r2, #17
1000a40c:	4353      	muls	r3, r2
1000a40e:	18c8      	adds	r0, r1, r3
1000a410:	0031      	movs	r1, r6
1000a412:	f7fd fd6b 	bl	10007eec <__wrap___aeabi_memcpy>
1000a416:	88a2      	ldrh	r2, [r4, #4]
1000a418:	1c6b      	adds	r3, r5, #1
1000a41a:	b29b      	uxth	r3, r3
1000a41c:	0052      	lsls	r2, r2, #1
1000a41e:	429d      	cmp	r5, r3
1000a420:	d909      	bls.n	1000a436 <tu_fifo_write+0x82>
1000a422:	1a9b      	subs	r3, r3, r2
1000a424:	b29b      	uxth	r3, r3
1000a426:	2701      	movs	r7, #1
1000a428:	8123      	strh	r3, [r4, #8]
1000a42a:	e7dd      	b.n	1000a3e8 <tu_fifo_write+0x34>
1000a42c:	0051      	lsls	r1, r2, #1
1000a42e:	1bc9      	subs	r1, r1, r7
1000a430:	185b      	adds	r3, r3, r1
1000a432:	b29b      	uxth	r3, r3
1000a434:	e7d3      	b.n	1000a3de <tu_fifo_write+0x2a>
1000a436:	4293      	cmp	r3, r2
1000a438:	dbf5      	blt.n	1000a426 <tu_fifo_write+0x72>
1000a43a:	e7f2      	b.n	1000a422 <tu_fifo_write+0x6e>

1000a43c <tu_fifo_write_n>:
1000a43c:	b5f0      	push	{r4, r5, r6, r7, lr}
1000a43e:	464e      	mov	r6, r9
1000a440:	4645      	mov	r5, r8
1000a442:	46de      	mov	lr, fp
1000a444:	4657      	mov	r7, sl
1000a446:	b5e0      	push	{r5, r6, r7, lr}
1000a448:	4689      	mov	r9, r1
1000a44a:	0005      	movs	r5, r0
1000a44c:	0014      	movs	r4, r2
1000a44e:	b083      	sub	sp, #12
1000a450:	2a00      	cmp	r2, #0
1000a452:	d06e      	beq.n	1000a532 <tu_fifo_write_n+0xf6>
1000a454:	68c0      	ldr	r0, [r0, #12]
1000a456:	2800      	cmp	r0, #0
1000a458:	d003      	beq.n	1000a462 <tu_fifo_write_n+0x26>
1000a45a:	2101      	movs	r1, #1
1000a45c:	4249      	negs	r1, r1
1000a45e:	f000 f9ab 	bl	1000a7b8 <__mutex_enter_timeout_ms_veneer>
1000a462:	892f      	ldrh	r7, [r5, #8]
1000a464:	79ea      	ldrb	r2, [r5, #7]
1000a466:	896b      	ldrh	r3, [r5, #10]
1000a468:	b2bf      	uxth	r7, r7
1000a46a:	b29b      	uxth	r3, r3
1000a46c:	09d2      	lsrs	r2, r2, #7
1000a46e:	d142      	bne.n	1000a4f6 <tu_fifo_write_n+0xba>
1000a470:	88ae      	ldrh	r6, [r5, #4]
1000a472:	429f      	cmp	r7, r3
1000a474:	d267      	bcs.n	1000a546 <tu_fifo_write_n+0x10a>
1000a476:	0072      	lsls	r2, r6, #1
1000a478:	1ad3      	subs	r3, r2, r3
1000a47a:	18fb      	adds	r3, r7, r3
1000a47c:	b29b      	uxth	r3, r3
1000a47e:	2200      	movs	r2, #0
1000a480:	4690      	mov	r8, r2
1000a482:	429e      	cmp	r6, r3
1000a484:	d931      	bls.n	1000a4ea <tu_fifo_write_n+0xae>
1000a486:	1af3      	subs	r3, r6, r3
1000a488:	1c1a      	adds	r2, r3, #0
1000a48a:	b29b      	uxth	r3, r3
1000a48c:	42a3      	cmp	r3, r4
1000a48e:	d900      	bls.n	1000a492 <tu_fifo_write_n+0x56>
1000a490:	1c22      	adds	r2, r4, #0
1000a492:	b293      	uxth	r3, r2
1000a494:	4698      	mov	r8, r3
1000a496:	88e8      	ldrh	r0, [r5, #6]
1000a498:	4643      	mov	r3, r8
1000a49a:	18fb      	adds	r3, r7, r3
1000a49c:	b29b      	uxth	r3, r3
1000a49e:	469b      	mov	fp, r3
1000a4a0:	003c      	movs	r4, r7
1000a4a2:	42b7      	cmp	r7, r6
1000a4a4:	d303      	bcc.n	1000a4ae <tu_fifo_write_n+0x72>
1000a4a6:	1ba4      	subs	r4, r4, r6
1000a4a8:	b2a4      	uxth	r4, r4
1000a4aa:	42b4      	cmp	r4, r6
1000a4ac:	d2fb      	bcs.n	1000a4a6 <tu_fifo_write_n+0x6a>
1000a4ae:	0440      	lsls	r0, r0, #17
1000a4b0:	0c43      	lsrs	r3, r0, #17
1000a4b2:	0018      	movs	r0, r3
1000a4b4:	469a      	mov	sl, r3
1000a4b6:	682b      	ldr	r3, [r5, #0]
1000a4b8:	4360      	muls	r0, r4
1000a4ba:	469c      	mov	ip, r3
1000a4bc:	1b31      	subs	r1, r6, r4
1000a4be:	b289      	uxth	r1, r1
1000a4c0:	4460      	add	r0, ip
1000a4c2:	4541      	cmp	r1, r8
1000a4c4:	d34e      	bcc.n	1000a564 <tu_fifo_write_n+0x128>
1000a4c6:	4652      	mov	r2, sl
1000a4c8:	4643      	mov	r3, r8
1000a4ca:	4649      	mov	r1, r9
1000a4cc:	435a      	muls	r2, r3
1000a4ce:	f7fd fd0d 	bl	10007eec <__wrap___aeabi_memcpy>
1000a4d2:	88ab      	ldrh	r3, [r5, #4]
1000a4d4:	005b      	lsls	r3, r3, #1
1000a4d6:	45bb      	cmp	fp, r7
1000a4d8:	d301      	bcc.n	1000a4de <tu_fifo_write_n+0xa2>
1000a4da:	459b      	cmp	fp, r3
1000a4dc:	db03      	blt.n	1000a4e6 <tu_fifo_write_n+0xaa>
1000a4de:	465a      	mov	r2, fp
1000a4e0:	1ad3      	subs	r3, r2, r3
1000a4e2:	b29b      	uxth	r3, r3
1000a4e4:	469b      	mov	fp, r3
1000a4e6:	465b      	mov	r3, fp
1000a4e8:	812b      	strh	r3, [r5, #8]
1000a4ea:	68e8      	ldr	r0, [r5, #12]
1000a4ec:	2800      	cmp	r0, #0
1000a4ee:	d022      	beq.n	1000a536 <tu_fifo_write_n+0xfa>
1000a4f0:	f000 f932 	bl	1000a758 <__mutex_exit_veneer>
1000a4f4:	e01f      	b.n	1000a536 <tu_fifo_write_n+0xfa>
1000a4f6:	88aa      	ldrh	r2, [r5, #4]
1000a4f8:	4690      	mov	r8, r2
1000a4fa:	4294      	cmp	r4, r2
1000a4fc:	d226      	bcs.n	1000a54c <tu_fifo_write_n+0x110>
1000a4fe:	429f      	cmp	r7, r3
1000a500:	d344      	bcc.n	1000a58c <tu_fifo_write_n+0x150>
1000a502:	4641      	mov	r1, r8
1000a504:	1afa      	subs	r2, r7, r3
1000a506:	b292      	uxth	r2, r2
1000a508:	0049      	lsls	r1, r1, #1
1000a50a:	1912      	adds	r2, r2, r4
1000a50c:	428a      	cmp	r2, r1
1000a50e:	db09      	blt.n	1000a524 <tu_fifo_write_n+0xe8>
1000a510:	4642      	mov	r2, r8
1000a512:	189a      	adds	r2, r3, r2
1000a514:	b292      	uxth	r2, r2
1000a516:	1b17      	subs	r7, r2, r4
1000a518:	b2bf      	uxth	r7, r7
1000a51a:	4693      	mov	fp, r2
1000a51c:	42bb      	cmp	r3, r7
1000a51e:	d93a      	bls.n	1000a596 <tu_fifo_write_n+0x15a>
1000a520:	1a7f      	subs	r7, r7, r1
1000a522:	b2bf      	uxth	r7, r7
1000a524:	19e3      	adds	r3, r4, r7
1000a526:	b29b      	uxth	r3, r3
1000a528:	4646      	mov	r6, r8
1000a52a:	469b      	mov	fp, r3
1000a52c:	46a0      	mov	r8, r4
1000a52e:	88e8      	ldrh	r0, [r5, #6]
1000a530:	e7b6      	b.n	1000a4a0 <tu_fifo_write_n+0x64>
1000a532:	2300      	movs	r3, #0
1000a534:	4698      	mov	r8, r3
1000a536:	4640      	mov	r0, r8
1000a538:	b003      	add	sp, #12
1000a53a:	bcf0      	pop	{r4, r5, r6, r7}
1000a53c:	46bb      	mov	fp, r7
1000a53e:	46b2      	mov	sl, r6
1000a540:	46a9      	mov	r9, r5
1000a542:	46a0      	mov	r8, r4
1000a544:	bdf0      	pop	{r4, r5, r6, r7, pc}
1000a546:	1afb      	subs	r3, r7, r3
1000a548:	b29b      	uxth	r3, r3
1000a54a:	e798      	b.n	1000a47e <tu_fifo_write_n+0x42>
1000a54c:	88e8      	ldrh	r0, [r5, #6]
1000a54e:	1aa2      	subs	r2, r4, r2
1000a550:	0444      	lsls	r4, r0, #17
1000a552:	0c64      	lsrs	r4, r4, #17
1000a554:	4354      	muls	r4, r2
1000a556:	4642      	mov	r2, r8
1000a558:	44a1      	add	r9, r4
1000a55a:	2a00      	cmp	r2, #0
1000a55c:	d0c5      	beq.n	1000a4ea <tu_fifo_write_n+0xae>
1000a55e:	4646      	mov	r6, r8
1000a560:	001f      	movs	r7, r3
1000a562:	e799      	b.n	1000a498 <tu_fifo_write_n+0x5c>
1000a564:	4653      	mov	r3, sl
1000a566:	4359      	muls	r1, r3
1000a568:	b289      	uxth	r1, r1
1000a56a:	000a      	movs	r2, r1
1000a56c:	9101      	str	r1, [sp, #4]
1000a56e:	4649      	mov	r1, r9
1000a570:	f7fd fcbc 	bl	10007eec <__wrap___aeabi_memcpy>
1000a574:	4643      	mov	r3, r8
1000a576:	1b9a      	subs	r2, r3, r6
1000a578:	4653      	mov	r3, sl
1000a57a:	18a2      	adds	r2, r4, r2
1000a57c:	435a      	muls	r2, r3
1000a57e:	9901      	ldr	r1, [sp, #4]
1000a580:	6828      	ldr	r0, [r5, #0]
1000a582:	b292      	uxth	r2, r2
1000a584:	4449      	add	r1, r9
1000a586:	f7fd fcb1 	bl	10007eec <__wrap___aeabi_memcpy>
1000a58a:	e7a2      	b.n	1000a4d2 <tu_fifo_write_n+0x96>
1000a58c:	0051      	lsls	r1, r2, #1
1000a58e:	1aca      	subs	r2, r1, r3
1000a590:	18ba      	adds	r2, r7, r2
1000a592:	b292      	uxth	r2, r2
1000a594:	e7b9      	b.n	1000a50a <tu_fifo_write_n+0xce>
1000a596:	42b9      	cmp	r1, r7
1000a598:	ddc2      	ble.n	1000a520 <tu_fifo_write_n+0xe4>
1000a59a:	4646      	mov	r6, r8
1000a59c:	88e8      	ldrh	r0, [r5, #6]
1000a59e:	46a0      	mov	r8, r4
1000a5a0:	e77e      	b.n	1000a4a0 <tu_fifo_write_n+0x64>
1000a5a2:	46c0      	nop			; (mov r8, r8)

1000a5a4 <tu_fifo_clear>:
1000a5a4:	b510      	push	{r4, lr}
1000a5a6:	0004      	movs	r4, r0
1000a5a8:	68c0      	ldr	r0, [r0, #12]
1000a5aa:	2800      	cmp	r0, #0
1000a5ac:	d003      	beq.n	1000a5b6 <tu_fifo_clear+0x12>
1000a5ae:	2101      	movs	r1, #1
1000a5b0:	4249      	negs	r1, r1
1000a5b2:	f000 f901 	bl	1000a7b8 <__mutex_enter_timeout_ms_veneer>
1000a5b6:	6920      	ldr	r0, [r4, #16]
1000a5b8:	2800      	cmp	r0, #0
1000a5ba:	d003      	beq.n	1000a5c4 <tu_fifo_clear+0x20>
1000a5bc:	2101      	movs	r1, #1
1000a5be:	4249      	negs	r1, r1
1000a5c0:	f000 f8fa 	bl	1000a7b8 <__mutex_enter_timeout_ms_veneer>
1000a5c4:	2300      	movs	r3, #0
1000a5c6:	68e0      	ldr	r0, [r4, #12]
1000a5c8:	8163      	strh	r3, [r4, #10]
1000a5ca:	8123      	strh	r3, [r4, #8]
1000a5cc:	2800      	cmp	r0, #0
1000a5ce:	d001      	beq.n	1000a5d4 <tu_fifo_clear+0x30>
1000a5d0:	f000 f8c2 	bl	1000a758 <__mutex_exit_veneer>
1000a5d4:	6920      	ldr	r0, [r4, #16]
1000a5d6:	2800      	cmp	r0, #0
1000a5d8:	d001      	beq.n	1000a5de <tu_fifo_clear+0x3a>
1000a5da:	f000 f8bd 	bl	1000a758 <__mutex_exit_veneer>
1000a5de:	2001      	movs	r0, #1
1000a5e0:	bd10      	pop	{r4, pc}
1000a5e2:	46c0      	nop			; (mov r8, r8)

1000a5e4 <tu_fifo_set_overwritable>:
1000a5e4:	b570      	push	{r4, r5, r6, lr}
1000a5e6:	0004      	movs	r4, r0
1000a5e8:	68c0      	ldr	r0, [r0, #12]
1000a5ea:	000d      	movs	r5, r1
1000a5ec:	2800      	cmp	r0, #0
1000a5ee:	d003      	beq.n	1000a5f8 <tu_fifo_set_overwritable+0x14>
1000a5f0:	2101      	movs	r1, #1
1000a5f2:	4249      	negs	r1, r1
1000a5f4:	f000 f8e0 	bl	1000a7b8 <__mutex_enter_timeout_ms_veneer>
1000a5f8:	6920      	ldr	r0, [r4, #16]
1000a5fa:	2800      	cmp	r0, #0
1000a5fc:	d003      	beq.n	1000a606 <tu_fifo_set_overwritable+0x22>
1000a5fe:	2101      	movs	r1, #1
1000a600:	4249      	negs	r1, r1
1000a602:	f000 f8d9 	bl	1000a7b8 <__mutex_enter_timeout_ms_veneer>
1000a606:	217f      	movs	r1, #127	; 0x7f
1000a608:	79e3      	ldrb	r3, [r4, #7]
1000a60a:	01ed      	lsls	r5, r5, #7
1000a60c:	4019      	ands	r1, r3
1000a60e:	68e0      	ldr	r0, [r4, #12]
1000a610:	4329      	orrs	r1, r5
1000a612:	71e1      	strb	r1, [r4, #7]
1000a614:	2800      	cmp	r0, #0
1000a616:	d001      	beq.n	1000a61c <tu_fifo_set_overwritable+0x38>
1000a618:	f000 f89e 	bl	1000a758 <__mutex_exit_veneer>
1000a61c:	6920      	ldr	r0, [r4, #16]
1000a61e:	2800      	cmp	r0, #0
1000a620:	d001      	beq.n	1000a626 <tu_fifo_set_overwritable+0x42>
1000a622:	f000 f899 	bl	1000a758 <__mutex_exit_veneer>
1000a626:	2001      	movs	r0, #1
1000a628:	bd70      	pop	{r4, r5, r6, pc}
1000a62a:	46c0      	nop			; (mov r8, r8)

1000a62c <adc_init>:
1000a62c:	2301      	movs	r3, #1
1000a62e:	2101      	movs	r1, #1
1000a630:	4a08      	ldr	r2, [pc, #32]	; (1000a654 <adc_init+0x28>)
1000a632:	6013      	str	r3, [r2, #0]
1000a634:	4a08      	ldr	r2, [pc, #32]	; (1000a658 <adc_init+0x2c>)
1000a636:	6013      	str	r3, [r2, #0]
1000a638:	4a08      	ldr	r2, [pc, #32]	; (1000a65c <adc_init+0x30>)
1000a63a:	0008      	movs	r0, r1
1000a63c:	6893      	ldr	r3, [r2, #8]
1000a63e:	4398      	bics	r0, r3
1000a640:	d1fb      	bne.n	1000a63a <adc_init+0xe>
1000a642:	4a07      	ldr	r2, [pc, #28]	; (1000a660 <adc_init+0x34>)
1000a644:	6011      	str	r1, [r2, #0]
1000a646:	2180      	movs	r1, #128	; 0x80
1000a648:	0049      	lsls	r1, r1, #1
1000a64a:	6813      	ldr	r3, [r2, #0]
1000a64c:	420b      	tst	r3, r1
1000a64e:	d0fc      	beq.n	1000a64a <adc_init+0x1e>
1000a650:	4770      	bx	lr
1000a652:	46c0      	nop			; (mov r8, r8)
1000a654:	4000e000 	.word	0x4000e000
1000a658:	4000f000 	.word	0x4000f000
1000a65c:	4000c000 	.word	0x4000c000
1000a660:	4004c000 	.word	0x4004c000

1000a664 <strlen>:
1000a664:	b510      	push	{r4, lr}
1000a666:	0783      	lsls	r3, r0, #30
1000a668:	d00a      	beq.n	1000a680 <strlen+0x1c>
1000a66a:	0003      	movs	r3, r0
1000a66c:	2103      	movs	r1, #3
1000a66e:	e002      	b.n	1000a676 <strlen+0x12>
1000a670:	3301      	adds	r3, #1
1000a672:	420b      	tst	r3, r1
1000a674:	d005      	beq.n	1000a682 <strlen+0x1e>
1000a676:	781a      	ldrb	r2, [r3, #0]
1000a678:	2a00      	cmp	r2, #0
1000a67a:	d1f9      	bne.n	1000a670 <strlen+0xc>
1000a67c:	1a18      	subs	r0, r3, r0
1000a67e:	bd10      	pop	{r4, pc}
1000a680:	0003      	movs	r3, r0
1000a682:	6819      	ldr	r1, [r3, #0]
1000a684:	4a0c      	ldr	r2, [pc, #48]	; (1000a6b8 <strlen+0x54>)
1000a686:	4c0d      	ldr	r4, [pc, #52]	; (1000a6bc <strlen+0x58>)
1000a688:	188a      	adds	r2, r1, r2
1000a68a:	438a      	bics	r2, r1
1000a68c:	4222      	tst	r2, r4
1000a68e:	d10f      	bne.n	1000a6b0 <strlen+0x4c>
1000a690:	6859      	ldr	r1, [r3, #4]
1000a692:	4a09      	ldr	r2, [pc, #36]	; (1000a6b8 <strlen+0x54>)
1000a694:	3304      	adds	r3, #4
1000a696:	188a      	adds	r2, r1, r2
1000a698:	438a      	bics	r2, r1
1000a69a:	4222      	tst	r2, r4
1000a69c:	d108      	bne.n	1000a6b0 <strlen+0x4c>
1000a69e:	6859      	ldr	r1, [r3, #4]
1000a6a0:	4a05      	ldr	r2, [pc, #20]	; (1000a6b8 <strlen+0x54>)
1000a6a2:	3304      	adds	r3, #4
1000a6a4:	188a      	adds	r2, r1, r2
1000a6a6:	438a      	bics	r2, r1
1000a6a8:	4222      	tst	r2, r4
1000a6aa:	d0f1      	beq.n	1000a690 <strlen+0x2c>
1000a6ac:	e000      	b.n	1000a6b0 <strlen+0x4c>
1000a6ae:	3301      	adds	r3, #1
1000a6b0:	781a      	ldrb	r2, [r3, #0]
1000a6b2:	2a00      	cmp	r2, #0
1000a6b4:	d1fb      	bne.n	1000a6ae <strlen+0x4a>
1000a6b6:	e7e1      	b.n	1000a67c <strlen+0x18>
1000a6b8:	fefefeff 	.word	0xfefefeff
1000a6bc:	80808080 	.word	0x80808080

1000a6c0 <strncmp>:
1000a6c0:	b530      	push	{r4, r5, lr}
1000a6c2:	2a00      	cmp	r2, #0
1000a6c4:	d026      	beq.n	1000a714 <strncmp+0x54>
1000a6c6:	0003      	movs	r3, r0
1000a6c8:	430b      	orrs	r3, r1
1000a6ca:	079b      	lsls	r3, r3, #30
1000a6cc:	d124      	bne.n	1000a718 <strncmp+0x58>
1000a6ce:	2a03      	cmp	r2, #3
1000a6d0:	d922      	bls.n	1000a718 <strncmp+0x58>
1000a6d2:	4d16      	ldr	r5, [pc, #88]	; (1000a72c <strncmp+0x6c>)
1000a6d4:	e00b      	b.n	1000a6ee <strncmp+0x2e>
1000a6d6:	3a04      	subs	r2, #4
1000a6d8:	2a00      	cmp	r2, #0
1000a6da:	d01b      	beq.n	1000a714 <strncmp+0x54>
1000a6dc:	4c14      	ldr	r4, [pc, #80]	; (1000a730 <strncmp+0x70>)
1000a6de:	191c      	adds	r4, r3, r4
1000a6e0:	439c      	bics	r4, r3
1000a6e2:	422c      	tst	r4, r5
1000a6e4:	d116      	bne.n	1000a714 <strncmp+0x54>
1000a6e6:	3004      	adds	r0, #4
1000a6e8:	3104      	adds	r1, #4
1000a6ea:	2a03      	cmp	r2, #3
1000a6ec:	d914      	bls.n	1000a718 <strncmp+0x58>
1000a6ee:	6803      	ldr	r3, [r0, #0]
1000a6f0:	680c      	ldr	r4, [r1, #0]
1000a6f2:	42a3      	cmp	r3, r4
1000a6f4:	d0ef      	beq.n	1000a6d6 <strncmp+0x16>
1000a6f6:	7804      	ldrb	r4, [r0, #0]
1000a6f8:	780d      	ldrb	r5, [r1, #0]
1000a6fa:	42ac      	cmp	r4, r5
1000a6fc:	d113      	bne.n	1000a726 <strncmp+0x66>
1000a6fe:	2301      	movs	r3, #1
1000a700:	e006      	b.n	1000a710 <strncmp+0x50>
1000a702:	5cc4      	ldrb	r4, [r0, r3]
1000a704:	5ccd      	ldrb	r5, [r1, r3]
1000a706:	42ac      	cmp	r4, r5
1000a708:	d10d      	bne.n	1000a726 <strncmp+0x66>
1000a70a:	3301      	adds	r3, #1
1000a70c:	4293      	cmp	r3, r2
1000a70e:	d001      	beq.n	1000a714 <strncmp+0x54>
1000a710:	2c00      	cmp	r4, #0
1000a712:	d1f6      	bne.n	1000a702 <strncmp+0x42>
1000a714:	2000      	movs	r0, #0
1000a716:	bd30      	pop	{r4, r5, pc}
1000a718:	7804      	ldrb	r4, [r0, #0]
1000a71a:	780d      	ldrb	r5, [r1, #0]
1000a71c:	42a5      	cmp	r5, r4
1000a71e:	d102      	bne.n	1000a726 <strncmp+0x66>
1000a720:	2a01      	cmp	r2, #1
1000a722:	d1ec      	bne.n	1000a6fe <strncmp+0x3e>
1000a724:	e7f6      	b.n	1000a714 <strncmp+0x54>
1000a726:	1b60      	subs	r0, r4, r5
1000a728:	e7f5      	b.n	1000a716 <strncmp+0x56>
1000a72a:	46c0      	nop			; (mov r8, r8)
1000a72c:	80808080 	.word	0x80808080
1000a730:	fefefeff 	.word	0xfefefeff

1000a734 <_fini>:
1000a734:	b5f8      	push	{r3, r4, r5, r6, r7, lr}
1000a736:	46c0      	nop			; (mov r8, r8)

1000a738 <__sem_release_veneer>:
1000a738:	b401      	push	{r0}
1000a73a:	4802      	ldr	r0, [pc, #8]	; (1000a744 <__sem_release_veneer+0xc>)
1000a73c:	4684      	mov	ip, r0
1000a73e:	bc01      	pop	{r0}
1000a740:	4760      	bx	ip
1000a742:	bf00      	nop
1000a744:	20000265 	.word	0x20000265

1000a748 <__flash_do_cmd_veneer>:
1000a748:	b401      	push	{r0}
1000a74a:	4802      	ldr	r0, [pc, #8]	; (1000a754 <__flash_do_cmd_veneer+0xc>)
1000a74c:	4684      	mov	ip, r0
1000a74e:	bc01      	pop	{r0}
1000a750:	4760      	bx	ip
1000a752:	bf00      	nop
1000a754:	20000139 	.word	0x20000139

1000a758 <__mutex_exit_veneer>:
1000a758:	b401      	push	{r0}
1000a75a:	4802      	ldr	r0, [pc, #8]	; (1000a764 <__mutex_exit_veneer+0xc>)
1000a75c:	4684      	mov	ip, r0
1000a75e:	bc01      	pop	{r0}
1000a760:	4760      	bx	ip
1000a762:	bf00      	nop
1000a764:	200004c9 	.word	0x200004c9

1000a768 <____aeabi_ldiv0_veneer>:
1000a768:	b401      	push	{r0}
1000a76a:	4802      	ldr	r0, [pc, #8]	; (1000a774 <____aeabi_ldiv0_veneer+0xc>)
1000a76c:	4684      	mov	ip, r0
1000a76e:	bc01      	pop	{r0}
1000a770:	4760      	bx	ip
1000a772:	bf00      	nop
1000a774:	20000f41 	.word	0x20000f41

1000a778 <__recursive_mutex_try_enter_veneer>:
1000a778:	b401      	push	{r0}
1000a77a:	4802      	ldr	r0, [pc, #8]	; (1000a784 <__recursive_mutex_try_enter_veneer+0xc>)
1000a77c:	4684      	mov	ip, r0
1000a77e:	bc01      	pop	{r0}
1000a780:	4760      	bx	ip
1000a782:	bf00      	nop
1000a784:	200003e5 	.word	0x200003e5

1000a788 <____aeabi_idiv0_veneer>:
1000a788:	b401      	push	{r0}
1000a78a:	4802      	ldr	r0, [pc, #8]	; (1000a794 <____aeabi_idiv0_veneer+0xc>)
1000a78c:	4684      	mov	ip, r0
1000a78e:	bc01      	pop	{r0}
1000a790:	4760      	bx	ip
1000a792:	bf00      	nop
1000a794:	20000f41 	.word	0x20000f41

1000a798 <__recursive_mutex_enter_blocking_veneer>:
1000a798:	b401      	push	{r0}
1000a79a:	4802      	ldr	r0, [pc, #8]	; (1000a7a4 <__recursive_mutex_enter_blocking_veneer+0xc>)
1000a79c:	4684      	mov	ip, r0
1000a79e:	bc01      	pop	{r0}
1000a7a0:	4760      	bx	ip
1000a7a2:	bf00      	nop
1000a7a4:	200002b1 	.word	0x200002b1

1000a7a8 <__mutex_try_enter_veneer>:
1000a7a8:	b401      	push	{r0}
1000a7aa:	4802      	ldr	r0, [pc, #8]	; (1000a7b4 <__mutex_try_enter_veneer+0xc>)
1000a7ac:	4684      	mov	ip, r0
1000a7ae:	bc01      	pop	{r0}
1000a7b0:	4760      	bx	ip
1000a7b2:	bf00      	nop
1000a7b4:	20000305 	.word	0x20000305

1000a7b8 <__mutex_enter_timeout_ms_veneer>:
1000a7b8:	b401      	push	{r0}
1000a7ba:	4802      	ldr	r0, [pc, #8]	; (1000a7c4 <__mutex_enter_timeout_ms_veneer+0xc>)
1000a7bc:	4684      	mov	ip, r0
1000a7be:	bc01      	pop	{r0}
1000a7c0:	4760      	bx	ip
1000a7c2:	bf00      	nop
1000a7c4:	20000439 	.word	0x20000439

1000a7c8 <__reset_non_control_endpoints_veneer>:
1000a7c8:	b401      	push	{r0}
1000a7ca:	4802      	ldr	r0, [pc, #8]	; (1000a7d4 <__reset_non_control_endpoints_veneer+0xc>)
1000a7cc:	4684      	mov	ip, r0
1000a7ce:	bc01      	pop	{r0}
1000a7d0:	4760      	bx	ip
1000a7d2:	bf00      	nop
1000a7d4:	20000535 	.word	0x20000535

1000a7d8 <__mutex_try_enter_block_until_veneer>:
1000a7d8:	b401      	push	{r0}
1000a7da:	4802      	ldr	r0, [pc, #8]	; (1000a7e4 <__mutex_try_enter_block_until_veneer+0xc>)
1000a7dc:	4684      	mov	ip, r0
1000a7de:	bc01      	pop	{r0}
1000a7e0:	4760      	bx	ip
1000a7e2:	bf00      	nop
1000a7e4:	20000349 	.word	0x20000349

1000a7e8 <__hw_endpoint_start_next_buffer_veneer>:
1000a7e8:	b401      	push	{r0}
1000a7ea:	4802      	ldr	r0, [pc, #8]	; (1000a7f4 <__hw_endpoint_start_next_buffer_veneer+0xc>)
1000a7ec:	4684      	mov	ip, r0
1000a7ee:	bc01      	pop	{r0}
1000a7f0:	4760      	bx	ip
1000a7f2:	bf00      	nop
1000a7f4:	20000d15 	.word	0x20000d15

1000a7f8 <__recursive_mutex_exit_veneer>:
1000a7f8:	b401      	push	{r0}
1000a7fa:	4802      	ldr	r0, [pc, #8]	; (1000a804 <__recursive_mutex_exit_veneer+0xc>)
1000a7fc:	4684      	mov	ip, r0
1000a7fe:	bc01      	pop	{r0}
1000a800:	4760      	bx	ip
1000a802:	bf00      	nop
1000a804:	200004f1 	.word	0x200004f1

1000a808 <__e15_is_critical_frame_period_veneer>:
1000a808:	b401      	push	{r0}
1000a80a:	4802      	ldr	r0, [pc, #8]	; (1000a814 <__e15_is_critical_frame_period_veneer+0xc>)
1000a80c:	4684      	mov	ip, r0
1000a80e:	bc01      	pop	{r0}
1000a810:	4760      	bx	ip
1000a812:	bf00      	nop
1000a814:	20000b99 	.word	0x20000b99

1000a818 <__hw_endpoint_reset_transfer_veneer>:
1000a818:	b401      	push	{r0}
1000a81a:	4802      	ldr	r0, [pc, #8]	; (1000a824 <__hw_endpoint_reset_transfer_veneer+0xc>)
1000a81c:	4684      	mov	ip, r0
1000a81e:	bc01      	pop	{r0}
1000a820:	4760      	bx	ip
1000a822:	bf00      	nop
1000a824:	20000cb1 	.word	0x20000cb1

1000a828 <__e15_is_bulkin_ep_veneer>:
1000a828:	b401      	push	{r0}
1000a82a:	4802      	ldr	r0, [pc, #8]	; (1000a834 <__e15_is_bulkin_ep_veneer+0xc>)
1000a82c:	4684      	mov	ip, r0
1000a82e:	bc01      	pop	{r0}
1000a830:	4760      	bx	ip
1000a832:	bf00      	nop
1000a834:	20000b71 	.word	0x20000b71

1000a838 <___hw_endpoint_buffer_control_update32_veneer>:
1000a838:	b401      	push	{r0}
1000a83a:	4802      	ldr	r0, [pc, #8]	; (1000a844 <___hw_endpoint_buffer_control_update32_veneer+0xc>)
1000a83c:	4684      	mov	ip, r0
1000a83e:	bc01      	pop	{r0}
1000a840:	4760      	bx	ip
1000a842:	bf00      	nop
1000a844:	20000cbd 	.word	0x20000cbd

1000a848 <__sem_acquire_block_until_veneer>:
1000a848:	b401      	push	{r0}
1000a84a:	4802      	ldr	r0, [pc, #8]	; (1000a854 <__sem_acquire_block_until_veneer+0xc>)
1000a84c:	4684      	mov	ip, r0
1000a84e:	bc01      	pop	{r0}
1000a850:	4760      	bx	ip
1000a852:	bf00      	nop
1000a854:	200001fd 	.word	0x200001fd

1000a858 <__memmove_veneer>:
1000a858:	b401      	push	{r0}
1000a85a:	4802      	ldr	r0, [pc, #8]	; (1000a864 <__memmove_veneer+0xc>)
1000a85c:	4684      	mov	ip, r0
1000a85e:	bc01      	pop	{r0}
1000a860:	4760      	bx	ip
1000a862:	bf00      	nop
1000a864:	20000f45 	.word	0x20000f45

Disassembly of section .data:

200000c0 <flash_init_boot2_copyout>:
200000c0:	4808      	ldr	r0, [pc, #32]	; (200000e4 <flash_init_boot2_copyout+0x24>)
200000c2:	b510      	push	{r4, lr}
200000c4:	7803      	ldrb	r3, [r0, #0]
200000c6:	2b00      	cmp	r3, #0
200000c8:	d10a      	bne.n	200000e0 <flash_init_boot2_copyout+0x20>
200000ca:	2380      	movs	r3, #128	; 0x80
200000cc:	4906      	ldr	r1, [pc, #24]	; (200000e8 <flash_init_boot2_copyout+0x28>)
200000ce:	4a07      	ldr	r2, [pc, #28]	; (200000ec <flash_init_boot2_copyout+0x2c>)
200000d0:	055b      	lsls	r3, r3, #21
200000d2:	681c      	ldr	r4, [r3, #0]
200000d4:	50cc      	str	r4, [r1, r3]
200000d6:	3304      	adds	r3, #4
200000d8:	4293      	cmp	r3, r2
200000da:	d1fa      	bne.n	200000d2 <flash_init_boot2_copyout+0x12>
200000dc:	2301      	movs	r3, #1
200000de:	7003      	strb	r3, [r0, #0]
200000e0:	bd10      	pop	{r4, pc}
200000e2:	46c0      	nop			; (mov r8, r8)
200000e4:	20002c80 	.word	0x20002c80
200000e8:	1000187c 	.word	0x1000187c
200000ec:	10000100 	.word	0x10000100

200000f0 <flash_enable_xip_via_boot2>:
200000f0:	b510      	push	{r4, lr}
200000f2:	4b02      	ldr	r3, [pc, #8]	; (200000fc <flash_enable_xip_via_boot2+0xc>)
200000f4:	3301      	adds	r3, #1
200000f6:	4798      	blx	r3
200000f8:	bd10      	pop	{r4, pc}
200000fa:	46c0      	nop			; (mov r8, r8)
200000fc:	2000187c 	.word	0x2000187c

20000100 <flash_cs_force.constprop.0>:
20000100:	4b03      	ldr	r3, [pc, #12]	; (20000110 <flash_cs_force.constprop.0+0x10>)
20000102:	681a      	ldr	r2, [r3, #0]
20000104:	23c0      	movs	r3, #192	; 0xc0
20000106:	009b      	lsls	r3, r3, #2
20000108:	4393      	bics	r3, r2
2000010a:	4a02      	ldr	r2, [pc, #8]	; (20000114 <flash_cs_force.constprop.0+0x14>)
2000010c:	6013      	str	r3, [r2, #0]
2000010e:	4770      	bx	lr
20000110:	4001800c 	.word	0x4001800c
20000114:	4001900c 	.word	0x4001900c

20000118 <flash_cs_force.constprop.1>:
20000118:	4b05      	ldr	r3, [pc, #20]	; (20000130 <flash_cs_force.constprop.1+0x18>)
2000011a:	681a      	ldr	r2, [r3, #0]
2000011c:	2380      	movs	r3, #128	; 0x80
2000011e:	009b      	lsls	r3, r3, #2
20000120:	4053      	eors	r3, r2
20000122:	22c0      	movs	r2, #192	; 0xc0
20000124:	0092      	lsls	r2, r2, #2
20000126:	4013      	ands	r3, r2
20000128:	4a02      	ldr	r2, [pc, #8]	; (20000134 <flash_cs_force.constprop.1+0x1c>)
2000012a:	6013      	str	r3, [r2, #0]
2000012c:	4770      	bx	lr
2000012e:	46c0      	nop			; (mov r8, r8)
20000130:	4001800c 	.word	0x4001800c
20000134:	4001900c 	.word	0x4001900c

20000138 <flash_do_cmd>:
20000138:	2314      	movs	r3, #20
2000013a:	b5f0      	push	{r4, r5, r6, r7, lr}
2000013c:	46d6      	mov	lr, sl
2000013e:	464f      	mov	r7, r9
20000140:	4646      	mov	r6, r8
20000142:	469a      	mov	sl, r3
20000144:	4681      	mov	r9, r0
20000146:	8818      	ldrh	r0, [r3, #0]
20000148:	3304      	adds	r3, #4
2000014a:	b5c0      	push	{r6, r7, lr}
2000014c:	4698      	mov	r8, r3
2000014e:	000e      	movs	r6, r1
20000150:	881b      	ldrh	r3, [r3, #0]
20000152:	4927      	ldr	r1, [pc, #156]	; (200001f0 <flash_do_cmd+0xb8>)
20000154:	0014      	movs	r4, r2
20000156:	4798      	blx	r3
20000158:	4653      	mov	r3, sl
2000015a:	0007      	movs	r7, r0
2000015c:	8818      	ldrh	r0, [r3, #0]
2000015e:	4643      	mov	r3, r8
20000160:	4924      	ldr	r1, [pc, #144]	; (200001f4 <flash_do_cmd+0xbc>)
20000162:	881b      	ldrh	r3, [r3, #0]
20000164:	4798      	blx	r3
20000166:	4653      	mov	r3, sl
20000168:	0005      	movs	r5, r0
2000016a:	8818      	ldrh	r0, [r3, #0]
2000016c:	4643      	mov	r3, r8
2000016e:	4922      	ldr	r1, [pc, #136]	; (200001f8 <flash_do_cmd+0xc0>)
20000170:	881b      	ldrh	r3, [r3, #0]
20000172:	4798      	blx	r3
20000174:	4680      	mov	r8, r0
20000176:	f7ff ffa3 	bl	200000c0 <flash_init_boot2_copyout>
2000017a:	47b8      	blx	r7
2000017c:	47a8      	blx	r5
2000017e:	f7ff ffcb 	bl	20000118 <flash_cs_force.constprop.1>
20000182:	2c00      	cmp	r4, #0
20000184:	d01b      	beq.n	200001be <flash_do_cmd+0x86>
20000186:	21c0      	movs	r1, #192	; 0xc0
20000188:	0022      	movs	r2, r4
2000018a:	2708      	movs	r7, #8
2000018c:	2002      	movs	r0, #2
2000018e:	0549      	lsls	r1, r1, #21
20000190:	003d      	movs	r5, r7
20000192:	6a8b      	ldr	r3, [r1, #40]	; 0x28
20000194:	401d      	ands	r5, r3
20000196:	4218      	tst	r0, r3
20000198:	d00b      	beq.n	200001b2 <flash_do_cmd+0x7a>
2000019a:	2c00      	cmp	r4, #0
2000019c:	d009      	beq.n	200001b2 <flash_do_cmd+0x7a>
2000019e:	1b13      	subs	r3, r2, r4
200001a0:	2b0d      	cmp	r3, #13
200001a2:	d81f      	bhi.n	200001e4 <flash_do_cmd+0xac>
200001a4:	464b      	mov	r3, r9
200001a6:	781b      	ldrb	r3, [r3, #0]
200001a8:	3c01      	subs	r4, #1
200001aa:	660b      	str	r3, [r1, #96]	; 0x60
200001ac:	2301      	movs	r3, #1
200001ae:	469c      	mov	ip, r3
200001b0:	44e1      	add	r9, ip
200001b2:	0023      	movs	r3, r4
200001b4:	2d00      	cmp	r5, #0
200001b6:	d10c      	bne.n	200001d2 <flash_do_cmd+0x9a>
200001b8:	4313      	orrs	r3, r2
200001ba:	2b00      	cmp	r3, #0
200001bc:	d1e8      	bne.n	20000190 <flash_do_cmd+0x58>
200001be:	f7ff ff9f 	bl	20000100 <flash_cs_force.constprop.0>
200001c2:	47c0      	blx	r8
200001c4:	f7ff ff94 	bl	200000f0 <flash_enable_xip_via_boot2>
200001c8:	bce0      	pop	{r5, r6, r7}
200001ca:	46ba      	mov	sl, r7
200001cc:	46b1      	mov	r9, r6
200001ce:	46a8      	mov	r8, r5
200001d0:	bdf0      	pop	{r4, r5, r6, r7, pc}
200001d2:	2a00      	cmp	r2, #0
200001d4:	d0f1      	beq.n	200001ba <flash_do_cmd+0x82>
200001d6:	6e0b      	ldr	r3, [r1, #96]	; 0x60
200001d8:	3a01      	subs	r2, #1
200001da:	7033      	strb	r3, [r6, #0]
200001dc:	0013      	movs	r3, r2
200001de:	3601      	adds	r6, #1
200001e0:	4323      	orrs	r3, r4
200001e2:	e7ea      	b.n	200001ba <flash_do_cmd+0x82>
200001e4:	2d00      	cmp	r5, #0
200001e6:	d0d3      	beq.n	20000190 <flash_do_cmd+0x58>
200001e8:	2a00      	cmp	r2, #0
200001ea:	d0d1      	beq.n	20000190 <flash_do_cmd+0x58>
200001ec:	e7f3      	b.n	200001d6 <flash_do_cmd+0x9e>
200001ee:	46c0      	nop			; (mov r8, r8)
200001f0:	00004649 	.word	0x00004649
200001f4:	00005845 	.word	0x00005845
200001f8:	00004346 	.word	0x00004346

200001fc <sem_acquire_block_until>:
200001fc:	b5f8      	push	{r3, r4, r5, r6, r7, lr}
200001fe:	4647      	mov	r7, r8
20000200:	46ce      	mov	lr, r9
20000202:	b580      	push	{r7, lr}
20000204:	001f      	movs	r7, r3
20000206:	2300      	movs	r3, #0
20000208:	0004      	movs	r4, r0
2000020a:	4690      	mov	r8, r2
2000020c:	4699      	mov	r9, r3
2000020e:	e00c      	b.n	2000022a <sem_acquire_block_until+0x2e>
20000210:	6823      	ldr	r3, [r4, #0]
20000212:	f3bf 8f5f 	dmb	sy
20000216:	464a      	mov	r2, r9
20000218:	601a      	str	r2, [r3, #0]
2000021a:	f38c 8810 	msr	PRIMASK, ip
2000021e:	4640      	mov	r0, r8
20000220:	0039      	movs	r1, r7
20000222:	f000 feed 	bl	20001000 <__best_effort_wfe_or_timeout_veneer>
20000226:	2800      	cmp	r0, #0
20000228:	d11a      	bne.n	20000260 <sem_acquire_block_until+0x64>
2000022a:	6826      	ldr	r6, [r4, #0]
2000022c:	f3ef 8c10 	mrs	ip, PRIMASK
20000230:	b672      	cpsid	i
20000232:	6835      	ldr	r5, [r6, #0]
20000234:	2d00      	cmp	r5, #0
20000236:	d0fc      	beq.n	20000232 <sem_acquire_block_until+0x36>
20000238:	f3bf 8f5f 	dmb	sy
2000023c:	2304      	movs	r3, #4
2000023e:	5ee5      	ldrsh	r5, [r4, r3]
20000240:	2d00      	cmp	r5, #0
20000242:	dde5      	ble.n	20000210 <sem_acquire_block_until+0x14>
20000244:	3d01      	subs	r5, #1
20000246:	80a5      	strh	r5, [r4, #4]
20000248:	6823      	ldr	r3, [r4, #0]
2000024a:	f3bf 8f5f 	dmb	sy
2000024e:	2200      	movs	r2, #0
20000250:	601a      	str	r2, [r3, #0]
20000252:	f38c 8810 	msr	PRIMASK, ip
20000256:	2001      	movs	r0, #1
20000258:	bcc0      	pop	{r6, r7}
2000025a:	46b9      	mov	r9, r7
2000025c:	46b0      	mov	r8, r6
2000025e:	bdf8      	pop	{r3, r4, r5, r6, r7, pc}
20000260:	2000      	movs	r0, #0
20000262:	e7f9      	b.n	20000258 <sem_acquire_block_until+0x5c>

20000264 <sem_release>:
20000264:	b510      	push	{r4, lr}
20000266:	6802      	ldr	r2, [r0, #0]
20000268:	f3ef 8110 	mrs	r1, PRIMASK
2000026c:	b672      	cpsid	i
2000026e:	6813      	ldr	r3, [r2, #0]
20000270:	2b00      	cmp	r3, #0
20000272:	d0fc      	beq.n	2000026e <sem_release+0xa>
20000274:	f3bf 8f5f 	dmb	sy
20000278:	2204      	movs	r2, #4
2000027a:	5e83      	ldrsh	r3, [r0, r2]
2000027c:	2406      	movs	r4, #6
2000027e:	5f02      	ldrsh	r2, [r0, r4]
20000280:	429a      	cmp	r2, r3
20000282:	dd0b      	ble.n	2000029c <sem_release+0x38>
20000284:	3301      	adds	r3, #1
20000286:	8083      	strh	r3, [r0, #4]
20000288:	6803      	ldr	r3, [r0, #0]
2000028a:	f3bf 8f5f 	dmb	sy
2000028e:	2200      	movs	r2, #0
20000290:	601a      	str	r2, [r3, #0]
20000292:	f381 8810 	msr	PRIMASK, r1
20000296:	bf40      	sev
20000298:	2001      	movs	r0, #1
2000029a:	bd10      	pop	{r4, pc}
2000029c:	6803      	ldr	r3, [r0, #0]
2000029e:	f3bf 8f5f 	dmb	sy
200002a2:	2200      	movs	r2, #0
200002a4:	601a      	str	r2, [r3, #0]
200002a6:	f381 8810 	msr	PRIMASK, r1
200002aa:	2000      	movs	r0, #0
200002ac:	e7f5      	b.n	2000029a <sem_release+0x36>
200002ae:	46c0      	nop			; (mov r8, r8)

200002b0 <recursive_mutex_enter_blocking>:
200002b0:	23d0      	movs	r3, #208	; 0xd0
200002b2:	b530      	push	{r4, r5, lr}
200002b4:	2400      	movs	r4, #0
200002b6:	061b      	lsls	r3, r3, #24
200002b8:	2500      	movs	r5, #0
200002ba:	571c      	ldrsb	r4, [r3, r4]
200002bc:	e008      	b.n	200002d0 <recursive_mutex_enter_blocking+0x20>
200002be:	2b00      	cmp	r3, #0
200002c0:	db13      	blt.n	200002ea <recursive_mutex_enter_blocking+0x3a>
200002c2:	6803      	ldr	r3, [r0, #0]
200002c4:	f3bf 8f5f 	dmb	sy
200002c8:	601d      	str	r5, [r3, #0]
200002ca:	f381 8810 	msr	PRIMASK, r1
200002ce:	bf20      	wfe
200002d0:	6802      	ldr	r2, [r0, #0]
200002d2:	f3ef 8110 	mrs	r1, PRIMASK
200002d6:	b672      	cpsid	i
200002d8:	6813      	ldr	r3, [r2, #0]
200002da:	2b00      	cmp	r3, #0
200002dc:	d0fc      	beq.n	200002d8 <recursive_mutex_enter_blocking+0x28>
200002de:	f3bf 8f5f 	dmb	sy
200002e2:	2304      	movs	r3, #4
200002e4:	56c3      	ldrsb	r3, [r0, r3]
200002e6:	42a3      	cmp	r3, r4
200002e8:	d1e9      	bne.n	200002be <recursive_mutex_enter_blocking+0xe>
200002ea:	7943      	ldrb	r3, [r0, #5]
200002ec:	7104      	strb	r4, [r0, #4]
200002ee:	3301      	adds	r3, #1
200002f0:	7143      	strb	r3, [r0, #5]
200002f2:	6803      	ldr	r3, [r0, #0]
200002f4:	f3bf 8f5f 	dmb	sy
200002f8:	2200      	movs	r2, #0
200002fa:	601a      	str	r2, [r3, #0]
200002fc:	f381 8810 	msr	PRIMASK, r1
20000300:	bd30      	pop	{r4, r5, pc}
20000302:	46c0      	nop			; (mov r8, r8)

20000304 <mutex_try_enter>:
20000304:	0003      	movs	r3, r0
20000306:	6800      	ldr	r0, [r0, #0]
20000308:	f3ef 8c10 	mrs	ip, PRIMASK
2000030c:	b672      	cpsid	i
2000030e:	6802      	ldr	r2, [r0, #0]
20000310:	2a00      	cmp	r2, #0
20000312:	d0fc      	beq.n	2000030e <mutex_try_enter+0xa>
20000314:	f3bf 8f5f 	dmb	sy
20000318:	2204      	movs	r2, #4
2000031a:	569a      	ldrsb	r2, [r3, r2]
2000031c:	2a00      	cmp	r2, #0
2000031e:	db0b      	blt.n	20000338 <mutex_try_enter+0x34>
20000320:	2900      	cmp	r1, #0
20000322:	d00f      	beq.n	20000344 <mutex_try_enter+0x40>
20000324:	2000      	movs	r0, #0
20000326:	600a      	str	r2, [r1, #0]
20000328:	681b      	ldr	r3, [r3, #0]
2000032a:	f3bf 8f5f 	dmb	sy
2000032e:	2200      	movs	r2, #0
20000330:	601a      	str	r2, [r3, #0]
20000332:	f38c 8810 	msr	PRIMASK, ip
20000336:	4770      	bx	lr
20000338:	22d0      	movs	r2, #208	; 0xd0
2000033a:	0612      	lsls	r2, r2, #24
2000033c:	6812      	ldr	r2, [r2, #0]
2000033e:	2001      	movs	r0, #1
20000340:	711a      	strb	r2, [r3, #4]
20000342:	e7f1      	b.n	20000328 <mutex_try_enter+0x24>
20000344:	2000      	movs	r0, #0
20000346:	e7ef      	b.n	20000328 <mutex_try_enter+0x24>

20000348 <mutex_try_enter_block_until>:
20000348:	b5f0      	push	{r4, r5, r6, r7, lr}
2000034a:	46c6      	mov	lr, r8
2000034c:	0015      	movs	r5, r2
2000034e:	b500      	push	{lr}
20000350:	0004      	movs	r4, r0
20000352:	001e      	movs	r6, r3
20000354:	6802      	ldr	r2, [r0, #0]
20000356:	f3ef 8110 	mrs	r1, PRIMASK
2000035a:	b672      	cpsid	i
2000035c:	6813      	ldr	r3, [r2, #0]
2000035e:	2b00      	cmp	r3, #0
20000360:	d0fc      	beq.n	2000035c <mutex_try_enter_block_until+0x14>
20000362:	f3bf 8f5f 	dmb	sy
20000366:	2304      	movs	r3, #4
20000368:	56e3      	ldrsb	r3, [r4, r3]
2000036a:	2b00      	cmp	r3, #0
2000036c:	db2d      	blt.n	200003ca <mutex_try_enter_block_until+0x82>
2000036e:	6822      	ldr	r2, [r4, #0]
20000370:	f3bf 8f5f 	dmb	sy
20000374:	2000      	movs	r0, #0
20000376:	6010      	str	r0, [r2, #0]
20000378:	f381 8810 	msr	PRIMASK, r1
2000037c:	22d0      	movs	r2, #208	; 0xd0
2000037e:	0612      	lsls	r2, r2, #24
20000380:	7812      	ldrb	r2, [r2, #0]
20000382:	b252      	sxtb	r2, r2
20000384:	4690      	mov	r8, r2
20000386:	429a      	cmp	r2, r3
20000388:	d103      	bne.n	20000392 <mutex_try_enter_block_until+0x4a>
2000038a:	2000      	movs	r0, #0
2000038c:	bc80      	pop	{r7}
2000038e:	46b8      	mov	r8, r7
20000390:	bdf0      	pop	{r4, r5, r6, r7, pc}
20000392:	2700      	movs	r7, #0
20000394:	e00b      	b.n	200003ae <mutex_try_enter_block_until+0x66>
20000396:	6823      	ldr	r3, [r4, #0]
20000398:	f3bf 8f5f 	dmb	sy
2000039c:	601f      	str	r7, [r3, #0]
2000039e:	f381 8810 	msr	PRIMASK, r1
200003a2:	0028      	movs	r0, r5
200003a4:	0031      	movs	r1, r6
200003a6:	f000 fe2b 	bl	20001000 <__best_effort_wfe_or_timeout_veneer>
200003aa:	2800      	cmp	r0, #0
200003ac:	d1ed      	bne.n	2000038a <mutex_try_enter_block_until+0x42>
200003ae:	6822      	ldr	r2, [r4, #0]
200003b0:	f3ef 8110 	mrs	r1, PRIMASK
200003b4:	b672      	cpsid	i
200003b6:	6813      	ldr	r3, [r2, #0]
200003b8:	2b00      	cmp	r3, #0
200003ba:	d0fc      	beq.n	200003b6 <mutex_try_enter_block_until+0x6e>
200003bc:	f3bf 8f5f 	dmb	sy
200003c0:	7923      	ldrb	r3, [r4, #4]
200003c2:	2b7f      	cmp	r3, #127	; 0x7f
200003c4:	d9e7      	bls.n	20000396 <mutex_try_enter_block_until+0x4e>
200003c6:	4643      	mov	r3, r8
200003c8:	e002      	b.n	200003d0 <mutex_try_enter_block_until+0x88>
200003ca:	23d0      	movs	r3, #208	; 0xd0
200003cc:	061b      	lsls	r3, r3, #24
200003ce:	681b      	ldr	r3, [r3, #0]
200003d0:	7123      	strb	r3, [r4, #4]
200003d2:	6823      	ldr	r3, [r4, #0]
200003d4:	f3bf 8f5f 	dmb	sy
200003d8:	2200      	movs	r2, #0
200003da:	601a      	str	r2, [r3, #0]
200003dc:	f381 8810 	msr	PRIMASK, r1
200003e0:	2001      	movs	r0, #1
200003e2:	e7d3      	b.n	2000038c <mutex_try_enter_block_until+0x44>

200003e4 <recursive_mutex_try_enter>:
200003e4:	22d0      	movs	r2, #208	; 0xd0
200003e6:	0003      	movs	r3, r0
200003e8:	2000      	movs	r0, #0
200003ea:	0612      	lsls	r2, r2, #24
200003ec:	b510      	push	{r4, lr}
200003ee:	5610      	ldrsb	r0, [r2, r0]
200003f0:	681c      	ldr	r4, [r3, #0]
200003f2:	f3ef 8c10 	mrs	ip, PRIMASK
200003f6:	b672      	cpsid	i
200003f8:	6822      	ldr	r2, [r4, #0]
200003fa:	2a00      	cmp	r2, #0
200003fc:	d0fc      	beq.n	200003f8 <recursive_mutex_try_enter+0x14>
200003fe:	f3bf 8f5f 	dmb	sy
20000402:	2204      	movs	r2, #4
20000404:	569a      	ldrsb	r2, [r3, r2]
20000406:	2a00      	cmp	r2, #0
20000408:	db06      	blt.n	20000418 <recursive_mutex_try_enter+0x34>
2000040a:	4282      	cmp	r2, r0
2000040c:	d004      	beq.n	20000418 <recursive_mutex_try_enter+0x34>
2000040e:	2900      	cmp	r1, #0
20000410:	d00f      	beq.n	20000432 <recursive_mutex_try_enter+0x4e>
20000412:	2000      	movs	r0, #0
20000414:	600a      	str	r2, [r1, #0]
20000416:	e004      	b.n	20000422 <recursive_mutex_try_enter+0x3e>
20000418:	7118      	strb	r0, [r3, #4]
2000041a:	2001      	movs	r0, #1
2000041c:	795a      	ldrb	r2, [r3, #5]
2000041e:	3201      	adds	r2, #1
20000420:	715a      	strb	r2, [r3, #5]
20000422:	681b      	ldr	r3, [r3, #0]
20000424:	f3bf 8f5f 	dmb	sy
20000428:	2200      	movs	r2, #0
2000042a:	601a      	str	r2, [r3, #0]
2000042c:	f38c 8810 	msr	PRIMASK, ip
20000430:	bd10      	pop	{r4, pc}
20000432:	2000      	movs	r0, #0
20000434:	e7f5      	b.n	20000422 <recursive_mutex_try_enter+0x3e>
20000436:	46c0      	nop			; (mov r8, r8)

20000438 <mutex_enter_timeout_ms>:
20000438:	b5f0      	push	{r4, r5, r6, r7, lr}
2000043a:	46c6      	mov	lr, r8
2000043c:	b500      	push	{lr}
2000043e:	000d      	movs	r5, r1
20000440:	0004      	movs	r4, r0
20000442:	f000 fded 	bl	20001020 <__time_us_64_veneer>
20000446:	22fa      	movs	r2, #250	; 0xfa
20000448:	0006      	movs	r6, r0
2000044a:	000f      	movs	r7, r1
2000044c:	2300      	movs	r3, #0
2000044e:	0028      	movs	r0, r5
20000450:	2100      	movs	r1, #0
20000452:	0092      	lsls	r2, r2, #2
20000454:	f000 fdf4 	bl	20001040 <____wrap___aeabi_lmul_veneer>
20000458:	1836      	adds	r6, r6, r0
2000045a:	414f      	adcs	r7, r1
2000045c:	2f00      	cmp	r7, #0
2000045e:	db2c      	blt.n	200004ba <mutex_enter_timeout_ms+0x82>
20000460:	23d0      	movs	r3, #208	; 0xd0
20000462:	061b      	lsls	r3, r3, #24
20000464:	681b      	ldr	r3, [r3, #0]
20000466:	2500      	movs	r5, #0
20000468:	4698      	mov	r8, r3
2000046a:	e00b      	b.n	20000484 <mutex_enter_timeout_ms+0x4c>
2000046c:	6823      	ldr	r3, [r4, #0]
2000046e:	f3bf 8f5f 	dmb	sy
20000472:	601d      	str	r5, [r3, #0]
20000474:	f381 8810 	msr	PRIMASK, r1
20000478:	0030      	movs	r0, r6
2000047a:	0039      	movs	r1, r7
2000047c:	f000 fdc0 	bl	20001000 <__best_effort_wfe_or_timeout_veneer>
20000480:	2800      	cmp	r0, #0
20000482:	d118      	bne.n	200004b6 <mutex_enter_timeout_ms+0x7e>
20000484:	6822      	ldr	r2, [r4, #0]
20000486:	f3ef 8110 	mrs	r1, PRIMASK
2000048a:	b672      	cpsid	i
2000048c:	6813      	ldr	r3, [r2, #0]
2000048e:	2b00      	cmp	r3, #0
20000490:	d0fc      	beq.n	2000048c <mutex_enter_timeout_ms+0x54>
20000492:	f3bf 8f5f 	dmb	sy
20000496:	7923      	ldrb	r3, [r4, #4]
20000498:	2b7f      	cmp	r3, #127	; 0x7f
2000049a:	d9e7      	bls.n	2000046c <mutex_enter_timeout_ms+0x34>
2000049c:	4643      	mov	r3, r8
2000049e:	7123      	strb	r3, [r4, #4]
200004a0:	6823      	ldr	r3, [r4, #0]
200004a2:	f3bf 8f5f 	dmb	sy
200004a6:	2200      	movs	r2, #0
200004a8:	601a      	str	r2, [r3, #0]
200004aa:	f381 8810 	msr	PRIMASK, r1
200004ae:	2001      	movs	r0, #1
200004b0:	bc80      	pop	{r7}
200004b2:	46b8      	mov	r8, r7
200004b4:	bdf0      	pop	{r4, r5, r6, r7, pc}
200004b6:	2000      	movs	r0, #0
200004b8:	e7fa      	b.n	200004b0 <mutex_enter_timeout_ms+0x78>
200004ba:	2601      	movs	r6, #1
200004bc:	4f01      	ldr	r7, [pc, #4]	; (200004c4 <mutex_enter_timeout_ms+0x8c>)
200004be:	4276      	negs	r6, r6
200004c0:	e7ce      	b.n	20000460 <mutex_enter_timeout_ms+0x28>
200004c2:	46c0      	nop			; (mov r8, r8)
200004c4:	7fffffff 	.word	0x7fffffff

200004c8 <mutex_exit>:
200004c8:	6802      	ldr	r2, [r0, #0]
200004ca:	f3ef 8110 	mrs	r1, PRIMASK
200004ce:	b672      	cpsid	i
200004d0:	6813      	ldr	r3, [r2, #0]
200004d2:	2b00      	cmp	r3, #0
200004d4:	d0fc      	beq.n	200004d0 <mutex_exit+0x8>
200004d6:	f3bf 8f5f 	dmb	sy
200004da:	23ff      	movs	r3, #255	; 0xff
200004dc:	7103      	strb	r3, [r0, #4]
200004de:	6803      	ldr	r3, [r0, #0]
200004e0:	f3bf 8f5f 	dmb	sy
200004e4:	2200      	movs	r2, #0
200004e6:	601a      	str	r2, [r3, #0]
200004e8:	f381 8810 	msr	PRIMASK, r1
200004ec:	bf40      	sev
200004ee:	4770      	bx	lr

200004f0 <recursive_mutex_exit>:
200004f0:	6802      	ldr	r2, [r0, #0]
200004f2:	f3ef 8110 	mrs	r1, PRIMASK
200004f6:	b672      	cpsid	i
200004f8:	6813      	ldr	r3, [r2, #0]
200004fa:	2b00      	cmp	r3, #0
200004fc:	d0fc      	beq.n	200004f8 <recursive_mutex_exit+0x8>
200004fe:	f3bf 8f5f 	dmb	sy
20000502:	7943      	ldrb	r3, [r0, #5]
20000504:	3b01      	subs	r3, #1
20000506:	b2db      	uxtb	r3, r3
20000508:	7143      	strb	r3, [r0, #5]
2000050a:	2b00      	cmp	r3, #0
2000050c:	d109      	bne.n	20000522 <recursive_mutex_exit+0x32>
2000050e:	22ff      	movs	r2, #255	; 0xff
20000510:	7102      	strb	r2, [r0, #4]
20000512:	6802      	ldr	r2, [r0, #0]
20000514:	f3bf 8f5f 	dmb	sy
20000518:	6013      	str	r3, [r2, #0]
2000051a:	f381 8810 	msr	PRIMASK, r1
2000051e:	bf40      	sev
20000520:	4770      	bx	lr
20000522:	6803      	ldr	r3, [r0, #0]
20000524:	f3bf 8f5f 	dmb	sy
20000528:	2200      	movs	r2, #0
2000052a:	601a      	str	r2, [r3, #0]
2000052c:	f381 8810 	msr	PRIMASK, r1
20000530:	e7f6      	b.n	20000520 <recursive_mutex_exit+0x30>
20000532:	46c0      	nop			; (mov r8, r8)

20000534 <reset_non_control_endpoints>:
20000534:	2300      	movs	r3, #0
20000536:	4a1c      	ldr	r2, [pc, #112]	; (200005a8 <reset_non_control_endpoints+0x74>)
20000538:	b510      	push	{r4, lr}
2000053a:	6093      	str	r3, [r2, #8]
2000053c:	60d3      	str	r3, [r2, #12]
2000053e:	4a1b      	ldr	r2, [pc, #108]	; (200005ac <reset_non_control_endpoints+0x78>)
20000540:	2100      	movs	r1, #0
20000542:	6093      	str	r3, [r2, #8]
20000544:	60d3      	str	r3, [r2, #12]
20000546:	4a1a      	ldr	r2, [pc, #104]	; (200005b0 <reset_non_control_endpoints+0x7c>)
20000548:	481a      	ldr	r0, [pc, #104]	; (200005b4 <reset_non_control_endpoints+0x80>)
2000054a:	6093      	str	r3, [r2, #8]
2000054c:	60d3      	str	r3, [r2, #12]
2000054e:	4a1a      	ldr	r2, [pc, #104]	; (200005b8 <reset_non_control_endpoints+0x84>)
20000550:	6093      	str	r3, [r2, #8]
20000552:	60d3      	str	r3, [r2, #12]
20000554:	4a19      	ldr	r2, [pc, #100]	; (200005bc <reset_non_control_endpoints+0x88>)
20000556:	6093      	str	r3, [r2, #8]
20000558:	60d3      	str	r3, [r2, #12]
2000055a:	4a19      	ldr	r2, [pc, #100]	; (200005c0 <reset_non_control_endpoints+0x8c>)
2000055c:	6093      	str	r3, [r2, #8]
2000055e:	60d3      	str	r3, [r2, #12]
20000560:	4a18      	ldr	r2, [pc, #96]	; (200005c4 <reset_non_control_endpoints+0x90>)
20000562:	6093      	str	r3, [r2, #8]
20000564:	60d3      	str	r3, [r2, #12]
20000566:	4a18      	ldr	r2, [pc, #96]	; (200005c8 <reset_non_control_endpoints+0x94>)
20000568:	6093      	str	r3, [r2, #8]
2000056a:	60d3      	str	r3, [r2, #12]
2000056c:	4a17      	ldr	r2, [pc, #92]	; (200005cc <reset_non_control_endpoints+0x98>)
2000056e:	6093      	str	r3, [r2, #8]
20000570:	60d3      	str	r3, [r2, #12]
20000572:	4a17      	ldr	r2, [pc, #92]	; (200005d0 <reset_non_control_endpoints+0x9c>)
20000574:	6093      	str	r3, [r2, #8]
20000576:	60d3      	str	r3, [r2, #12]
20000578:	4a16      	ldr	r2, [pc, #88]	; (200005d4 <reset_non_control_endpoints+0xa0>)
2000057a:	6093      	str	r3, [r2, #8]
2000057c:	60d3      	str	r3, [r2, #12]
2000057e:	4a16      	ldr	r2, [pc, #88]	; (200005d8 <reset_non_control_endpoints+0xa4>)
20000580:	6093      	str	r3, [r2, #8]
20000582:	60d3      	str	r3, [r2, #12]
20000584:	4a15      	ldr	r2, [pc, #84]	; (200005dc <reset_non_control_endpoints+0xa8>)
20000586:	6093      	str	r3, [r2, #8]
20000588:	60d3      	str	r3, [r2, #12]
2000058a:	4a15      	ldr	r2, [pc, #84]	; (200005e0 <reset_non_control_endpoints+0xac>)
2000058c:	6093      	str	r3, [r2, #8]
2000058e:	60d3      	str	r3, [r2, #12]
20000590:	4a14      	ldr	r2, [pc, #80]	; (200005e4 <reset_non_control_endpoints+0xb0>)
20000592:	6093      	str	r3, [r2, #8]
20000594:	60d3      	str	r3, [r2, #12]
20000596:	22f0      	movs	r2, #240	; 0xf0
20000598:	0092      	lsls	r2, r2, #2
2000059a:	f000 fd29 	bl	20000ff0 <____wrap_memset_veneer>
2000059e:	4b12      	ldr	r3, [pc, #72]	; (200005e8 <reset_non_control_endpoints+0xb4>)
200005a0:	4a12      	ldr	r2, [pc, #72]	; (200005ec <reset_non_control_endpoints+0xb8>)
200005a2:	601a      	str	r2, [r3, #0]
200005a4:	bd10      	pop	{r4, pc}
200005a6:	46c0      	nop			; (mov r8, r8)
200005a8:	50100000 	.word	0x50100000
200005ac:	50100008 	.word	0x50100008
200005b0:	50100010 	.word	0x50100010
200005b4:	2000274c 	.word	0x2000274c
200005b8:	50100018 	.word	0x50100018
200005bc:	50100020 	.word	0x50100020
200005c0:	50100028 	.word	0x50100028
200005c4:	50100030 	.word	0x50100030
200005c8:	50100038 	.word	0x50100038
200005cc:	50100040 	.word	0x50100040
200005d0:	50100048 	.word	0x50100048
200005d4:	50100050 	.word	0x50100050
200005d8:	50100058 	.word	0x50100058
200005dc:	50100060 	.word	0x50100060
200005e0:	50100068 	.word	0x50100068
200005e4:	50100070 	.word	0x50100070
200005e8:	20002b14 	.word	0x20002b14
200005ec:	50100180 	.word	0x50100180

200005f0 <hw_handle_buff_status>:
200005f0:	b5f0      	push	{r4, r5, r6, r7, lr}
200005f2:	4657      	mov	r7, sl
200005f4:	46de      	mov	lr, fp
200005f6:	464e      	mov	r6, r9
200005f8:	4645      	mov	r5, r8
200005fa:	b5e0      	push	{r5, r6, r7, lr}
200005fc:	4b23      	ldr	r3, [pc, #140]	; (2000068c <hw_handle_buff_status+0x9c>)
200005fe:	b087      	sub	sp, #28
20000600:	6d9f      	ldr	r7, [r3, #88]	; 0x58
20000602:	2f00      	cmp	r7, #0
20000604:	d023      	beq.n	2000064e <hw_handle_buff_status+0x5e>
20000606:	4b22      	ldr	r3, [pc, #136]	; (20000690 <hw_handle_buff_status+0xa0>)
20000608:	2400      	movs	r4, #0
2000060a:	4699      	mov	r9, r3
2000060c:	2301      	movs	r3, #1
2000060e:	4698      	mov	r8, r3
20000610:	4b20      	ldr	r3, [pc, #128]	; (20000694 <hw_handle_buff_status+0xa4>)
20000612:	2601      	movs	r6, #1
20000614:	469a      	mov	sl, r3
20000616:	e004      	b.n	20000622 <hw_handle_buff_status+0x32>
20000618:	3401      	adds	r4, #1
2000061a:	0076      	lsls	r6, r6, #1
2000061c:	b2e4      	uxtb	r4, r4
2000061e:	2c20      	cmp	r4, #32
20000620:	d015      	beq.n	2000064e <hw_handle_buff_status+0x5e>
20000622:	423e      	tst	r6, r7
20000624:	d0f8      	beq.n	20000618 <hw_handle_buff_status+0x28>
20000626:	464b      	mov	r3, r9
20000628:	659e      	str	r6, [r3, #88]	; 0x58
2000062a:	4643      	mov	r3, r8
2000062c:	0865      	lsrs	r5, r4, #1
2000062e:	006d      	lsls	r5, r5, #1
20000630:	43a3      	bics	r3, r4
20000632:	18ed      	adds	r5, r5, r3
20000634:	016d      	lsls	r5, r5, #5
20000636:	4455      	add	r5, sl
20000638:	0028      	movs	r0, r5
2000063a:	f000 fba1 	bl	20000d80 <hw_endpoint_xfer_continue>
2000063e:	2800      	cmp	r0, #0
20000640:	d10c      	bne.n	2000065c <hw_handle_buff_status+0x6c>
20000642:	3401      	adds	r4, #1
20000644:	43b7      	bics	r7, r6
20000646:	b2e4      	uxtb	r4, r4
20000648:	0076      	lsls	r6, r6, #1
2000064a:	2f00      	cmp	r7, #0
2000064c:	d1e7      	bne.n	2000061e <hw_handle_buff_status+0x2e>
2000064e:	b007      	add	sp, #28
20000650:	bcf0      	pop	{r4, r5, r6, r7}
20000652:	46bb      	mov	fp, r7
20000654:	46b2      	mov	sl, r6
20000656:	46a9      	mov	r9, r5
20000658:	46a0      	mov	r8, r4
2000065a:	bdf0      	pop	{r4, r5, r6, r7, pc}
2000065c:	78ab      	ldrb	r3, [r5, #2]
2000065e:	2208      	movs	r2, #8
20000660:	469b      	mov	fp, r3
20000662:	8aeb      	ldrh	r3, [r5, #22]
20000664:	2100      	movs	r1, #0
20000666:	a803      	add	r0, sp, #12
20000668:	9301      	str	r3, [sp, #4]
2000066a:	f000 fcc1 	bl	20000ff0 <____wrap_memset_veneer>
2000066e:	2307      	movs	r3, #7
20000670:	4659      	mov	r1, fp
20000672:	aa02      	add	r2, sp, #8
20000674:	7153      	strb	r3, [r2, #5]
20000676:	9b01      	ldr	r3, [sp, #4]
20000678:	7211      	strb	r1, [r2, #8]
2000067a:	a803      	add	r0, sp, #12
2000067c:	2101      	movs	r1, #1
2000067e:	9305      	str	r3, [sp, #20]
20000680:	f000 fba6 	bl	20000dd0 <dcd_event_handler>
20000684:	0028      	movs	r0, r5
20000686:	f000 fb13 	bl	20000cb0 <hw_endpoint_reset_transfer>
2000068a:	e7da      	b.n	20000642 <hw_handle_buff_status+0x52>
2000068c:	50110000 	.word	0x50110000
20000690:	50113000 	.word	0x50113000
20000694:	2000270c 	.word	0x2000270c

20000698 <dcd_rp2040_irq>:
20000698:	2398      	movs	r3, #152	; 0x98
2000069a:	4ad1      	ldr	r2, [pc, #836]	; (200009e0 <dcd_rp2040_irq+0x348>)
2000069c:	b570      	push	{r4, r5, r6, lr}
2000069e:	58d5      	ldr	r5, [r2, r3]
200006a0:	2380      	movs	r3, #128	; 0x80
200006a2:	002c      	movs	r4, r5
200006a4:	029b      	lsls	r3, r3, #10
200006a6:	2610      	movs	r6, #16
200006a8:	b084      	sub	sp, #16
200006aa:	401c      	ands	r4, r3
200006ac:	421d      	tst	r5, r3
200006ae:	d078      	beq.n	200007a2 <dcd_rp2040_irq+0x10a>
200006b0:	4bcc      	ldr	r3, [pc, #816]	; (200009e4 <dcd_rp2040_irq+0x34c>)
200006b2:	4ccd      	ldr	r4, [pc, #820]	; (200009e8 <dcd_rp2040_irq+0x350>)
200006b4:	6a9a      	ldr	r2, [r3, #40]	; 0x28
200006b6:	4bcd      	ldr	r3, [pc, #820]	; (200009ec <dcd_rp2040_irq+0x354>)
200006b8:	2600      	movs	r6, #0
200006ba:	601a      	str	r2, [r3, #0]
200006bc:	233b      	movs	r3, #59	; 0x3b
200006be:	5ce3      	ldrb	r3, [r4, r3]
200006c0:	2b02      	cmp	r3, #2
200006c2:	d100      	bne.n	200006c6 <dcd_rp2040_irq+0x2e>
200006c4:	e0d7      	b.n	20000876 <dcd_rp2040_irq+0x1de>
200006c6:	237b      	movs	r3, #123	; 0x7b
200006c8:	5ce3      	ldrb	r3, [r4, r3]
200006ca:	2b02      	cmp	r3, #2
200006cc:	d100      	bne.n	200006d0 <dcd_rp2040_irq+0x38>
200006ce:	e21a      	b.n	20000b06 <dcd_rp2040_irq+0x46e>
200006d0:	23bb      	movs	r3, #187	; 0xbb
200006d2:	5ce3      	ldrb	r3, [r4, r3]
200006d4:	2b02      	cmp	r3, #2
200006d6:	d100      	bne.n	200006da <dcd_rp2040_irq+0x42>
200006d8:	e203      	b.n	20000ae2 <dcd_rp2040_irq+0x44a>
200006da:	23fb      	movs	r3, #251	; 0xfb
200006dc:	5ce3      	ldrb	r3, [r4, r3]
200006de:	2b02      	cmp	r3, #2
200006e0:	d100      	bne.n	200006e4 <dcd_rp2040_irq+0x4c>
200006e2:	e1ec      	b.n	20000abe <dcd_rp2040_irq+0x426>
200006e4:	233c      	movs	r3, #60	; 0x3c
200006e6:	33ff      	adds	r3, #255	; 0xff
200006e8:	5ce3      	ldrb	r3, [r4, r3]
200006ea:	2b02      	cmp	r3, #2
200006ec:	d100      	bne.n	200006f0 <dcd_rp2040_irq+0x58>
200006ee:	e1d1      	b.n	20000a94 <dcd_rp2040_irq+0x3fc>
200006f0:	237c      	movs	r3, #124	; 0x7c
200006f2:	33ff      	adds	r3, #255	; 0xff
200006f4:	5ce3      	ldrb	r3, [r4, r3]
200006f6:	2b02      	cmp	r3, #2
200006f8:	d100      	bne.n	200006fc <dcd_rp2040_irq+0x64>
200006fa:	e1b6      	b.n	20000a6a <dcd_rp2040_irq+0x3d2>
200006fc:	23bc      	movs	r3, #188	; 0xbc
200006fe:	33ff      	adds	r3, #255	; 0xff
20000700:	5ce3      	ldrb	r3, [r4, r3]
20000702:	2b02      	cmp	r3, #2
20000704:	d100      	bne.n	20000708 <dcd_rp2040_irq+0x70>
20000706:	e19b      	b.n	20000a40 <dcd_rp2040_irq+0x3a8>
20000708:	23fc      	movs	r3, #252	; 0xfc
2000070a:	33ff      	adds	r3, #255	; 0xff
2000070c:	5ce3      	ldrb	r3, [r4, r3]
2000070e:	2b02      	cmp	r3, #2
20000710:	d100      	bne.n	20000714 <dcd_rp2040_irq+0x7c>
20000712:	e14f      	b.n	200009b4 <dcd_rp2040_irq+0x31c>
20000714:	4bb6      	ldr	r3, [pc, #728]	; (200009f0 <dcd_rp2040_irq+0x358>)
20000716:	5ce3      	ldrb	r3, [r4, r3]
20000718:	2b02      	cmp	r3, #2
2000071a:	d100      	bne.n	2000071e <dcd_rp2040_irq+0x86>
2000071c:	e136      	b.n	2000098c <dcd_rp2040_irq+0x2f4>
2000071e:	4bb5      	ldr	r3, [pc, #724]	; (200009f4 <dcd_rp2040_irq+0x35c>)
20000720:	5ce3      	ldrb	r3, [r4, r3]
20000722:	2b02      	cmp	r3, #2
20000724:	d100      	bne.n	20000728 <dcd_rp2040_irq+0x90>
20000726:	e11d      	b.n	20000964 <dcd_rp2040_irq+0x2cc>
20000728:	4bb3      	ldr	r3, [pc, #716]	; (200009f8 <dcd_rp2040_irq+0x360>)
2000072a:	5ce3      	ldrb	r3, [r4, r3]
2000072c:	2b02      	cmp	r3, #2
2000072e:	d100      	bne.n	20000732 <dcd_rp2040_irq+0x9a>
20000730:	e104      	b.n	2000093c <dcd_rp2040_irq+0x2a4>
20000732:	4bb2      	ldr	r3, [pc, #712]	; (200009fc <dcd_rp2040_irq+0x364>)
20000734:	5ce3      	ldrb	r3, [r4, r3]
20000736:	2b02      	cmp	r3, #2
20000738:	d100      	bne.n	2000073c <dcd_rp2040_irq+0xa4>
2000073a:	e0eb      	b.n	20000914 <dcd_rp2040_irq+0x27c>
2000073c:	4bb0      	ldr	r3, [pc, #704]	; (20000a00 <dcd_rp2040_irq+0x368>)
2000073e:	5ce3      	ldrb	r3, [r4, r3]
20000740:	2b02      	cmp	r3, #2
20000742:	d100      	bne.n	20000746 <dcd_rp2040_irq+0xae>
20000744:	e0d2      	b.n	200008ec <dcd_rp2040_irq+0x254>
20000746:	4baf      	ldr	r3, [pc, #700]	; (20000a04 <dcd_rp2040_irq+0x36c>)
20000748:	5ce3      	ldrb	r3, [r4, r3]
2000074a:	2b02      	cmp	r3, #2
2000074c:	d100      	bne.n	20000750 <dcd_rp2040_irq+0xb8>
2000074e:	e0b9      	b.n	200008c4 <dcd_rp2040_irq+0x22c>
20000750:	4bad      	ldr	r3, [pc, #692]	; (20000a08 <dcd_rp2040_irq+0x370>)
20000752:	5ce3      	ldrb	r3, [r4, r3]
20000754:	2b02      	cmp	r3, #2
20000756:	d100      	bne.n	2000075a <dcd_rp2040_irq+0xc2>
20000758:	e09e      	b.n	20000898 <dcd_rp2040_irq+0x200>
2000075a:	4bac      	ldr	r3, [pc, #688]	; (20000a0c <dcd_rp2040_irq+0x374>)
2000075c:	5ce3      	ldrb	r3, [r4, r3]
2000075e:	2b02      	cmp	r3, #2
20000760:	d100      	bne.n	20000764 <dcd_rp2040_irq+0xcc>
20000762:	e1e2      	b.n	20000b2a <dcd_rp2040_irq+0x492>
20000764:	2e00      	cmp	r6, #0
20000766:	d108      	bne.n	2000077a <dcd_rp2040_irq+0xe2>
20000768:	4ba9      	ldr	r3, [pc, #676]	; (20000a10 <dcd_rp2040_irq+0x378>)
2000076a:	781b      	ldrb	r3, [r3, #0]
2000076c:	2b00      	cmp	r3, #0
2000076e:	d104      	bne.n	2000077a <dcd_rp2040_irq+0xe2>
20000770:	2180      	movs	r1, #128	; 0x80
20000772:	4aa8      	ldr	r2, [pc, #672]	; (20000a14 <dcd_rp2040_irq+0x37c>)
20000774:	3390      	adds	r3, #144	; 0x90
20000776:	0289      	lsls	r1, r1, #10
20000778:	50d1      	str	r1, [r2, r3]
2000077a:	ae01      	add	r6, sp, #4
2000077c:	4b98      	ldr	r3, [pc, #608]	; (200009e0 <dcd_rp2040_irq+0x348>)
2000077e:	220c      	movs	r2, #12
20000780:	2100      	movs	r1, #0
20000782:	0030      	movs	r0, r6
20000784:	6c9c      	ldr	r4, [r3, #72]	; 0x48
20000786:	f000 fc33 	bl	20000ff0 <____wrap_memset_veneer>
2000078a:	2303      	movs	r3, #3
2000078c:	0564      	lsls	r4, r4, #21
2000078e:	0d64      	lsrs	r4, r4, #21
20000790:	7073      	strb	r3, [r6, #1]
20000792:	0030      	movs	r0, r6
20000794:	9402      	str	r4, [sp, #8]
20000796:	2101      	movs	r1, #1
20000798:	2480      	movs	r4, #128	; 0x80
2000079a:	f000 fb19 	bl	20000dd0 <dcd_event_handler>
2000079e:	4e9e      	ldr	r6, [pc, #632]	; (20000a18 <dcd_rp2040_irq+0x380>)
200007a0:	02a4      	lsls	r4, r4, #10
200007a2:	06eb      	lsls	r3, r5, #27
200007a4:	d463      	bmi.n	2000086e <dcd_rp2040_irq+0x1d6>
200007a6:	2380      	movs	r3, #128	; 0x80
200007a8:	025b      	lsls	r3, r3, #9
200007aa:	421d      	tst	r5, r3
200007ac:	d014      	beq.n	200007d8 <dcd_rp2040_irq+0x140>
200007ae:	2201      	movs	r2, #1
200007b0:	2123      	movs	r1, #35	; 0x23
200007b2:	431c      	orrs	r4, r3
200007b4:	4b8c      	ldr	r3, [pc, #560]	; (200009e8 <dcd_rp2040_irq+0x350>)
200007b6:	545a      	strb	r2, [r3, r1]
200007b8:	70da      	strb	r2, [r3, #3]
200007ba:	23c0      	movs	r3, #192	; 0xc0
200007bc:	4a97      	ldr	r2, [pc, #604]	; (20000a1c <dcd_rp2040_irq+0x384>)
200007be:	00db      	lsls	r3, r3, #3
200007c0:	9301      	str	r3, [sp, #4]
200007c2:	ab02      	add	r3, sp, #8
200007c4:	ca03      	ldmia	r2!, {r0, r1}
200007c6:	c303      	stmia	r3!, {r0, r1}
200007c8:	2101      	movs	r1, #1
200007ca:	a801      	add	r0, sp, #4
200007cc:	f000 fb00 	bl	20000dd0 <dcd_event_handler>
200007d0:	2280      	movs	r2, #128	; 0x80
200007d2:	4b90      	ldr	r3, [pc, #576]	; (20000a14 <dcd_rp2040_irq+0x37c>)
200007d4:	0292      	lsls	r2, r2, #10
200007d6:	651a      	str	r2, [r3, #80]	; 0x50
200007d8:	2380      	movs	r3, #128	; 0x80
200007da:	015b      	lsls	r3, r3, #5
200007dc:	421d      	tst	r5, r3
200007de:	d12f      	bne.n	20000840 <dcd_rp2040_irq+0x1a8>
200007e0:	2380      	movs	r3, #128	; 0x80
200007e2:	01db      	lsls	r3, r3, #7
200007e4:	421d      	tst	r5, r3
200007e6:	d11a      	bne.n	2000081e <dcd_rp2040_irq+0x186>
200007e8:	2380      	movs	r3, #128	; 0x80
200007ea:	021b      	lsls	r3, r3, #8
200007ec:	421d      	tst	r5, r3
200007ee:	d104      	bne.n	200007fa <dcd_rp2040_irq+0x162>
200007f0:	42ac      	cmp	r4, r5
200007f2:	d000      	beq.n	200007f6 <dcd_rp2040_irq+0x15e>
200007f4:	e1b3      	b.n	20000b5e <dcd_rp2040_irq+0x4c6>
200007f6:	b004      	add	sp, #16
200007f8:	bd70      	pop	{r4, r5, r6, pc}
200007fa:	ae01      	add	r6, sp, #4
200007fc:	220c      	movs	r2, #12
200007fe:	2100      	movs	r1, #0
20000800:	0030      	movs	r0, r6
20000802:	431c      	orrs	r4, r3
20000804:	f000 fbf4 	bl	20000ff0 <____wrap_memset_veneer>
20000808:	2305      	movs	r3, #5
2000080a:	2101      	movs	r1, #1
2000080c:	7073      	strb	r3, [r6, #1]
2000080e:	0030      	movs	r0, r6
20000810:	f000 fade 	bl	20000dd0 <dcd_event_handler>
20000814:	2280      	movs	r2, #128	; 0x80
20000816:	4b7f      	ldr	r3, [pc, #508]	; (20000a14 <dcd_rp2040_irq+0x37c>)
20000818:	0112      	lsls	r2, r2, #4
2000081a:	651a      	str	r2, [r3, #80]	; 0x50
2000081c:	e7e8      	b.n	200007f0 <dcd_rp2040_irq+0x158>
2000081e:	ae01      	add	r6, sp, #4
20000820:	220c      	movs	r2, #12
20000822:	2100      	movs	r1, #0
20000824:	0030      	movs	r0, r6
20000826:	431c      	orrs	r4, r3
20000828:	f000 fbe2 	bl	20000ff0 <____wrap_memset_veneer>
2000082c:	2304      	movs	r3, #4
2000082e:	2101      	movs	r1, #1
20000830:	7073      	strb	r3, [r6, #1]
20000832:	0030      	movs	r0, r6
20000834:	f000 facc 	bl	20000dd0 <dcd_event_handler>
20000838:	2210      	movs	r2, #16
2000083a:	4b76      	ldr	r3, [pc, #472]	; (20000a14 <dcd_rp2040_irq+0x37c>)
2000083c:	651a      	str	r2, [r3, #80]	; 0x50
2000083e:	e7d3      	b.n	200007e8 <dcd_rp2040_irq+0x150>
20000840:	2200      	movs	r2, #0
20000842:	431c      	orrs	r4, r3
20000844:	4b66      	ldr	r3, [pc, #408]	; (200009e0 <dcd_rp2040_irq+0x348>)
20000846:	ae01      	add	r6, sp, #4
20000848:	601a      	str	r2, [r3, #0]
2000084a:	f7ff fe73 	bl	20000534 <reset_non_control_endpoints>
2000084e:	220c      	movs	r2, #12
20000850:	2100      	movs	r1, #0
20000852:	0030      	movs	r0, r6
20000854:	f000 fbcc 	bl	20000ff0 <____wrap_memset_veneer>
20000858:	2301      	movs	r3, #1
2000085a:	2101      	movs	r1, #1
2000085c:	7073      	strb	r3, [r6, #1]
2000085e:	0030      	movs	r0, r6
20000860:	f000 fab6 	bl	20000dd0 <dcd_event_handler>
20000864:	2280      	movs	r2, #128	; 0x80
20000866:	4b6b      	ldr	r3, [pc, #428]	; (20000a14 <dcd_rp2040_irq+0x37c>)
20000868:	0312      	lsls	r2, r2, #12
2000086a:	651a      	str	r2, [r3, #80]	; 0x50
2000086c:	e7b8      	b.n	200007e0 <dcd_rp2040_irq+0x148>
2000086e:	f7ff febf 	bl	200005f0 <hw_handle_buff_status>
20000872:	0034      	movs	r4, r6
20000874:	e797      	b.n	200007a6 <dcd_rp2040_irq+0x10e>
20000876:	3338      	adds	r3, #56	; 0x38
20000878:	5ce6      	ldrb	r6, [r4, r3]
2000087a:	2e00      	cmp	r6, #0
2000087c:	d100      	bne.n	20000880 <dcd_rp2040_irq+0x1e8>
2000087e:	e722      	b.n	200006c6 <dcd_rp2040_irq+0x2e>
20000880:	3302      	adds	r3, #2
20000882:	5ce2      	ldrb	r2, [r4, r3]
20000884:	2a00      	cmp	r2, #0
20000886:	d100      	bne.n	2000088a <dcd_rp2040_irq+0x1f2>
20000888:	e71d      	b.n	200006c6 <dcd_rp2040_irq+0x2e>
2000088a:	2200      	movs	r2, #0
2000088c:	0020      	movs	r0, r4
2000088e:	54e2      	strb	r2, [r4, r3]
20000890:	3020      	adds	r0, #32
20000892:	f000 fa3f 	bl	20000d14 <hw_endpoint_start_next_buffer>
20000896:	e716      	b.n	200006c6 <dcd_rp2040_irq+0x2e>
20000898:	4b61      	ldr	r3, [pc, #388]	; (20000a20 <dcd_rp2040_irq+0x388>)
2000089a:	5ce3      	ldrb	r3, [r4, r3]
2000089c:	2b00      	cmp	r3, #0
2000089e:	d100      	bne.n	200008a2 <dcd_rp2040_irq+0x20a>
200008a0:	e75b      	b.n	2000075a <dcd_rp2040_irq+0xc2>
200008a2:	23ef      	movs	r3, #239	; 0xef
200008a4:	009b      	lsls	r3, r3, #2
200008a6:	5ce2      	ldrb	r2, [r4, r3]
200008a8:	2a00      	cmp	r2, #0
200008aa:	d000      	beq.n	200008ae <dcd_rp2040_irq+0x216>
200008ac:	e14f      	b.n	20000b4e <dcd_rp2040_irq+0x4b6>
200008ae:	4b57      	ldr	r3, [pc, #348]	; (20000a0c <dcd_rp2040_irq+0x374>)
200008b0:	5ce3      	ldrb	r3, [r4, r3]
200008b2:	2b02      	cmp	r3, #2
200008b4:	d000      	beq.n	200008b8 <dcd_rp2040_irq+0x220>
200008b6:	e760      	b.n	2000077a <dcd_rp2040_irq+0xe2>
200008b8:	4b5a      	ldr	r3, [pc, #360]	; (20000a24 <dcd_rp2040_irq+0x38c>)
200008ba:	5ce3      	ldrb	r3, [r4, r3]
200008bc:	2b00      	cmp	r3, #0
200008be:	d000      	beq.n	200008c2 <dcd_rp2040_irq+0x22a>
200008c0:	e138      	b.n	20000b34 <dcd_rp2040_irq+0x49c>
200008c2:	e75a      	b.n	2000077a <dcd_rp2040_irq+0xe2>
200008c4:	4b58      	ldr	r3, [pc, #352]	; (20000a28 <dcd_rp2040_irq+0x390>)
200008c6:	5ce3      	ldrb	r3, [r4, r3]
200008c8:	2b00      	cmp	r3, #0
200008ca:	d100      	bne.n	200008ce <dcd_rp2040_irq+0x236>
200008cc:	e740      	b.n	20000750 <dcd_rp2040_irq+0xb8>
200008ce:	22df      	movs	r2, #223	; 0xdf
200008d0:	0092      	lsls	r2, r2, #2
200008d2:	5ca1      	ldrb	r1, [r4, r2]
200008d4:	001e      	movs	r6, r3
200008d6:	2900      	cmp	r1, #0
200008d8:	d100      	bne.n	200008dc <dcd_rp2040_irq+0x244>
200008da:	e739      	b.n	20000750 <dcd_rp2040_irq+0xb8>
200008dc:	2300      	movs	r3, #0
200008de:	54a3      	strb	r3, [r4, r2]
200008e0:	23d8      	movs	r3, #216	; 0xd8
200008e2:	009b      	lsls	r3, r3, #2
200008e4:	18e0      	adds	r0, r4, r3
200008e6:	f000 fa15 	bl	20000d14 <hw_endpoint_start_next_buffer>
200008ea:	e731      	b.n	20000750 <dcd_rp2040_irq+0xb8>
200008ec:	4b4f      	ldr	r3, [pc, #316]	; (20000a2c <dcd_rp2040_irq+0x394>)
200008ee:	5ce3      	ldrb	r3, [r4, r3]
200008f0:	2b00      	cmp	r3, #0
200008f2:	d100      	bne.n	200008f6 <dcd_rp2040_irq+0x25e>
200008f4:	e727      	b.n	20000746 <dcd_rp2040_irq+0xae>
200008f6:	22cf      	movs	r2, #207	; 0xcf
200008f8:	0092      	lsls	r2, r2, #2
200008fa:	5ca1      	ldrb	r1, [r4, r2]
200008fc:	001e      	movs	r6, r3
200008fe:	2900      	cmp	r1, #0
20000900:	d100      	bne.n	20000904 <dcd_rp2040_irq+0x26c>
20000902:	e720      	b.n	20000746 <dcd_rp2040_irq+0xae>
20000904:	2300      	movs	r3, #0
20000906:	54a3      	strb	r3, [r4, r2]
20000908:	23c8      	movs	r3, #200	; 0xc8
2000090a:	009b      	lsls	r3, r3, #2
2000090c:	18e0      	adds	r0, r4, r3
2000090e:	f000 fa01 	bl	20000d14 <hw_endpoint_start_next_buffer>
20000912:	e718      	b.n	20000746 <dcd_rp2040_irq+0xae>
20000914:	4b46      	ldr	r3, [pc, #280]	; (20000a30 <dcd_rp2040_irq+0x398>)
20000916:	5ce3      	ldrb	r3, [r4, r3]
20000918:	2b00      	cmp	r3, #0
2000091a:	d100      	bne.n	2000091e <dcd_rp2040_irq+0x286>
2000091c:	e70e      	b.n	2000073c <dcd_rp2040_irq+0xa4>
2000091e:	22bf      	movs	r2, #191	; 0xbf
20000920:	0092      	lsls	r2, r2, #2
20000922:	5ca1      	ldrb	r1, [r4, r2]
20000924:	001e      	movs	r6, r3
20000926:	2900      	cmp	r1, #0
20000928:	d100      	bne.n	2000092c <dcd_rp2040_irq+0x294>
2000092a:	e707      	b.n	2000073c <dcd_rp2040_irq+0xa4>
2000092c:	2300      	movs	r3, #0
2000092e:	54a3      	strb	r3, [r4, r2]
20000930:	23b8      	movs	r3, #184	; 0xb8
20000932:	009b      	lsls	r3, r3, #2
20000934:	18e0      	adds	r0, r4, r3
20000936:	f000 f9ed 	bl	20000d14 <hw_endpoint_start_next_buffer>
2000093a:	e6ff      	b.n	2000073c <dcd_rp2040_irq+0xa4>
2000093c:	4b3d      	ldr	r3, [pc, #244]	; (20000a34 <dcd_rp2040_irq+0x39c>)
2000093e:	5ce3      	ldrb	r3, [r4, r3]
20000940:	2b00      	cmp	r3, #0
20000942:	d100      	bne.n	20000946 <dcd_rp2040_irq+0x2ae>
20000944:	e6f5      	b.n	20000732 <dcd_rp2040_irq+0x9a>
20000946:	22af      	movs	r2, #175	; 0xaf
20000948:	0092      	lsls	r2, r2, #2
2000094a:	5ca1      	ldrb	r1, [r4, r2]
2000094c:	001e      	movs	r6, r3
2000094e:	2900      	cmp	r1, #0
20000950:	d100      	bne.n	20000954 <dcd_rp2040_irq+0x2bc>
20000952:	e6ee      	b.n	20000732 <dcd_rp2040_irq+0x9a>
20000954:	2300      	movs	r3, #0
20000956:	54a3      	strb	r3, [r4, r2]
20000958:	23a8      	movs	r3, #168	; 0xa8
2000095a:	009b      	lsls	r3, r3, #2
2000095c:	18e0      	adds	r0, r4, r3
2000095e:	f000 f9d9 	bl	20000d14 <hw_endpoint_start_next_buffer>
20000962:	e6e6      	b.n	20000732 <dcd_rp2040_irq+0x9a>
20000964:	4b34      	ldr	r3, [pc, #208]	; (20000a38 <dcd_rp2040_irq+0x3a0>)
20000966:	5ce3      	ldrb	r3, [r4, r3]
20000968:	2b00      	cmp	r3, #0
2000096a:	d100      	bne.n	2000096e <dcd_rp2040_irq+0x2d6>
2000096c:	e6dc      	b.n	20000728 <dcd_rp2040_irq+0x90>
2000096e:	229f      	movs	r2, #159	; 0x9f
20000970:	0092      	lsls	r2, r2, #2
20000972:	5ca1      	ldrb	r1, [r4, r2]
20000974:	001e      	movs	r6, r3
20000976:	2900      	cmp	r1, #0
20000978:	d100      	bne.n	2000097c <dcd_rp2040_irq+0x2e4>
2000097a:	e6d5      	b.n	20000728 <dcd_rp2040_irq+0x90>
2000097c:	2300      	movs	r3, #0
2000097e:	54a3      	strb	r3, [r4, r2]
20000980:	2398      	movs	r3, #152	; 0x98
20000982:	009b      	lsls	r3, r3, #2
20000984:	18e0      	adds	r0, r4, r3
20000986:	f000 f9c5 	bl	20000d14 <hw_endpoint_start_next_buffer>
2000098a:	e6cd      	b.n	20000728 <dcd_rp2040_irq+0x90>
2000098c:	4b2b      	ldr	r3, [pc, #172]	; (20000a3c <dcd_rp2040_irq+0x3a4>)
2000098e:	5ce3      	ldrb	r3, [r4, r3]
20000990:	2b00      	cmp	r3, #0
20000992:	d100      	bne.n	20000996 <dcd_rp2040_irq+0x2fe>
20000994:	e6c3      	b.n	2000071e <dcd_rp2040_irq+0x86>
20000996:	228f      	movs	r2, #143	; 0x8f
20000998:	0092      	lsls	r2, r2, #2
2000099a:	5ca1      	ldrb	r1, [r4, r2]
2000099c:	001e      	movs	r6, r3
2000099e:	2900      	cmp	r1, #0
200009a0:	d100      	bne.n	200009a4 <dcd_rp2040_irq+0x30c>
200009a2:	e6bc      	b.n	2000071e <dcd_rp2040_irq+0x86>
200009a4:	2300      	movs	r3, #0
200009a6:	54a3      	strb	r3, [r4, r2]
200009a8:	2388      	movs	r3, #136	; 0x88
200009aa:	009b      	lsls	r3, r3, #2
200009ac:	18e0      	adds	r0, r4, r3
200009ae:	f000 f9b1 	bl	20000d14 <hw_endpoint_start_next_buffer>
200009b2:	e6b4      	b.n	2000071e <dcd_rp2040_irq+0x86>
200009b4:	33f9      	adds	r3, #249	; 0xf9
200009b6:	33ff      	adds	r3, #255	; 0xff
200009b8:	5ce3      	ldrb	r3, [r4, r3]
200009ba:	2b00      	cmp	r3, #0
200009bc:	d100      	bne.n	200009c0 <dcd_rp2040_irq+0x328>
200009be:	e6a9      	b.n	20000714 <dcd_rp2040_irq+0x7c>
200009c0:	22fe      	movs	r2, #254	; 0xfe
200009c2:	0052      	lsls	r2, r2, #1
200009c4:	5ca1      	ldrb	r1, [r4, r2]
200009c6:	001e      	movs	r6, r3
200009c8:	2900      	cmp	r1, #0
200009ca:	d100      	bne.n	200009ce <dcd_rp2040_irq+0x336>
200009cc:	e6a2      	b.n	20000714 <dcd_rp2040_irq+0x7c>
200009ce:	0020      	movs	r0, r4
200009d0:	2300      	movs	r3, #0
200009d2:	30e1      	adds	r0, #225	; 0xe1
200009d4:	54a3      	strb	r3, [r4, r2]
200009d6:	30ff      	adds	r0, #255	; 0xff
200009d8:	f000 f99c 	bl	20000d14 <hw_endpoint_start_next_buffer>
200009dc:	e69a      	b.n	20000714 <dcd_rp2040_irq+0x7c>
200009de:	46c0      	nop			; (mov r8, r8)
200009e0:	50110000 	.word	0x50110000
200009e4:	40054000 	.word	0x40054000
200009e8:	2000270c 	.word	0x2000270c
200009ec:	20002704 	.word	0x20002704
200009f0:	0000023b 	.word	0x0000023b
200009f4:	0000027b 	.word	0x0000027b
200009f8:	000002bb 	.word	0x000002bb
200009fc:	000002fb 	.word	0x000002fb
20000a00:	0000033b 	.word	0x0000033b
20000a04:	0000037b 	.word	0x0000037b
20000a08:	000003bb 	.word	0x000003bb
20000a0c:	000003fb 	.word	0x000003fb
20000a10:	20002c7f 	.word	0x20002c7f
20000a14:	50113000 	.word	0x50113000
20000a18:	00020010 	.word	0x00020010
20000a1c:	50100000 	.word	0x50100000
20000a20:	000003ba 	.word	0x000003ba
20000a24:	000003fa 	.word	0x000003fa
20000a28:	0000037a 	.word	0x0000037a
20000a2c:	0000033a 	.word	0x0000033a
20000a30:	000002fa 	.word	0x000002fa
20000a34:	000002ba 	.word	0x000002ba
20000a38:	0000027a 	.word	0x0000027a
20000a3c:	0000023a 	.word	0x0000023a
20000a40:	33b9      	adds	r3, #185	; 0xb9
20000a42:	33ff      	adds	r3, #255	; 0xff
20000a44:	5ce3      	ldrb	r3, [r4, r3]
20000a46:	2b00      	cmp	r3, #0
20000a48:	d100      	bne.n	20000a4c <dcd_rp2040_irq+0x3b4>
20000a4a:	e65d      	b.n	20000708 <dcd_rp2040_irq+0x70>
20000a4c:	22de      	movs	r2, #222	; 0xde
20000a4e:	0052      	lsls	r2, r2, #1
20000a50:	5ca1      	ldrb	r1, [r4, r2]
20000a52:	001e      	movs	r6, r3
20000a54:	2900      	cmp	r1, #0
20000a56:	d100      	bne.n	20000a5a <dcd_rp2040_irq+0x3c2>
20000a58:	e656      	b.n	20000708 <dcd_rp2040_irq+0x70>
20000a5a:	0020      	movs	r0, r4
20000a5c:	2300      	movs	r3, #0
20000a5e:	30a1      	adds	r0, #161	; 0xa1
20000a60:	54a3      	strb	r3, [r4, r2]
20000a62:	30ff      	adds	r0, #255	; 0xff
20000a64:	f000 f956 	bl	20000d14 <hw_endpoint_start_next_buffer>
20000a68:	e64e      	b.n	20000708 <dcd_rp2040_irq+0x70>
20000a6a:	3379      	adds	r3, #121	; 0x79
20000a6c:	33ff      	adds	r3, #255	; 0xff
20000a6e:	5ce3      	ldrb	r3, [r4, r3]
20000a70:	2b00      	cmp	r3, #0
20000a72:	d100      	bne.n	20000a76 <dcd_rp2040_irq+0x3de>
20000a74:	e642      	b.n	200006fc <dcd_rp2040_irq+0x64>
20000a76:	22be      	movs	r2, #190	; 0xbe
20000a78:	0052      	lsls	r2, r2, #1
20000a7a:	5ca1      	ldrb	r1, [r4, r2]
20000a7c:	001e      	movs	r6, r3
20000a7e:	2900      	cmp	r1, #0
20000a80:	d100      	bne.n	20000a84 <dcd_rp2040_irq+0x3ec>
20000a82:	e63b      	b.n	200006fc <dcd_rp2040_irq+0x64>
20000a84:	0020      	movs	r0, r4
20000a86:	2300      	movs	r3, #0
20000a88:	3061      	adds	r0, #97	; 0x61
20000a8a:	54a3      	strb	r3, [r4, r2]
20000a8c:	30ff      	adds	r0, #255	; 0xff
20000a8e:	f000 f941 	bl	20000d14 <hw_endpoint_start_next_buffer>
20000a92:	e633      	b.n	200006fc <dcd_rp2040_irq+0x64>
20000a94:	3339      	adds	r3, #57	; 0x39
20000a96:	33ff      	adds	r3, #255	; 0xff
20000a98:	5ce3      	ldrb	r3, [r4, r3]
20000a9a:	2b00      	cmp	r3, #0
20000a9c:	d100      	bne.n	20000aa0 <dcd_rp2040_irq+0x408>
20000a9e:	e627      	b.n	200006f0 <dcd_rp2040_irq+0x58>
20000aa0:	229e      	movs	r2, #158	; 0x9e
20000aa2:	0052      	lsls	r2, r2, #1
20000aa4:	5ca1      	ldrb	r1, [r4, r2]
20000aa6:	001e      	movs	r6, r3
20000aa8:	2900      	cmp	r1, #0
20000aaa:	d100      	bne.n	20000aae <dcd_rp2040_irq+0x416>
20000aac:	e620      	b.n	200006f0 <dcd_rp2040_irq+0x58>
20000aae:	0020      	movs	r0, r4
20000ab0:	2300      	movs	r3, #0
20000ab2:	3021      	adds	r0, #33	; 0x21
20000ab4:	54a3      	strb	r3, [r4, r2]
20000ab6:	30ff      	adds	r0, #255	; 0xff
20000ab8:	f000 f92c 	bl	20000d14 <hw_endpoint_start_next_buffer>
20000abc:	e618      	b.n	200006f0 <dcd_rp2040_irq+0x58>
20000abe:	33f8      	adds	r3, #248	; 0xf8
20000ac0:	5ce3      	ldrb	r3, [r4, r3]
20000ac2:	2b00      	cmp	r3, #0
20000ac4:	d100      	bne.n	20000ac8 <dcd_rp2040_irq+0x430>
20000ac6:	e60d      	b.n	200006e4 <dcd_rp2040_irq+0x4c>
20000ac8:	22fc      	movs	r2, #252	; 0xfc
20000aca:	5ca1      	ldrb	r1, [r4, r2]
20000acc:	001e      	movs	r6, r3
20000ace:	2900      	cmp	r1, #0
20000ad0:	d100      	bne.n	20000ad4 <dcd_rp2040_irq+0x43c>
20000ad2:	e607      	b.n	200006e4 <dcd_rp2040_irq+0x4c>
20000ad4:	2300      	movs	r3, #0
20000ad6:	0020      	movs	r0, r4
20000ad8:	54a3      	strb	r3, [r4, r2]
20000ada:	30e0      	adds	r0, #224	; 0xe0
20000adc:	f000 f91a 	bl	20000d14 <hw_endpoint_start_next_buffer>
20000ae0:	e600      	b.n	200006e4 <dcd_rp2040_irq+0x4c>
20000ae2:	33b8      	adds	r3, #184	; 0xb8
20000ae4:	5ce3      	ldrb	r3, [r4, r3]
20000ae6:	2b00      	cmp	r3, #0
20000ae8:	d100      	bne.n	20000aec <dcd_rp2040_irq+0x454>
20000aea:	e5f6      	b.n	200006da <dcd_rp2040_irq+0x42>
20000aec:	22bc      	movs	r2, #188	; 0xbc
20000aee:	5ca1      	ldrb	r1, [r4, r2]
20000af0:	001e      	movs	r6, r3
20000af2:	2900      	cmp	r1, #0
20000af4:	d100      	bne.n	20000af8 <dcd_rp2040_irq+0x460>
20000af6:	e5f0      	b.n	200006da <dcd_rp2040_irq+0x42>
20000af8:	2300      	movs	r3, #0
20000afa:	0020      	movs	r0, r4
20000afc:	54a3      	strb	r3, [r4, r2]
20000afe:	30a0      	adds	r0, #160	; 0xa0
20000b00:	f000 f908 	bl	20000d14 <hw_endpoint_start_next_buffer>
20000b04:	e5e9      	b.n	200006da <dcd_rp2040_irq+0x42>
20000b06:	3378      	adds	r3, #120	; 0x78
20000b08:	5ce3      	ldrb	r3, [r4, r3]
20000b0a:	2b00      	cmp	r3, #0
20000b0c:	d100      	bne.n	20000b10 <dcd_rp2040_irq+0x478>
20000b0e:	e5df      	b.n	200006d0 <dcd_rp2040_irq+0x38>
20000b10:	227c      	movs	r2, #124	; 0x7c
20000b12:	5ca1      	ldrb	r1, [r4, r2]
20000b14:	001e      	movs	r6, r3
20000b16:	2900      	cmp	r1, #0
20000b18:	d100      	bne.n	20000b1c <dcd_rp2040_irq+0x484>
20000b1a:	e5d9      	b.n	200006d0 <dcd_rp2040_irq+0x38>
20000b1c:	2300      	movs	r3, #0
20000b1e:	0020      	movs	r0, r4
20000b20:	54a3      	strb	r3, [r4, r2]
20000b22:	3060      	adds	r0, #96	; 0x60
20000b24:	f000 f8f6 	bl	20000d14 <hw_endpoint_start_next_buffer>
20000b28:	e5d2      	b.n	200006d0 <dcd_rp2040_irq+0x38>
20000b2a:	4b0f      	ldr	r3, [pc, #60]	; (20000b68 <dcd_rp2040_irq+0x4d0>)
20000b2c:	5ce3      	ldrb	r3, [r4, r3]
20000b2e:	2b00      	cmp	r3, #0
20000b30:	d100      	bne.n	20000b34 <dcd_rp2040_irq+0x49c>
20000b32:	e617      	b.n	20000764 <dcd_rp2040_irq+0xcc>
20000b34:	23ff      	movs	r3, #255	; 0xff
20000b36:	009b      	lsls	r3, r3, #2
20000b38:	5ce2      	ldrb	r2, [r4, r3]
20000b3a:	2a00      	cmp	r2, #0
20000b3c:	d100      	bne.n	20000b40 <dcd_rp2040_irq+0x4a8>
20000b3e:	e61c      	b.n	2000077a <dcd_rp2040_irq+0xe2>
20000b40:	2200      	movs	r2, #0
20000b42:	54e2      	strb	r2, [r4, r3]
20000b44:	3b1c      	subs	r3, #28
20000b46:	18e0      	adds	r0, r4, r3
20000b48:	f000 f8e4 	bl	20000d14 <hw_endpoint_start_next_buffer>
20000b4c:	e615      	b.n	2000077a <dcd_rp2040_irq+0xe2>
20000b4e:	2200      	movs	r2, #0
20000b50:	54e2      	strb	r2, [r4, r3]
20000b52:	23e8      	movs	r3, #232	; 0xe8
20000b54:	009b      	lsls	r3, r3, #2
20000b56:	18e0      	adds	r0, r4, r3
20000b58:	f000 f8dc 	bl	20000d14 <hw_endpoint_start_next_buffer>
20000b5c:	e6a7      	b.n	200008ae <dcd_rp2040_irq+0x216>
20000b5e:	0021      	movs	r1, r4
20000b60:	4802      	ldr	r0, [pc, #8]	; (20000b6c <dcd_rp2040_irq+0x4d4>)
20000b62:	4069      	eors	r1, r5
20000b64:	f000 fa64 	bl	20001030 <__panic_veneer>
20000b68:	000003fa 	.word	0x000003fa
20000b6c:	100425a4 	.word	0x100425a4

20000b70 <e15_is_bulkin_ep>:
20000b70:	4a08      	ldr	r2, [pc, #32]	; (20000b94 <e15_is_bulkin_ep+0x24>)
20000b72:	0003      	movs	r3, r0
20000b74:	6c12      	ldr	r2, [r2, #64]	; 0x40
20000b76:	2000      	movs	r0, #0
20000b78:	0792      	lsls	r2, r2, #30
20000b7a:	d403      	bmi.n	20000b84 <e15_is_bulkin_ep+0x14>
20000b7c:	789a      	ldrb	r2, [r3, #2]
20000b7e:	09d2      	lsrs	r2, r2, #7
20000b80:	2a01      	cmp	r2, #1
20000b82:	d000      	beq.n	20000b86 <e15_is_bulkin_ep+0x16>
20000b84:	4770      	bx	lr
20000b86:	7ed8      	ldrb	r0, [r3, #27]
20000b88:	3802      	subs	r0, #2
20000b8a:	4243      	negs	r3, r0
20000b8c:	4158      	adcs	r0, r3
20000b8e:	b2c0      	uxtb	r0, r0
20000b90:	e7f8      	b.n	20000b84 <e15_is_bulkin_ep+0x14>
20000b92:	46c0      	nop			; (mov r8, r8)
20000b94:	50110000 	.word	0x50110000

20000b98 <e15_is_critical_frame_period>:
20000b98:	b510      	push	{r4, lr}
20000b9a:	f7ff ffe9 	bl	20000b70 <e15_is_bulkin_ep>
20000b9e:	2800      	cmp	r0, #0
20000ba0:	d00c      	beq.n	20000bbc <e15_is_critical_frame_period+0x24>
20000ba2:	4907      	ldr	r1, [pc, #28]	; (20000bc0 <e15_is_critical_frame_period+0x28>)
20000ba4:	4b07      	ldr	r3, [pc, #28]	; (20000bc4 <e15_is_critical_frame_period+0x2c>)
20000ba6:	468c      	mov	ip, r1
20000ba8:	4a07      	ldr	r2, [pc, #28]	; (20000bc8 <e15_is_critical_frame_period+0x30>)
20000baa:	6a9b      	ldr	r3, [r3, #40]	; 0x28
20000bac:	6812      	ldr	r2, [r2, #0]
20000bae:	4463      	add	r3, ip
20000bb0:	1a9b      	subs	r3, r3, r2
20000bb2:	2000      	movs	r0, #0
20000bb4:	22c6      	movs	r2, #198	; 0xc6
20000bb6:	429a      	cmp	r2, r3
20000bb8:	4140      	adcs	r0, r0
20000bba:	b2c0      	uxtb	r0, r0
20000bbc:	bd10      	pop	{r4, pc}
20000bbe:	46c0      	nop			; (mov r8, r8)
20000bc0:	fffffce0 	.word	0xfffffce0
20000bc4:	40054000 	.word	0x40054000
20000bc8:	20002704 	.word	0x20002704

20000bcc <prepare_ep_buffer>:
20000bcc:	b5f8      	push	{r3, r4, r5, r6, r7, lr}
20000bce:	8b02      	ldrh	r2, [r0, #24]
20000bd0:	8a83      	ldrh	r3, [r0, #20]
20000bd2:	0004      	movs	r4, r0
20000bd4:	000f      	movs	r7, r1
20000bd6:	1c16      	adds	r6, r2, #0
20000bd8:	429a      	cmp	r2, r3
20000bda:	d900      	bls.n	20000bde <prepare_ep_buffer+0x12>
20000bdc:	1c1e      	adds	r6, r3, #0
20000bde:	2580      	movs	r5, #128	; 0x80
20000be0:	b2b6      	uxth	r6, r6
20000be2:	1b9b      	subs	r3, r3, r6
20000be4:	78e2      	ldrb	r2, [r4, #3]
20000be6:	b29b      	uxth	r3, r3
20000be8:	00ed      	lsls	r5, r5, #3
20000bea:	82a3      	strh	r3, [r4, #20]
20000bec:	4335      	orrs	r5, r6
20000bee:	2a00      	cmp	r2, #0
20000bf0:	d002      	beq.n	20000bf8 <prepare_ep_buffer+0x2c>
20000bf2:	2590      	movs	r5, #144	; 0x90
20000bf4:	01ad      	lsls	r5, r5, #6
20000bf6:	4335      	orrs	r5, r6
20000bf8:	2101      	movs	r1, #1
20000bfa:	404a      	eors	r2, r1
20000bfc:	70e2      	strb	r2, [r4, #3]
20000bfe:	7862      	ldrb	r2, [r4, #1]
20000c00:	2a00      	cmp	r2, #0
20000c02:	d009      	beq.n	20000c18 <prepare_ep_buffer+0x4c>
20000c04:	2b00      	cmp	r3, #0
20000c06:	d102      	bne.n	20000c0e <prepare_ep_buffer+0x42>
20000c08:	2380      	movs	r3, #128	; 0x80
20000c0a:	01db      	lsls	r3, r3, #7
20000c0c:	431d      	orrs	r5, r3
20000c0e:	2f00      	cmp	r7, #0
20000c10:	d000      	beq.n	20000c14 <prepare_ep_buffer+0x48>
20000c12:	042d      	lsls	r5, r5, #16
20000c14:	0028      	movs	r0, r5
20000c16:	bdf8      	pop	{r3, r4, r5, r6, r7, pc}
20000c18:	68e3      	ldr	r3, [r4, #12]
20000c1a:	01b8      	lsls	r0, r7, #6
20000c1c:	469c      	mov	ip, r3
20000c1e:	0032      	movs	r2, r6
20000c20:	4460      	add	r0, ip
20000c22:	6921      	ldr	r1, [r4, #16]
20000c24:	f000 f9f4 	bl	20001010 <____wrap_memcpy_veneer>
20000c28:	6923      	ldr	r3, [r4, #16]
20000c2a:	469c      	mov	ip, r3
20000c2c:	2380      	movs	r3, #128	; 0x80
20000c2e:	4466      	add	r6, ip
20000c30:	021b      	lsls	r3, r3, #8
20000c32:	431d      	orrs	r5, r3
20000c34:	6126      	str	r6, [r4, #16]
20000c36:	8aa3      	ldrh	r3, [r4, #20]
20000c38:	e7e4      	b.n	20000c04 <prepare_ep_buffer+0x38>
20000c3a:	46c0      	nop			; (mov r8, r8)

20000c3c <sync_ep_buffer>:
20000c3c:	6883      	ldr	r3, [r0, #8]
20000c3e:	b570      	push	{r4, r5, r6, lr}
20000c40:	0004      	movs	r4, r0
20000c42:	681d      	ldr	r5, [r3, #0]
20000c44:	2900      	cmp	r1, #0
20000c46:	d000      	beq.n	20000c4a <sync_ep_buffer+0xe>
20000c48:	0c2d      	lsrs	r5, r5, #16
20000c4a:	7863      	ldrb	r3, [r4, #1]
20000c4c:	05ad      	lsls	r5, r5, #22
20000c4e:	0dad      	lsrs	r5, r5, #22
20000c50:	2b00      	cmp	r3, #0
20000c52:	d109      	bne.n	20000c68 <sync_ep_buffer+0x2c>
20000c54:	8ae3      	ldrh	r3, [r4, #22]
20000c56:	18eb      	adds	r3, r5, r3
20000c58:	82e3      	strh	r3, [r4, #22]
20000c5a:	8b23      	ldrh	r3, [r4, #24]
20000c5c:	42ab      	cmp	r3, r5
20000c5e:	d901      	bls.n	20000c64 <sync_ep_buffer+0x28>
20000c60:	2300      	movs	r3, #0
20000c62:	82a3      	strh	r3, [r4, #20]
20000c64:	0028      	movs	r0, r5
20000c66:	bd70      	pop	{r4, r5, r6, pc}
20000c68:	68e3      	ldr	r3, [r4, #12]
20000c6a:	0189      	lsls	r1, r1, #6
20000c6c:	469c      	mov	ip, r3
20000c6e:	002a      	movs	r2, r5
20000c70:	6920      	ldr	r0, [r4, #16]
20000c72:	4461      	add	r1, ip
20000c74:	f000 f9cc 	bl	20001010 <____wrap_memcpy_veneer>
20000c78:	8ae3      	ldrh	r3, [r4, #22]
20000c7a:	18eb      	adds	r3, r5, r3
20000c7c:	82e3      	strh	r3, [r4, #22]
20000c7e:	6923      	ldr	r3, [r4, #16]
20000c80:	195b      	adds	r3, r3, r5
20000c82:	6123      	str	r3, [r4, #16]
20000c84:	e7e9      	b.n	20000c5a <sync_ep_buffer+0x1e>
20000c86:	46c0      	nop			; (mov r8, r8)

20000c88 <_hw_endpoint_xfer_sync>:
20000c88:	b510      	push	{r4, lr}
20000c8a:	0004      	movs	r4, r0
20000c8c:	6883      	ldr	r3, [r0, #8]
20000c8e:	2100      	movs	r1, #0
20000c90:	681b      	ldr	r3, [r3, #0]
20000c92:	f7ff ffd3 	bl	20000c3c <sync_ep_buffer>
20000c96:	6863      	ldr	r3, [r4, #4]
20000c98:	681b      	ldr	r3, [r3, #0]
20000c9a:	005b      	lsls	r3, r3, #1
20000c9c:	d502      	bpl.n	20000ca4 <_hw_endpoint_xfer_sync+0x1c>
20000c9e:	8b23      	ldrh	r3, [r4, #24]
20000ca0:	4283      	cmp	r3, r0
20000ca2:	d000      	beq.n	20000ca6 <_hw_endpoint_xfer_sync+0x1e>
20000ca4:	bd10      	pop	{r4, pc}
20000ca6:	2101      	movs	r1, #1
20000ca8:	0020      	movs	r0, r4
20000caa:	f7ff ffc7 	bl	20000c3c <sync_ep_buffer>
20000cae:	e7f9      	b.n	20000ca4 <_hw_endpoint_xfer_sync+0x1c>

20000cb0 <hw_endpoint_reset_transfer>:
20000cb0:	2300      	movs	r3, #0
20000cb2:	7683      	strb	r3, [r0, #26]
20000cb4:	6143      	str	r3, [r0, #20]
20000cb6:	6103      	str	r3, [r0, #16]
20000cb8:	4770      	bx	lr
20000cba:	46c0      	nop			; (mov r8, r8)

20000cbc <_hw_endpoint_buffer_control_update32>:
20000cbc:	b510      	push	{r4, lr}
20000cbe:	6883      	ldr	r3, [r0, #8]
20000cc0:	2900      	cmp	r1, #0
20000cc2:	d001      	beq.n	20000cc8 <_hw_endpoint_buffer_control_update32+0xc>
20000cc4:	681c      	ldr	r4, [r3, #0]
20000cc6:	4021      	ands	r1, r4
20000cc8:	2a00      	cmp	r2, #0
20000cca:	d011      	beq.n	20000cf0 <_hw_endpoint_buffer_control_update32+0x34>
20000ccc:	2480      	movs	r4, #128	; 0x80
20000cce:	00e4      	lsls	r4, r4, #3
20000cd0:	4311      	orrs	r1, r2
20000cd2:	4222      	tst	r2, r4
20000cd4:	d00c      	beq.n	20000cf0 <_hw_endpoint_buffer_control_update32+0x34>
20000cd6:	681a      	ldr	r2, [r3, #0]
20000cd8:	4222      	tst	r2, r4
20000cda:	d10b      	bne.n	20000cf4 <_hw_endpoint_buffer_control_update32+0x38>
20000cdc:	4a0a      	ldr	r2, [pc, #40]	; (20000d08 <_hw_endpoint_buffer_control_update32+0x4c>)
20000cde:	400a      	ands	r2, r1
20000ce0:	601a      	str	r2, [r3, #0]
20000ce2:	e7ff      	b.n	20000ce4 <_hw_endpoint_buffer_control_update32+0x28>
20000ce4:	e7ff      	b.n	20000ce6 <_hw_endpoint_buffer_control_update32+0x2a>
20000ce6:	e7ff      	b.n	20000ce8 <_hw_endpoint_buffer_control_update32+0x2c>
20000ce8:	e7ff      	b.n	20000cea <_hw_endpoint_buffer_control_update32+0x2e>
20000cea:	e7ff      	b.n	20000cec <_hw_endpoint_buffer_control_update32+0x30>
20000cec:	e7ff      	b.n	20000cee <_hw_endpoint_buffer_control_update32+0x32>
20000cee:	6883      	ldr	r3, [r0, #8]
20000cf0:	6019      	str	r1, [r3, #0]
20000cf2:	bd10      	pop	{r4, pc}
20000cf4:	227f      	movs	r2, #127	; 0x7f
20000cf6:	7881      	ldrb	r1, [r0, #2]
20000cf8:	4804      	ldr	r0, [pc, #16]	; (20000d0c <_hw_endpoint_buffer_control_update32+0x50>)
20000cfa:	09cb      	lsrs	r3, r1, #7
20000cfc:	4011      	ands	r1, r2
20000cfe:	4a04      	ldr	r2, [pc, #16]	; (20000d10 <_hw_endpoint_buffer_control_update32+0x54>)
20000d00:	009b      	lsls	r3, r3, #2
20000d02:	589a      	ldr	r2, [r3, r2]
20000d04:	f000 f994 	bl	20001030 <__panic_veneer>
20000d08:	fffffbff 	.word	0xfffffbff
20000d0c:	100425b8 	.word	0x100425b8
20000d10:	20001150 	.word	0x20001150

20000d14 <hw_endpoint_start_next_buffer>:
20000d14:	6843      	ldr	r3, [r0, #4]
20000d16:	b570      	push	{r4, r5, r6, lr}
20000d18:	2100      	movs	r1, #0
20000d1a:	2580      	movs	r5, #128	; 0x80
20000d1c:	681e      	ldr	r6, [r3, #0]
20000d1e:	0004      	movs	r4, r0
20000d20:	f7ff ff54 	bl	20000bcc <prepare_ep_buffer>
20000d24:	4b13      	ldr	r3, [pc, #76]	; (20000d74 <hw_endpoint_start_next_buffer+0x60>)
20000d26:	016d      	lsls	r5, r5, #5
20000d28:	6c1b      	ldr	r3, [r3, #64]	; 0x40
20000d2a:	4305      	orrs	r5, r0
20000d2c:	079b      	lsls	r3, r3, #30
20000d2e:	d50f      	bpl.n	20000d50 <hw_endpoint_start_next_buffer+0x3c>
20000d30:	78a3      	ldrb	r3, [r4, #2]
20000d32:	065b      	lsls	r3, r3, #25
20000d34:	d00f      	beq.n	20000d56 <hw_endpoint_start_next_buffer+0x42>
20000d36:	4b10      	ldr	r3, [pc, #64]	; (20000d78 <hw_endpoint_start_next_buffer+0x64>)
20000d38:	401e      	ands	r6, r3
20000d3a:	2380      	movs	r3, #128	; 0x80
20000d3c:	059b      	lsls	r3, r3, #22
20000d3e:	4333      	orrs	r3, r6
20000d40:	6862      	ldr	r2, [r4, #4]
20000d42:	2100      	movs	r1, #0
20000d44:	6013      	str	r3, [r2, #0]
20000d46:	0020      	movs	r0, r4
20000d48:	002a      	movs	r2, r5
20000d4a:	f7ff ffb7 	bl	20000cbc <_hw_endpoint_buffer_control_update32>
20000d4e:	bd70      	pop	{r4, r5, r6, pc}
20000d50:	78a3      	ldrb	r3, [r4, #2]
20000d52:	09db      	lsrs	r3, r3, #7
20000d54:	d0ef      	beq.n	20000d36 <hw_endpoint_start_next_buffer+0x22>
20000d56:	8aa3      	ldrh	r3, [r4, #20]
20000d58:	2b00      	cmp	r3, #0
20000d5a:	d0ec      	beq.n	20000d36 <hw_endpoint_start_next_buffer+0x22>
20000d5c:	2101      	movs	r1, #1
20000d5e:	0020      	movs	r0, r4
20000d60:	f7ff ff34 	bl	20000bcc <prepare_ep_buffer>
20000d64:	23a0      	movs	r3, #160	; 0xa0
20000d66:	4a05      	ldr	r2, [pc, #20]	; (20000d7c <hw_endpoint_start_next_buffer+0x68>)
20000d68:	05db      	lsls	r3, r3, #23
20000d6a:	4032      	ands	r2, r6
20000d6c:	4305      	orrs	r5, r0
20000d6e:	4313      	orrs	r3, r2
20000d70:	e7e6      	b.n	20000d40 <hw_endpoint_start_next_buffer+0x2c>
20000d72:	46c0      	nop			; (mov r8, r8)
20000d74:	50110000 	.word	0x50110000
20000d78:	afffffff 	.word	0xafffffff
20000d7c:	dfffffff 	.word	0xdfffffff

20000d80 <hw_endpoint_xfer_continue>:
20000d80:	b570      	push	{r4, r5, r6, lr}
20000d82:	7e85      	ldrb	r5, [r0, #26]
20000d84:	0004      	movs	r4, r0
20000d86:	2d00      	cmp	r5, #0
20000d88:	d013      	beq.n	20000db2 <hw_endpoint_xfer_continue+0x32>
20000d8a:	f7ff ff7d 	bl	20000c88 <_hw_endpoint_xfer_sync>
20000d8e:	8aa3      	ldrh	r3, [r4, #20]
20000d90:	2b00      	cmp	r3, #0
20000d92:	d101      	bne.n	20000d98 <hw_endpoint_xfer_continue+0x18>
20000d94:	0028      	movs	r0, r5
20000d96:	bd70      	pop	{r4, r5, r6, pc}
20000d98:	0020      	movs	r0, r4
20000d9a:	f7ff fefd 	bl	20000b98 <e15_is_critical_frame_period>
20000d9e:	1e05      	subs	r5, r0, #0
20000da0:	d003      	beq.n	20000daa <hw_endpoint_xfer_continue+0x2a>
20000da2:	2301      	movs	r3, #1
20000da4:	2500      	movs	r5, #0
20000da6:	7723      	strb	r3, [r4, #28]
20000da8:	e7f4      	b.n	20000d94 <hw_endpoint_xfer_continue+0x14>
20000daa:	0020      	movs	r0, r4
20000dac:	f7ff ffb2 	bl	20000d14 <hw_endpoint_start_next_buffer>
20000db0:	e7f0      	b.n	20000d94 <hw_endpoint_xfer_continue+0x14>
20000db2:	227f      	movs	r2, #127	; 0x7f
20000db4:	7881      	ldrb	r1, [r0, #2]
20000db6:	4804      	ldr	r0, [pc, #16]	; (20000dc8 <hw_endpoint_xfer_continue+0x48>)
20000db8:	09cb      	lsrs	r3, r1, #7
20000dba:	4011      	ands	r1, r2
20000dbc:	4a03      	ldr	r2, [pc, #12]	; (20000dcc <hw_endpoint_xfer_continue+0x4c>)
20000dbe:	009b      	lsls	r3, r3, #2
20000dc0:	589a      	ldr	r2, [r3, r2]
20000dc2:	f000 f935 	bl	20001030 <__panic_veneer>
20000dc6:	46c0      	nop			; (mov r8, r8)
20000dc8:	100425d8 	.word	0x100425d8
20000dcc:	20001150 	.word	0x20001150

20000dd0 <dcd_event_handler>:
20000dd0:	b5f0      	push	{r4, r5, r6, r7, lr}
20000dd2:	7843      	ldrb	r3, [r0, #1]
20000dd4:	0005      	movs	r5, r0
20000dd6:	b085      	sub	sp, #20
20000dd8:	2b04      	cmp	r3, #4
20000dda:	d100      	bne.n	20000dde <dcd_event_handler+0xe>
20000ddc:	e075      	b.n	20000eca <dcd_event_handler+0xfa>
20000dde:	d846      	bhi.n	20000e6e <dcd_event_handler+0x9e>
20000de0:	2b02      	cmp	r3, #2
20000de2:	d100      	bne.n	20000de6 <dcd_event_handler+0x16>
20000de4:	e083      	b.n	20000eee <dcd_event_handler+0x11e>
20000de6:	2b03      	cmp	r3, #3
20000de8:	d155      	bne.n	20000e96 <dcd_event_handler+0xc6>
20000dea:	4e50      	ldr	r6, [pc, #320]	; (20000f2c <dcd_event_handler+0x15c>)
20000dec:	4a50      	ldr	r2, [pc, #320]	; (20000f30 <dcd_event_handler+0x160>)
20000dee:	2400      	movs	r4, #0
20000df0:	7833      	ldrb	r3, [r6, #0]
20000df2:	2a00      	cmp	r2, #0
20000df4:	d100      	bne.n	20000df8 <dcd_event_handler+0x28>
20000df6:	e092      	b.n	20000f1e <dcd_event_handler+0x14e>
20000df8:	4f4e      	ldr	r7, [pc, #312]	; (20000f34 <dcd_event_handler+0x164>)
20000dfa:	e003      	b.n	20000e04 <dcd_event_handler+0x34>
20000dfc:	3401      	adds	r4, #1
20000dfe:	b2e4      	uxtb	r4, r4
20000e00:	429c      	cmp	r4, r3
20000e02:	d814      	bhi.n	20000e2e <dcd_event_handler+0x5e>
20000e04:	42a3      	cmp	r3, r4
20000e06:	d9f9      	bls.n	20000dfc <dcd_event_handler+0x2c>
20000e08:	6839      	ldr	r1, [r7, #0]
20000e0a:	0062      	lsls	r2, r4, #1
20000e0c:	468c      	mov	ip, r1
20000e0e:	1912      	adds	r2, r2, r4
20000e10:	00d2      	lsls	r2, r2, #3
20000e12:	4462      	add	r2, ip
20000e14:	2a00      	cmp	r2, #0
20000e16:	d0f1      	beq.n	20000dfc <dcd_event_handler+0x2c>
20000e18:	6952      	ldr	r2, [r2, #20]
20000e1a:	2a00      	cmp	r2, #0
20000e1c:	d0ee      	beq.n	20000dfc <dcd_event_handler+0x2c>
20000e1e:	7828      	ldrb	r0, [r5, #0]
20000e20:	6869      	ldr	r1, [r5, #4]
20000e22:	4790      	blx	r2
20000e24:	3401      	adds	r4, #1
20000e26:	7833      	ldrb	r3, [r6, #0]
20000e28:	b2e4      	uxtb	r4, r4
20000e2a:	429c      	cmp	r4, r3
20000e2c:	d9ea      	bls.n	20000e04 <dcd_event_handler+0x34>
20000e2e:	4b42      	ldr	r3, [pc, #264]	; (20000f38 <dcd_event_handler+0x168>)
20000e30:	781a      	ldrb	r2, [r3, #0]
20000e32:	0752      	lsls	r2, r2, #29
20000e34:	d547      	bpl.n	20000ec6 <dcd_event_handler+0xf6>
20000e36:	2104      	movs	r1, #4
20000e38:	781a      	ldrb	r2, [r3, #0]
20000e3a:	a801      	add	r0, sp, #4
20000e3c:	438a      	bics	r2, r1
20000e3e:	701a      	strb	r2, [r3, #0]
20000e40:	2100      	movs	r1, #0
20000e42:	220c      	movs	r2, #12
20000e44:	f000 f8d4 	bl	20000ff0 <____wrap_memset_veneer>
20000e48:	466a      	mov	r2, sp
20000e4a:	782b      	ldrb	r3, [r5, #0]
20000e4c:	7113      	strb	r3, [r2, #4]
20000e4e:	2305      	movs	r3, #5
20000e50:	7153      	strb	r3, [r2, #5]
20000e52:	4b3a      	ldr	r3, [pc, #232]	; (20000f3c <dcd_event_handler+0x16c>)
20000e54:	681c      	ldr	r4, [r3, #0]
20000e56:	6962      	ldr	r2, [r4, #20]
20000e58:	f3ef 8110 	mrs	r1, PRIMASK
20000e5c:	b672      	cpsid	i
20000e5e:	6813      	ldr	r3, [r2, #0]
20000e60:	2b00      	cmp	r3, #0
20000e62:	d0fc      	beq.n	20000e5e <dcd_event_handler+0x8e>
20000e64:	f3bf 8f5f 	dmb	sy
20000e68:	61a1      	str	r1, [r4, #24]
20000e6a:	a901      	add	r1, sp, #4
20000e6c:	e020      	b.n	20000eb0 <dcd_event_handler+0xe0>
20000e6e:	2b05      	cmp	r3, #5
20000e70:	d111      	bne.n	20000e96 <dcd_event_handler+0xc6>
20000e72:	4b31      	ldr	r3, [pc, #196]	; (20000f38 <dcd_event_handler+0x168>)
20000e74:	781a      	ldrb	r2, [r3, #0]
20000e76:	07d2      	lsls	r2, r2, #31
20000e78:	d525      	bpl.n	20000ec6 <dcd_event_handler+0xf6>
20000e7a:	2104      	movs	r1, #4
20000e7c:	781a      	ldrb	r2, [r3, #0]
20000e7e:	438a      	bics	r2, r1
20000e80:	701a      	strb	r2, [r3, #0]
20000e82:	4b2e      	ldr	r3, [pc, #184]	; (20000f3c <dcd_event_handler+0x16c>)
20000e84:	681c      	ldr	r4, [r3, #0]
20000e86:	6962      	ldr	r2, [r4, #20]
20000e88:	f3ef 8110 	mrs	r1, PRIMASK
20000e8c:	b672      	cpsid	i
20000e8e:	6813      	ldr	r3, [r2, #0]
20000e90:	2b00      	cmp	r3, #0
20000e92:	d109      	bne.n	20000ea8 <dcd_event_handler+0xd8>
20000e94:	e7fb      	b.n	20000e8e <dcd_event_handler+0xbe>
20000e96:	4b29      	ldr	r3, [pc, #164]	; (20000f3c <dcd_event_handler+0x16c>)
20000e98:	681c      	ldr	r4, [r3, #0]
20000e9a:	6962      	ldr	r2, [r4, #20]
20000e9c:	f3ef 8110 	mrs	r1, PRIMASK
20000ea0:	b672      	cpsid	i
20000ea2:	6813      	ldr	r3, [r2, #0]
20000ea4:	2b00      	cmp	r3, #0
20000ea6:	d0fc      	beq.n	20000ea2 <dcd_event_handler+0xd2>
20000ea8:	f3bf 8f5f 	dmb	sy
20000eac:	61a1      	str	r1, [r4, #24]
20000eae:	0029      	movs	r1, r5
20000eb0:	0020      	movs	r0, r4
20000eb2:	f000 f8cd 	bl	20001050 <__tu_fifo_write_veneer>
20000eb6:	6962      	ldr	r2, [r4, #20]
20000eb8:	69a3      	ldr	r3, [r4, #24]
20000eba:	f3bf 8f5f 	dmb	sy
20000ebe:	2100      	movs	r1, #0
20000ec0:	6011      	str	r1, [r2, #0]
20000ec2:	f383 8810 	msr	PRIMASK, r3
20000ec6:	b005      	add	sp, #20
20000ec8:	bdf0      	pop	{r4, r5, r6, r7, pc}
20000eca:	4b1b      	ldr	r3, [pc, #108]	; (20000f38 <dcd_event_handler+0x168>)
20000ecc:	781a      	ldrb	r2, [r3, #0]
20000ece:	07d2      	lsls	r2, r2, #31
20000ed0:	d5f9      	bpl.n	20000ec6 <dcd_event_handler+0xf6>
20000ed2:	2104      	movs	r1, #4
20000ed4:	781a      	ldrb	r2, [r3, #0]
20000ed6:	430a      	orrs	r2, r1
20000ed8:	701a      	strb	r2, [r3, #0]
20000eda:	4b18      	ldr	r3, [pc, #96]	; (20000f3c <dcd_event_handler+0x16c>)
20000edc:	681c      	ldr	r4, [r3, #0]
20000ede:	6962      	ldr	r2, [r4, #20]
20000ee0:	f3ef 8110 	mrs	r1, PRIMASK
20000ee4:	b672      	cpsid	i
20000ee6:	6813      	ldr	r3, [r2, #0]
20000ee8:	2b00      	cmp	r3, #0
20000eea:	d1dd      	bne.n	20000ea8 <dcd_event_handler+0xd8>
20000eec:	e7fb      	b.n	20000ee6 <dcd_event_handler+0x116>
20000eee:	2001      	movs	r0, #1
20000ef0:	4a11      	ldr	r2, [pc, #68]	; (20000f38 <dcd_event_handler+0x168>)
20000ef2:	7811      	ldrb	r1, [r2, #0]
20000ef4:	4381      	bics	r1, r0
20000ef6:	7011      	strb	r1, [r2, #0]
20000ef8:	7811      	ldrb	r1, [r2, #0]
20000efa:	4399      	bics	r1, r3
20000efc:	2300      	movs	r3, #0
20000efe:	7011      	strb	r1, [r2, #0]
20000f00:	2104      	movs	r1, #4
20000f02:	7053      	strb	r3, [r2, #1]
20000f04:	7813      	ldrb	r3, [r2, #0]
20000f06:	438b      	bics	r3, r1
20000f08:	7013      	strb	r3, [r2, #0]
20000f0a:	4b0c      	ldr	r3, [pc, #48]	; (20000f3c <dcd_event_handler+0x16c>)
20000f0c:	681c      	ldr	r4, [r3, #0]
20000f0e:	6962      	ldr	r2, [r4, #20]
20000f10:	f3ef 8110 	mrs	r1, PRIMASK
20000f14:	b672      	cpsid	i
20000f16:	6813      	ldr	r3, [r2, #0]
20000f18:	2b00      	cmp	r3, #0
20000f1a:	d1c5      	bne.n	20000ea8 <dcd_event_handler+0xd8>
20000f1c:	e7fb      	b.n	20000f16 <dcd_event_handler+0x146>
20000f1e:	2200      	movs	r2, #0
20000f20:	3201      	adds	r2, #1
20000f22:	b2d2      	uxtb	r2, r2
20000f24:	429a      	cmp	r2, r3
20000f26:	d9fb      	bls.n	20000f20 <dcd_event_handler+0x150>
20000f28:	e781      	b.n	20000e2e <dcd_event_handler+0x5e>
20000f2a:	46c0      	nop			; (mov r8, r8)
20000f2c:	20002c7e 	.word	0x20002c7e
20000f30:	10008601 	.word	0x10008601
20000f34:	20001404 	.word	0x20001404
20000f38:	2000172c 	.word	0x2000172c
20000f3c:	20001784 	.word	0x20001784

20000f40 <__aeabi_idiv0>:
20000f40:	4770      	bx	lr
20000f42:	46c0      	nop			; (mov r8, r8)

20000f44 <memmove>:
20000f44:	b5f0      	push	{r4, r5, r6, r7, lr}
20000f46:	4288      	cmp	r0, r1
20000f48:	d90a      	bls.n	20000f60 <memmove+0x1c>
20000f4a:	188b      	adds	r3, r1, r2
20000f4c:	4298      	cmp	r0, r3
20000f4e:	d207      	bcs.n	20000f60 <memmove+0x1c>
20000f50:	1e53      	subs	r3, r2, #1
20000f52:	2a00      	cmp	r2, #0
20000f54:	d003      	beq.n	20000f5e <memmove+0x1a>
20000f56:	5cca      	ldrb	r2, [r1, r3]
20000f58:	54c2      	strb	r2, [r0, r3]
20000f5a:	3b01      	subs	r3, #1
20000f5c:	d2fb      	bcs.n	20000f56 <memmove+0x12>
20000f5e:	bdf0      	pop	{r4, r5, r6, r7, pc}
20000f60:	2a0f      	cmp	r2, #15
20000f62:	d80b      	bhi.n	20000f7c <memmove+0x38>
20000f64:	0005      	movs	r5, r0
20000f66:	1e56      	subs	r6, r2, #1
20000f68:	2a00      	cmp	r2, #0
20000f6a:	d0f8      	beq.n	20000f5e <memmove+0x1a>
20000f6c:	2300      	movs	r3, #0
20000f6e:	5ccc      	ldrb	r4, [r1, r3]
20000f70:	001a      	movs	r2, r3
20000f72:	54ec      	strb	r4, [r5, r3]
20000f74:	3301      	adds	r3, #1
20000f76:	4296      	cmp	r6, r2
20000f78:	d1f9      	bne.n	20000f6e <memmove+0x2a>
20000f7a:	e7f0      	b.n	20000f5e <memmove+0x1a>
20000f7c:	2703      	movs	r7, #3
20000f7e:	000d      	movs	r5, r1
20000f80:	003e      	movs	r6, r7
20000f82:	4305      	orrs	r5, r0
20000f84:	000c      	movs	r4, r1
20000f86:	0003      	movs	r3, r0
20000f88:	402e      	ands	r6, r5
20000f8a:	422f      	tst	r7, r5
20000f8c:	d12b      	bne.n	20000fe6 <memmove+0xa2>
20000f8e:	0015      	movs	r5, r2
20000f90:	3d10      	subs	r5, #16
20000f92:	092d      	lsrs	r5, r5, #4
20000f94:	46ac      	mov	ip, r5
20000f96:	012f      	lsls	r7, r5, #4
20000f98:	183f      	adds	r7, r7, r0
20000f9a:	6825      	ldr	r5, [r4, #0]
20000f9c:	601d      	str	r5, [r3, #0]
20000f9e:	6865      	ldr	r5, [r4, #4]
20000fa0:	605d      	str	r5, [r3, #4]
20000fa2:	68a5      	ldr	r5, [r4, #8]
20000fa4:	609d      	str	r5, [r3, #8]
20000fa6:	68e5      	ldr	r5, [r4, #12]
20000fa8:	3410      	adds	r4, #16
20000faa:	60dd      	str	r5, [r3, #12]
20000fac:	001d      	movs	r5, r3
20000fae:	3310      	adds	r3, #16
20000fb0:	42bd      	cmp	r5, r7
20000fb2:	d1f2      	bne.n	20000f9a <memmove+0x56>
20000fb4:	4665      	mov	r5, ip
20000fb6:	230f      	movs	r3, #15
20000fb8:	240c      	movs	r4, #12
20000fba:	3501      	adds	r5, #1
20000fbc:	012d      	lsls	r5, r5, #4
20000fbe:	1949      	adds	r1, r1, r5
20000fc0:	4013      	ands	r3, r2
20000fc2:	1945      	adds	r5, r0, r5
20000fc4:	4214      	tst	r4, r2
20000fc6:	d011      	beq.n	20000fec <memmove+0xa8>
20000fc8:	598c      	ldr	r4, [r1, r6]
20000fca:	51ac      	str	r4, [r5, r6]
20000fcc:	3604      	adds	r6, #4
20000fce:	1b9c      	subs	r4, r3, r6
20000fd0:	2c03      	cmp	r4, #3
20000fd2:	d8f9      	bhi.n	20000fc8 <memmove+0x84>
20000fd4:	3b04      	subs	r3, #4
20000fd6:	089b      	lsrs	r3, r3, #2
20000fd8:	3301      	adds	r3, #1
20000fda:	009b      	lsls	r3, r3, #2
20000fdc:	18ed      	adds	r5, r5, r3
20000fde:	18c9      	adds	r1, r1, r3
20000fe0:	2303      	movs	r3, #3
20000fe2:	401a      	ands	r2, r3
20000fe4:	e7bf      	b.n	20000f66 <memmove+0x22>
20000fe6:	0005      	movs	r5, r0
20000fe8:	1e56      	subs	r6, r2, #1
20000fea:	e7bf      	b.n	20000f6c <memmove+0x28>
20000fec:	001a      	movs	r2, r3
20000fee:	e7ba      	b.n	20000f66 <memmove+0x22>

20000ff0 <____wrap_memset_veneer>:
20000ff0:	b401      	push	{r0}
20000ff2:	4802      	ldr	r0, [pc, #8]	; (20000ffc <____wrap_memset_veneer+0xc>)
20000ff4:	4684      	mov	ip, r0
20000ff6:	bc01      	pop	{r0}
20000ff8:	4760      	bx	ip
20000ffa:	bf00      	nop
20000ffc:	10007ee1 	.word	0x10007ee1

20001000 <__best_effort_wfe_or_timeout_veneer>:
20001000:	b401      	push	{r0}
20001002:	4802      	ldr	r0, [pc, #8]	; (2000100c <__best_effort_wfe_or_timeout_veneer+0xc>)
20001004:	4684      	mov	ip, r0
20001006:	bc01      	pop	{r0}
20001008:	4760      	bx	ip
2000100a:	bf00      	nop
2000100c:	10004b91 	.word	0x10004b91

20001010 <____wrap_memcpy_veneer>:
20001010:	b401      	push	{r0}
20001012:	4802      	ldr	r0, [pc, #8]	; (2000101c <____wrap_memcpy_veneer+0xc>)
20001014:	4684      	mov	ip, r0
20001016:	bc01      	pop	{r0}
20001018:	4760      	bx	ip
2000101a:	bf00      	nop
2000101c:	10007eed 	.word	0x10007eed

20001020 <__time_us_64_veneer>:
20001020:	b401      	push	{r0}
20001022:	4802      	ldr	r0, [pc, #8]	; (2000102c <__time_us_64_veneer+0xc>)
20001024:	4684      	mov	ip, r0
20001026:	bc01      	pop	{r0}
20001028:	4760      	bx	ip
2000102a:	bf00      	nop
2000102c:	10004cdd 	.word	0x10004cdd

20001030 <__panic_veneer>:
20001030:	b401      	push	{r0}
20001032:	4802      	ldr	r0, [pc, #8]	; (2000103c <__panic_veneer+0xc>)
20001034:	4684      	mov	ip, r0
20001036:	bc01      	pop	{r0}
20001038:	4760      	bx	ip
2000103a:	bf00      	nop
2000103c:	100060d9 	.word	0x100060d9

20001040 <____wrap___aeabi_lmul_veneer>:
20001040:	b401      	push	{r0}
20001042:	4802      	ldr	r0, [pc, #8]	; (2000104c <____wrap___aeabi_lmul_veneer+0xc>)
20001044:	4684      	mov	ip, r0
20001046:	bc01      	pop	{r0}
20001048:	4760      	bx	ip
2000104a:	bf00      	nop
2000104c:	10007e35 	.word	0x10007e35

20001050 <__tu_fifo_write_veneer>:
20001050:	b401      	push	{r0}
20001052:	4802      	ldr	r0, [pc, #8]	; (2000105c <__tu_fifo_write_veneer+0xc>)
20001054:	4684      	mov	ip, r0
20001056:	bc01      	pop	{r0}
20001058:	4760      	bx	ip
2000105a:	bf00      	nop
2000105c:	1000a3b5 	.word	0x1000a3b5

20001060 <striped_spin_lock_num>:
20001060:	00000010                                ....

20001064 <irq_handler_chain_slots>:
20001064:	00000000 	.word	0x00000000
20001068:	00010000 	.word	0x00010000
	...
20001074:	00020000 	.word	0x00020000
	...
20001080:	00030000 	.word	0x00030000
	...
2000108c:	00ff0000 	.word	0x00ff0000
20001090:	00000000 	.word	0x00000000

20001094 <irq_handler_chain_first_slot>:
20001094:	b501      	push	{r0, lr}
20001096:	6848      	ldr	r0, [r1, #4]
20001098:	3101      	adds	r1, #1
2000109a:	468e      	mov	lr, r1
2000109c:	4700      	bx	r0

2000109e <irq_handler_chain_remove_tail>:
2000109e:	4670      	mov	r0, lr
200010a0:	3809      	subs	r0, #9
200010a2:	4901      	ldr	r1, [pc, #4]	; (200010a8 <irq_handler_chain_remove_tail+0xa>)
200010a4:	4788      	blx	r1
200010a6:	bd01      	pop	{r0, pc}
200010a8:	10004365 	.word	0x10004365

200010ac <default_alarm_pool>:
200010ac:	200010c4 00000000 200011e0 20002698     ... ....... .&. 
	...

200010c4 <default_alarm_pool_heap>:
200010c4:	200026a8 00000000 00000000 00000010     .&. ............

200010d4 <cyw43_poll_worker>:
200010d4:	00000000 1000538d 00000000              .....S......

200010e0 <sleep_timeout_worker>:
200010e0:	00000000 100052f1 00000000 00000000     .....R..........
	...

20001100 <aeabi_bits_funcs>:
20001100:	00003350 	.word	0x00003350
20001104:	0000334c 	.word	0x0000334c
20001108:	00003354 	.word	0x00003354
2000110c:	00003352 	.word	0x00003352

20001110 <aeabi_bits_funcs_end>:
20001110:	0000534d 	.word	0x0000534d
20001114:	0000434d 	.word	0x0000434d
20001118:	00003453 	.word	0x00003453
2000111c:	00003443 	.word	0x00003443

20001120 <stdio_uart>:
20001120:	10008395 00000000 100083e1 1000848d     ................
20001130:	00000000 00000100                       ........

20001138 <stdio_usb>:
20001138:	10008749 00000000 100086b9 10008641     I...........A...
20001148:	00000000 00000100                       ........

20001150 <ep_dir_string>:
20001150:	100424a8 10042488                       .$...$..

20001158 <_usbd_qdef>:
20001158:	20001788 000c0010 00000000 00000000     ... ............
	...

20001174 <_usbd_rhport>:
20001174:	000000ff                                ....

20001178 <print_mutex>:
	...

20001180 <__mutex_array_end>:
20001180:	10007ed1 	.word	0x10007ed1
20001184:	100076d9 	.word	0x100076d9
20001188:	10007d71 	.word	0x10007d71
2000118c:	10007e75 	.word	0x10007e75

20001190 <__frame_dummy_init_array_entry>:
20001190:	100002e5 100005d5                       ........
